
output.elf:     file format elf32-littleriscv


Disassembly of section .boot:

00000000 <boot_program>:
   0:	00025137          	.word	0x00025137
   4:	80010113          	.word	0x80010113
   8:	00800293          	.word	0x00800293
   c:	3002a073          	.word	0x3002a073
  10:	fff00293          	.word	0xfff00293
  14:	3042a073          	.word	0x3042a073
  18:	4e1200ef          	.word	0x4e1200ef
  1c:	c0001073          	.word	0xc0001073

Disassembly of section .text:

00020800 <_Z11getRegisterhPKcR8Ethernet>:
   20800:	00062703          	lw	a4,0(a2)
   20804:	fe010113          	add	sp,sp,-32
   20808:	00812c23          	sw	s0,24(sp)
   2080c:	20e547b3          	sh2add	a5,a0,a4
   20810:	0007a403          	lw	s0,0(a5)
   20814:	00058513          	mv	a0,a1
   20818:	00112e23          	sw	ra,28(sp)
   2081c:	01041413          	sll	s0,s0,0x10
   20820:	344010ef          	jal	21b64 <_ZN9SerialOut6printfEPKcz>
   20824:	01045413          	srl	s0,s0,0x10
   20828:	00010513          	mv	a0,sp
   2082c:	00f10793          	add	a5,sp,15
   20830:	00147713          	and	a4,s0,1
   20834:	03070713          	add	a4,a4,48
   20838:	00e78023          	sb	a4,0(a5)
   2083c:	00078713          	mv	a4,a5
   20840:	00145413          	srl	s0,s0,0x1
   20844:	fff78793          	add	a5,a5,-1
   20848:	fee514e3          	bne	a0,a4,20830 <_Z11getRegisterhPKcR8Ethernet+0x30>
   2084c:	01000593          	li	a1,16
   20850:	235000ef          	jal	21284 <_ZN9SerialOut5writeEPKcm>
   20854:	00000513          	li	a0,0
   20858:	209000ef          	jal	21260 <_ZN9SerialOut5writeEc>
   2085c:	01c12083          	lw	ra,28(sp)
   20860:	01812403          	lw	s0,24(sp)
   20864:	02010113          	add	sp,sp,32
   20868:	00008067          	ret

0002086c <_Z10packetLoopR4GPIOR8EthernetNS1_9macAddr_sEtb>:
   2086c:	f9010113          	add	sp,sp,-112
   20870:	00010ea3          	sb	zero,29(sp)
   20874:	06912223          	sw	s1,100(sp)
   20878:	07212023          	sw	s2,96(sp)
   2087c:	05412c23          	sw	s4,88(sp)
   20880:	05512a23          	sw	s5,84(sp)
   20884:	05812423          	sw	s8,72(sp)
   20888:	05912223          	sw	s9,68(sp)
   2088c:	05a12023          	sw	s10,64(sp)
   20890:	06112623          	sw	ra,108(sp)
   20894:	06812423          	sw	s0,104(sp)
   20898:	00050913          	mv	s2,a0
   2089c:	00058493          	mv	s1,a1
   208a0:	00c12423          	sw	a2,8(sp)
   208a4:	00d12623          	sw	a3,12(sp)
   208a8:	00e12223          	sw	a4,4(sp)
   208ac:	00078a13          	mv	s4,a5
   208b0:	00010e23          	sb	zero,28(sp)
   208b4:	02012023          	sw	zero,32(sp)
   208b8:	00023d37          	lui	s10,0x23
   208bc:	00900a93          	li	s5,9
   208c0:	00023c37          	lui	s8,0x23
   208c4:	00024cb7          	lui	s9,0x24
   208c8:	00400593          	li	a1,4
   208cc:	00090513          	mv	a0,s2
   208d0:	38c010ef          	jal	21c5c <_ZN4GPIO11getPinValueEm>
   208d4:	06051c63          	bnez	a0,2094c <_Z10packetLoopR4GPIOR8EthernetNS1_9macAddr_sEtb+0xe0>
   208d8:	00048513          	mv	a0,s1
   208dc:	0c1010ef          	jal	2219c <_ZN8Ethernet11isReceivingEv>
   208e0:	00a10ea3          	sb	a0,29(sp)
   208e4:	01c14783          	lbu	a5,28(sp)
   208e8:	01d14703          	lbu	a4,29(sp)
   208ec:	0017c793          	xor	a5,a5,1
   208f0:	0ff77713          	zext.b	a4,a4
   208f4:	08078263          	beqz	a5,20978 <_Z10packetLoopR4GPIOR8EthernetNS1_9macAddr_sEtb+0x10c>
   208f8:	08070063          	beqz	a4,20978 <_Z10packetLoopR4GPIOR8EthernetNS1_9macAddr_sEtb+0x10c>
   208fc:	264c0513          	add	a0,s8,612 # 23264 <__clzsi2+0x3c>
   20900:	218010ef          	jal	21b18 <_ZN9SerialOut7printlnEPKcz>
   20904:	00812683          	lw	a3,8(sp)
   20908:	00c12703          	lw	a4,12(sp)
   2090c:	0c0a0a63          	beqz	s4,209e0 <_Z10packetLoopR4GPIOR8EthernetNS1_9macAddr_sEtb+0x174>
   20910:	00412783          	lw	a5,4(sp)
   20914:	02010813          	add	a6,sp,32
   20918:	04100613          	li	a2,65
   2091c:	8e4c8593          	add	a1,s9,-1820 # 238e4 <TX_payload>
   20920:	00048513          	mv	a0,s1
   20924:	341010ef          	jal	22464 <_ZN8Ethernet9sendFrameEPKhmNS_9macAddr_sEtPNS_10ethError_eE>
   20928:	02012783          	lw	a5,32(sp)
   2092c:	0c079863          	bnez	a5,209fc <_Z10packetLoopR4GPIOR8EthernetNS1_9macAddr_sEtb+0x190>
   20930:	01d14783          	lbu	a5,29(sp)
   20934:	00400593          	li	a1,4
   20938:	00090513          	mv	a0,s2
   2093c:	0ff7f793          	zext.b	a5,a5
   20940:	00f10e23          	sb	a5,28(sp)
   20944:	318010ef          	jal	21c5c <_ZN4GPIO11getPinValueEm>
   20948:	f80508e3          	beqz	a0,208d8 <_Z10packetLoopR4GPIOR8EthernetNS1_9macAddr_sEtb+0x6c>
   2094c:	06c12083          	lw	ra,108(sp)
   20950:	06812403          	lw	s0,104(sp)
   20954:	06412483          	lw	s1,100(sp)
   20958:	06012903          	lw	s2,96(sp)
   2095c:	05812a03          	lw	s4,88(sp)
   20960:	05412a83          	lw	s5,84(sp)
   20964:	04812c03          	lw	s8,72(sp)
   20968:	04412c83          	lw	s9,68(sp)
   2096c:	04012d03          	lw	s10,64(sp)
   20970:	07010113          	add	sp,sp,112
   20974:	00008067          	ret
   20978:	01c14703          	lbu	a4,28(sp)
   2097c:	01d14783          	lbu	a5,29(sp)
   20980:	0ff77713          	zext.b	a4,a4
   20984:	0017c793          	xor	a5,a5,1
   20988:	fa0784e3          	beqz	a5,20930 <_Z10packetLoopR4GPIOR8EthernetNS1_9macAddr_sEtb+0xc4>
   2098c:	fa0702e3          	beqz	a4,20930 <_Z10packetLoopR4GPIOR8EthernetNS1_9macAddr_sEtb+0xc4>
   20990:	290d0513          	add	a0,s10,656 # 23290 <__clzsi2+0x68>
   20994:	184010ef          	jal	21b18 <_ZN9SerialOut7printlnEPKcz>
   20998:	00048513          	mv	a0,s1
   2099c:	4e1010ef          	jal	2267c <_ZN8Ethernet15getRxDescriptorEv>
   209a0:	02a12423          	sw	a0,40(sp)
   209a4:	02b12623          	sw	a1,44(sp)
   209a8:	02815603          	lhu	a2,40(sp)
   209ac:	00024437          	lui	s0,0x24
   209b0:	040a0e63          	beqz	s4,20a0c <_Z10packetLoopR4GPIOR8EthernetNS1_9macAddr_sEtb+0x1a0>
   209b4:	02010713          	add	a4,sp,32
   209b8:	01e10693          	add	a3,sp,30
   209bc:	92840593          	add	a1,s0,-1752 # 23928 <RX_payload>
   209c0:	00048513          	mv	a0,s1
   209c4:	439010ef          	jal	225fc <_ZN8Ethernet12receiveFrameEPhmPtPNS_10ethError_eE>
   209c8:	02012783          	lw	a5,32(sp)
   209cc:	04078c63          	beqz	a5,20a24 <_Z10packetLoopR4GPIOR8EthernetNS1_9macAddr_sEtb+0x1b8>
   209d0:	000237b7          	lui	a5,0x23
   209d4:	2a078513          	add	a0,a5,672 # 232a0 <__clzsi2+0x78>
   209d8:	140010ef          	jal	21b18 <_ZN9SerialOut7printlnEPKcz>
   209dc:	eedff06f          	j	208c8 <_Z10packetLoopR4GPIOR8EthernetNS1_9macAddr_sEtb+0x5c>
   209e0:	02010793          	add	a5,sp,32
   209e4:	04100613          	li	a2,65
   209e8:	8e4c8593          	add	a1,s9,-1820
   209ec:	00048513          	mv	a0,s1
   209f0:	15d010ef          	jal	2234c <_ZN8Ethernet9sendFrameEPKhmNS_9macAddr_sEPNS_10ethError_eE>
   209f4:	02012783          	lw	a5,32(sp)
   209f8:	f2078ce3          	beqz	a5,20930 <_Z10packetLoopR4GPIOR8EthernetNS1_9macAddr_sEtb+0xc4>
   209fc:	00023537          	lui	a0,0x23
   20a00:	27c50513          	add	a0,a0,636 # 2327c <__clzsi2+0x54>
   20a04:	114010ef          	jal	21b18 <_ZN9SerialOut7printlnEPKcz>
   20a08:	ec1ff06f          	j	208c8 <_Z10packetLoopR4GPIOR8EthernetNS1_9macAddr_sEtb+0x5c>
   20a0c:	02010693          	add	a3,sp,32
   20a10:	92840593          	add	a1,s0,-1752
   20a14:	00048513          	mv	a0,s1
   20a18:	37d010ef          	jal	22594 <_ZN8Ethernet12receiveFrameEPhmPNS_10ethError_eE>
   20a1c:	02012783          	lw	a5,32(sp)
   20a20:	fa0798e3          	bnez	a5,209d0 <_Z10packetLoopR4GPIOR8EthernetNS1_9macAddr_sEtb+0x164>
   20a24:	00023537          	lui	a0,0x23
   20a28:	2b450513          	add	a0,a0,692 # 232b4 <__clzsi2+0x8c>
   20a2c:	05312e23          	sw	s3,92(sp)
   20a30:	05612823          	sw	s6,80(sp)
   20a34:	05712623          	sw	s7,76(sp)
   20a38:	03b12e23          	sw	s11,60(sp)
   20a3c:	00900993          	li	s3,9
   20a40:	124010ef          	jal	21b64 <_ZN9SerialOut6printfEPKcz>
   20a44:	00500d93          	li	s11,5
   20a48:	fff00b93          	li	s7,-1
   20a4c:	00023b37          	lui	s6,0x23
   20a50:	030d8793          	add	a5,s11,48
   20a54:	002787b3          	add	a5,a5,sp
   20a58:	ffa7c783          	lbu	a5,-6(a5)
   20a5c:	00200593          	li	a1,2
   20a60:	02410513          	add	a0,sp,36
   20a64:	00f7f693          	and	a3,a5,15
   20a68:	03068713          	add	a4,a3,48
   20a6c:	0047d793          	srl	a5,a5,0x4
   20a70:	00d9f463          	bgeu	s3,a3,20a78 <_Z10packetLoopR4GPIOR8EthernetNS1_9macAddr_sEtb+0x20c>
   20a74:	03768713          	add	a4,a3,55
   20a78:	00871693          	sll	a3,a4,0x8
   20a7c:	03078713          	add	a4,a5,48
   20a80:	00f9f463          	bgeu	s3,a5,20a88 <_Z10packetLoopR4GPIOR8EthernetNS1_9macAddr_sEtb+0x21c>
   20a84:	03778713          	add	a4,a5,55
   20a88:	00d76733          	or	a4,a4,a3
   20a8c:	02e11223          	sh	a4,36(sp)
   20a90:	7f4000ef          	jal	21284 <_ZN9SerialOut5writeEPKcm>
   20a94:	00000513          	li	a0,0
   20a98:	7c8000ef          	jal	21260 <_ZN9SerialOut5writeEc>
   20a9c:	fffd8d93          	add	s11,s11,-1
   20aa0:	2e4b0513          	add	a0,s6,740 # 232e4 <__clzsi2+0xbc>
   20aa4:	017d8663          	beq	s11,s7,20ab0 <_Z10packetLoopR4GPIOR8EthernetNS1_9macAddr_sEtb+0x244>
   20aa8:	0bc010ef          	jal	21b64 <_ZN9SerialOut6printfEPKcz>
   20aac:	fa5ff06f          	j	20a50 <_Z10packetLoopR4GPIOR8EthernetNS1_9macAddr_sEtb+0x1e4>
   20ab0:	000237b7          	lui	a5,0x23
   20ab4:	2d878513          	add	a0,a5,728 # 232d8 <__clzsi2+0xb0>
   20ab8:	0ac010ef          	jal	21b64 <_ZN9SerialOut6printfEPKcz>
   20abc:	02815783          	lhu	a5,40(sp)
   20ac0:	0047d713          	srl	a4,a5,0x4
   20ac4:	00f7f693          	and	a3,a5,15
   20ac8:	01079793          	sll	a5,a5,0x10
   20acc:	0107d793          	srl	a5,a5,0x10
   20ad0:	00f77713          	and	a4,a4,15
   20ad4:	03768613          	add	a2,a3,55
   20ad8:	00dae463          	bltu	s5,a3,20ae0 <_Z10packetLoopR4GPIOR8EthernetNS1_9macAddr_sEtb+0x274>
   20adc:	03068613          	add	a2,a3,48
   20ae0:	03770813          	add	a6,a4,55
   20ae4:	00eae463          	bltu	s5,a4,20aec <_Z10packetLoopR4GPIOR8EthernetNS1_9macAddr_sEtb+0x280>
   20ae8:	03070813          	add	a6,a4,48
   20aec:	0087d713          	srl	a4,a5,0x8
   20af0:	00f77713          	and	a4,a4,15
   20af4:	00c7d793          	srl	a5,a5,0xc
   20af8:	03070693          	add	a3,a4,48
   20afc:	00eaf463          	bgeu	s5,a4,20b04 <_Z10packetLoopR4GPIOR8EthernetNS1_9macAddr_sEtb+0x298>
   20b00:	03770693          	add	a3,a4,55
   20b04:	03078713          	add	a4,a5,48
   20b08:	00faf463          	bgeu	s5,a5,20b10 <_Z10packetLoopR4GPIOR8EthernetNS1_9macAddr_sEtb+0x2a4>
   20b0c:	03778713          	add	a4,a5,55
   20b10:	02410513          	add	a0,sp,36
   20b14:	00400593          	li	a1,4
   20b18:	02c103a3          	sb	a2,39(sp)
   20b1c:	02e10223          	sb	a4,36(sp)
   20b20:	03010323          	sb	a6,38(sp)
   20b24:	02d102a3          	sb	a3,37(sp)
   20b28:	75c000ef          	jal	21284 <_ZN9SerialOut5writeEPKcm>
   20b2c:	00000513          	li	a0,0
   20b30:	730000ef          	jal	21260 <_ZN9SerialOut5writeEc>
   20b34:	120a1063          	bnez	s4,20c54 <_Z10packetLoopR4GPIOR8EthernetNS1_9macAddr_sEtb+0x3e8>
   20b38:	00023537          	lui	a0,0x23
   20b3c:	2f850513          	add	a0,a0,760 # 232f8 <__clzsi2+0xd0>
   20b40:	024010ef          	jal	21b64 <_ZN9SerialOut6printfEPKcz>
   20b44:	02815783          	lhu	a5,40(sp)
   20b48:	92840413          	add	s0,s0,-1752
   20b4c:	00000993          	li	s3,0
   20b50:	00900b13          	li	s6,9
   20b54:	04078c63          	beqz	a5,20bac <_Z10packetLoopR4GPIOR8EthernetNS1_9macAddr_sEtb+0x340>
   20b58:	00044783          	lbu	a5,0(s0)
   20b5c:	00200593          	li	a1,2
   20b60:	02410513          	add	a0,sp,36
   20b64:	00f7f693          	and	a3,a5,15
   20b68:	03068713          	add	a4,a3,48
   20b6c:	0047d793          	srl	a5,a5,0x4
   20b70:	00db7463          	bgeu	s6,a3,20b78 <_Z10packetLoopR4GPIOR8EthernetNS1_9macAddr_sEtb+0x30c>
   20b74:	03768713          	add	a4,a3,55
   20b78:	00871693          	sll	a3,a4,0x8
   20b7c:	03078713          	add	a4,a5,48
   20b80:	00fb7463          	bgeu	s6,a5,20b88 <_Z10packetLoopR4GPIOR8EthernetNS1_9macAddr_sEtb+0x31c>
   20b84:	03778713          	add	a4,a5,55
   20b88:	00d76733          	or	a4,a4,a3
   20b8c:	02e11223          	sh	a4,36(sp)
   20b90:	6f4000ef          	jal	21284 <_ZN9SerialOut5writeEPKcm>
   20b94:	00000513          	li	a0,0
   20b98:	6c8000ef          	jal	21260 <_ZN9SerialOut5writeEc>
   20b9c:	02815783          	lhu	a5,40(sp)
   20ba0:	00198993          	add	s3,s3,1
   20ba4:	00140413          	add	s0,s0,1
   20ba8:	faf9c8e3          	blt	s3,a5,20b58 <_Z10packetLoopR4GPIOR8EthernetNS1_9macAddr_sEtb+0x2ec>
   20bac:	00023537          	lui	a0,0x23
   20bb0:	30450513          	add	a0,a0,772 # 23304 <__clzsi2+0xdc>
   20bb4:	7b1000ef          	jal	21b64 <_ZN9SerialOut6printfEPKcz>
   20bb8:	02815703          	lhu	a4,40(sp)
   20bbc:	02815783          	lhu	a5,40(sp)
   20bc0:	00024437          	lui	s0,0x24
   20bc4:	01071993          	sll	s3,a4,0x10
   20bc8:	00378793          	add	a5,a5,3
   20bcc:	0109d993          	srl	s3,s3,0x10
   20bd0:	92840413          	add	s0,s0,-1752 # 23928 <RX_payload>
   20bd4:	00900b13          	li	s6,9
   20bd8:	04e7ce63          	blt	a5,a4,20c34 <_Z10packetLoopR4GPIOR8EthernetNS1_9macAddr_sEtb+0x3c8>
   20bdc:	013407b3          	add	a5,s0,s3
   20be0:	0007c783          	lbu	a5,0(a5)
   20be4:	00200593          	li	a1,2
   20be8:	02410513          	add	a0,sp,36
   20bec:	00f7f693          	and	a3,a5,15
   20bf0:	03068713          	add	a4,a3,48
   20bf4:	0047d793          	srl	a5,a5,0x4
   20bf8:	00db7463          	bgeu	s6,a3,20c00 <_Z10packetLoopR4GPIOR8EthernetNS1_9macAddr_sEtb+0x394>
   20bfc:	03768713          	add	a4,a3,55
   20c00:	00871693          	sll	a3,a4,0x8
   20c04:	03078713          	add	a4,a5,48
   20c08:	00fb7463          	bgeu	s6,a5,20c10 <_Z10packetLoopR4GPIOR8EthernetNS1_9macAddr_sEtb+0x3a4>
   20c0c:	03778713          	add	a4,a5,55
   20c10:	00d76733          	or	a4,a4,a3
   20c14:	02e11223          	sh	a4,36(sp)
   20c18:	66c000ef          	jal	21284 <_ZN9SerialOut5writeEPKcm>
   20c1c:	00000513          	li	a0,0
   20c20:	640000ef          	jal	21260 <_ZN9SerialOut5writeEc>
   20c24:	02815783          	lhu	a5,40(sp)
   20c28:	00198993          	add	s3,s3,1
   20c2c:	00378793          	add	a5,a5,3
   20c30:	fb37d6e3          	bge	a5,s3,20bdc <_Z10packetLoopR4GPIOR8EthernetNS1_9macAddr_sEtb+0x370>
   20c34:	00023537          	lui	a0,0x23
   20c38:	28c50513          	add	a0,a0,652 # 2328c <__clzsi2+0x64>
   20c3c:	729000ef          	jal	21b64 <_ZN9SerialOut6printfEPKcz>
   20c40:	05c12983          	lw	s3,92(sp)
   20c44:	05012b03          	lw	s6,80(sp)
   20c48:	04c12b83          	lw	s7,76(sp)
   20c4c:	03c12d83          	lw	s11,60(sp)
   20c50:	ce1ff06f          	j	20930 <_Z10packetLoopR4GPIOR8EthernetNS1_9macAddr_sEtb+0xc4>
   20c54:	00023537          	lui	a0,0x23
   20c58:	2e850513          	add	a0,a0,744 # 232e8 <__clzsi2+0xc0>
   20c5c:	709000ef          	jal	21b64 <_ZN9SerialOut6printfEPKcz>
   20c60:	01e15783          	lhu	a5,30(sp)
   20c64:	00900613          	li	a2,9
   20c68:	0047d713          	srl	a4,a5,0x4
   20c6c:	00f7f693          	and	a3,a5,15
   20c70:	00f77713          	and	a4,a4,15
   20c74:	03768813          	add	a6,a3,55
   20c78:	00d66463          	bltu	a2,a3,20c80 <_Z10packetLoopR4GPIOR8EthernetNS1_9macAddr_sEtb+0x414>
   20c7c:	03068813          	add	a6,a3,48
   20c80:	00900693          	li	a3,9
   20c84:	03770613          	add	a2,a4,55
   20c88:	00e6e463          	bltu	a3,a4,20c90 <_Z10packetLoopR4GPIOR8EthernetNS1_9macAddr_sEtb+0x424>
   20c8c:	03070613          	add	a2,a4,48
   20c90:	0087d713          	srl	a4,a5,0x8
   20c94:	00f77713          	and	a4,a4,15
   20c98:	00900593          	li	a1,9
   20c9c:	00c7d793          	srl	a5,a5,0xc
   20ca0:	03070693          	add	a3,a4,48
   20ca4:	04e5e063          	bltu	a1,a4,20ce4 <_Z10packetLoopR4GPIOR8EthernetNS1_9macAddr_sEtb+0x478>
   20ca8:	00900593          	li	a1,9
   20cac:	03078713          	add	a4,a5,48
   20cb0:	02f5e663          	bltu	a1,a5,20cdc <_Z10packetLoopR4GPIOR8EthernetNS1_9macAddr_sEtb+0x470>
   20cb4:	02410513          	add	a0,sp,36
   20cb8:	00400593          	li	a1,4
   20cbc:	030103a3          	sb	a6,39(sp)
   20cc0:	02e10223          	sb	a4,36(sp)
   20cc4:	02c10323          	sb	a2,38(sp)
   20cc8:	02d102a3          	sb	a3,37(sp)
   20ccc:	5b8000ef          	jal	21284 <_ZN9SerialOut5writeEPKcm>
   20cd0:	00000513          	li	a0,0
   20cd4:	58c000ef          	jal	21260 <_ZN9SerialOut5writeEc>
   20cd8:	e61ff06f          	j	20b38 <_Z10packetLoopR4GPIOR8EthernetNS1_9macAddr_sEtb+0x2cc>
   20cdc:	03778713          	add	a4,a5,55
   20ce0:	fd5ff06f          	j	20cb4 <_Z10packetLoopR4GPIOR8EthernetNS1_9macAddr_sEtb+0x448>
   20ce4:	00900593          	li	a1,9
   20ce8:	03770693          	add	a3,a4,55
   20cec:	03078713          	add	a4,a5,48
   20cf0:	fcf5f2e3          	bgeu	a1,a5,20cb4 <_Z10packetLoopR4GPIOR8EthernetNS1_9macAddr_sEtb+0x448>
   20cf4:	fe9ff06f          	j	20cdc <_Z10packetLoopR4GPIOR8EthernetNS1_9macAddr_sEtb+0x470>

00020cf8 <ethernet>:
   20cf8:	f9010113          	add	sp,sp,-112
   20cfc:	01010513          	add	a0,sp,16
   20d00:	00000593          	li	a1,0
   20d04:	06112623          	sw	ra,108(sp)
   20d08:	06812423          	sw	s0,104(sp)
   20d0c:	06912223          	sw	s1,100(sp)
   20d10:	07212023          	sw	s2,96(sp)
   20d14:	05312e23          	sw	s3,92(sp)
   20d18:	024010ef          	jal	21d3c <_ZN5TimerC1Em>
   20d1c:	00100693          	li	a3,1
   20d20:	fff00613          	li	a2,-1
   20d24:	fff00593          	li	a1,-1
   20d28:	01010513          	add	a0,sp,16
   20d2c:	0e4010ef          	jal	21e10 <_ZN5Timer4initEyNS_11timerMode_eE>
   20d30:	00000593          	li	a1,0
   20d34:	130010ef          	jal	21e64 <_ZN5Timer12setInterruptEb>
   20d38:	00000613          	li	a2,0
   20d3c:	00a00593          	li	a1,10
   20d40:	01010513          	add	a0,sp,16
   20d44:	1cc010ef          	jal	21f10 <_ZN5Timer5delayEy>
   20d48:	00000593          	li	a1,0
   20d4c:	02010513          	add	a0,sp,32
   20d50:	659000ef          	jal	21ba8 <_ZN4GPIOC1Em>
   20d54:	03410513          	add	a0,sp,52
   20d58:	285010ef          	jal	227dc <_ZN8EthernetC1Ev>
   20d5c:	00000713          	li	a4,0
   20d60:	00000693          	li	a3,0
   20d64:	0f000613          	li	a2,240
   20d68:	00000593          	li	a1,0
   20d6c:	02010513          	add	a0,sp,32
   20d70:	6a1000ef          	jal	21c10 <_ZN4GPIO4initEhhhh>
   20d74:	0001c537          	lui	a0,0x1c
   20d78:	00300713          	li	a4,3
   20d7c:	00000693          	li	a3,0
   20d80:	00000613          	li	a2,0
   20d84:	00100593          	li	a1,1
   20d88:	20050513          	add	a0,a0,512 # 1c200 <boot_program+0x1c200>
   20d8c:	3f0000ef          	jal	2117c <_ZN9SerialOut4initEmbN4UART12parityMode_eENS0_10stopBits_eENS0_12dataLenght_eE>
   20d90:	00023537          	lui	a0,0x23
   20d94:	30c50513          	add	a0,a0,780 # 2330c <__clzsi2+0xe4>
   20d98:	5cd000ef          	jal	21b64 <_ZN9SerialOut6printfEPKcz>
   20d9c:	00000693          	li	a3,0
   20da0:	00000713          	li	a4,0
   20da4:	00100613          	li	a2,1
   20da8:	00100593          	li	a1,1
   20dac:	03410513          	add	a0,sp,52
   20db0:	42d010ef          	jal	229dc <_ZN8Ethernet4initENS_10ethSpeed_eENS_11ethDuplex_eEbNS_9ethMode_eE>
   20db4:	c157b737          	lui	a4,0xc157b
   20db8:	ffffe7b7          	lui	a5,0xffffe
   20dbc:	000025b7          	lui	a1,0x2
   20dc0:	a1670713          	add	a4,a4,-1514 # c157aa16 <_ZN9SerialOut6statusE+0xc1556b0e>
   20dc4:	8bb78793          	add	a5,a5,-1861 # ffffd8bb <_ZN9SerialOut6statusE+0xfffd99b3>
   20dc8:	71058593          	add	a1,a1,1808 # 2710 <boot_program+0x2710>
   20dcc:	00000613          	li	a2,0
   20dd0:	01010513          	add	a0,sp,16
   20dd4:	00e12423          	sw	a4,8(sp)
   20dd8:	00f11623          	sh	a5,12(sp)
   20ddc:	000234b7          	lui	s1,0x23
   20de0:	130010ef          	jal	21f10 <_ZN5Timer5delayEy>
   20de4:	03410613          	add	a2,sp,52
   20de8:	36848593          	add	a1,s1,872 # 23368 <__clzsi2+0x140>
   20dec:	00000513          	li	a0,0
   20df0:	a11ff0ef          	jal	20800 <_Z11getRegisterhPKcR8Ethernet>
   20df4:	00023437          	lui	s0,0x23
   20df8:	03410613          	add	a2,sp,52
   20dfc:	38840593          	add	a1,s0,904 # 23388 <__clzsi2+0x160>
   20e00:	00100513          	li	a0,1
   20e04:	9fdff0ef          	jal	20800 <_Z11getRegisterhPKcR8Ethernet>
   20e08:	000235b7          	lui	a1,0x23
   20e0c:	03410613          	add	a2,sp,52
   20e10:	3a858593          	add	a1,a1,936 # 233a8 <__clzsi2+0x180>
   20e14:	00200513          	li	a0,2
   20e18:	9e9ff0ef          	jal	20800 <_Z11getRegisterhPKcR8Ethernet>
   20e1c:	000235b7          	lui	a1,0x23
   20e20:	03410613          	add	a2,sp,52
   20e24:	3cc58593          	add	a1,a1,972 # 233cc <__clzsi2+0x1a4>
   20e28:	00300513          	li	a0,3
   20e2c:	9d5ff0ef          	jal	20800 <_Z11getRegisterhPKcR8Ethernet>
   20e30:	000235b7          	lui	a1,0x23
   20e34:	03410613          	add	a2,sp,52
   20e38:	3f058593          	add	a1,a1,1008 # 233f0 <__clzsi2+0x1c8>
   20e3c:	00400513          	li	a0,4
   20e40:	9c1ff0ef          	jal	20800 <_Z11getRegisterhPKcR8Ethernet>
   20e44:	000235b7          	lui	a1,0x23
   20e48:	03410613          	add	a2,sp,52
   20e4c:	42058593          	add	a1,a1,1056 # 23420 <__clzsi2+0x1f8>
   20e50:	00500513          	li	a0,5
   20e54:	9adff0ef          	jal	20800 <_Z11getRegisterhPKcR8Ethernet>
   20e58:	000235b7          	lui	a1,0x23
   20e5c:	03410613          	add	a2,sp,52
   20e60:	45058593          	add	a1,a1,1104 # 23450 <__clzsi2+0x228>
   20e64:	00600513          	li	a0,6
   20e68:	999ff0ef          	jal	20800 <_Z11getRegisterhPKcR8Ethernet>
   20e6c:	000235b7          	lui	a1,0x23
   20e70:	03410613          	add	a2,sp,52
   20e74:	47c58593          	add	a1,a1,1148 # 2347c <__clzsi2+0x254>
   20e78:	01100513          	li	a0,17
   20e7c:	985ff0ef          	jal	20800 <_Z11getRegisterhPKcR8Ethernet>
   20e80:	000235b7          	lui	a1,0x23
   20e84:	03410613          	add	a2,sp,52
   20e88:	4a458593          	add	a1,a1,1188 # 234a4 <__clzsi2+0x27c>
   20e8c:	01200513          	li	a0,18
   20e90:	971ff0ef          	jal	20800 <_Z11getRegisterhPKcR8Ethernet>
   20e94:	000235b7          	lui	a1,0x23
   20e98:	03410613          	add	a2,sp,52
   20e9c:	4c458593          	add	a1,a1,1220 # 234c4 <__clzsi2+0x29c>
   20ea0:	01a00513          	li	a0,26
   20ea4:	95dff0ef          	jal	20800 <_Z11getRegisterhPKcR8Ethernet>
   20ea8:	000235b7          	lui	a1,0x23
   20eac:	03410613          	add	a2,sp,52
   20eb0:	4ec58593          	add	a1,a1,1260 # 234ec <__clzsi2+0x2c4>
   20eb4:	01b00513          	li	a0,27
   20eb8:	949ff0ef          	jal	20800 <_Z11getRegisterhPKcR8Ethernet>
   20ebc:	000235b7          	lui	a1,0x23
   20ec0:	03410613          	add	a2,sp,52
   20ec4:	52058593          	add	a1,a1,1312 # 23520 <__clzsi2+0x2f8>
   20ec8:	01d00513          	li	a0,29
   20ecc:	935ff0ef          	jal	20800 <_Z11getRegisterhPKcR8Ethernet>
   20ed0:	000235b7          	lui	a1,0x23
   20ed4:	03410613          	add	a2,sp,52
   20ed8:	54458593          	add	a1,a1,1348 # 23544 <__clzsi2+0x31c>
   20edc:	01e00513          	li	a0,30
   20ee0:	921ff0ef          	jal	20800 <_Z11getRegisterhPKcR8Ethernet>
   20ee4:	000235b7          	lui	a1,0x23
   20ee8:	03410613          	add	a2,sp,52
   20eec:	56458593          	add	a1,a1,1380 # 23564 <__clzsi2+0x33c>
   20ef0:	01f00513          	li	a0,31
   20ef4:	90dff0ef          	jal	20800 <_Z11getRegisterhPKcR8Ethernet>
   20ef8:	00023537          	lui	a0,0x23
   20efc:	59050513          	add	a0,a0,1424 # 23590 <__clzsi2+0x368>
   20f00:	465000ef          	jal	21b64 <_ZN9SerialOut6printfEPKcz>
   20f04:	03410613          	add	a2,sp,52
   20f08:	36848593          	add	a1,s1,872
   20f0c:	00000513          	li	a0,0
   20f10:	8f1ff0ef          	jal	20800 <_Z11getRegisterhPKcR8Ethernet>
   20f14:	03410613          	add	a2,sp,52
   20f18:	38840593          	add	a1,s0,904
   20f1c:	00100513          	li	a0,1
   20f20:	8e1ff0ef          	jal	20800 <_Z11getRegisterhPKcR8Ethernet>
   20f24:	3e800593          	li	a1,1000
   20f28:	00000613          	li	a2,0
   20f2c:	01010513          	add	a0,sp,16
   20f30:	7e1000ef          	jal	21f10 <_ZN5Timer5delayEy>
   20f34:	000239b7          	lui	s3,0x23
   20f38:	5d898513          	add	a0,s3,1496 # 235d8 <__clzsi2+0x3b0>
   20f3c:	3dd000ef          	jal	21b18 <_ZN9SerialOut7printlnEPKcz>
   20f40:	03410513          	add	a0,sp,52
   20f44:	33c010ef          	jal	22280 <_ZN8Ethernet8waitLinkEv>
   20f48:	00023937          	lui	s2,0x23
   20f4c:	5f490513          	add	a0,s2,1524 # 235f4 <__clzsi2+0x3cc>
   20f50:	3c9000ef          	jal	21b18 <_ZN9SerialOut7printlnEPKcz>
   20f54:	3e800593          	li	a1,1000
   20f58:	00000613          	li	a2,0
   20f5c:	01010513          	add	a0,sp,16
   20f60:	7b1000ef          	jal	21f10 <_ZN5Timer5delayEy>
   20f64:	00812603          	lw	a2,8(sp)
   20f68:	00c12683          	lw	a3,12(sp)
   20f6c:	00000793          	li	a5,0
   20f70:	03410593          	add	a1,sp,52
   20f74:	64000713          	li	a4,1600
   20f78:	02010513          	add	a0,sp,32
   20f7c:	8f1ff0ef          	jal	2086c <_Z10packetLoopR4GPIOR8EthernetNS1_9macAddr_sEtb>
   20f80:	00023537          	lui	a0,0x23
   20f84:	61450513          	add	a0,a0,1556 # 23614 <__clzsi2+0x3ec>
   20f88:	3dd000ef          	jal	21b64 <_ZN9SerialOut6printfEPKcz>
   20f8c:	00000713          	li	a4,0
   20f90:	00000693          	li	a3,0
   20f94:	00100613          	li	a2,1
   20f98:	00000593          	li	a1,0
   20f9c:	03410513          	add	a0,sp,52
   20fa0:	23d010ef          	jal	229dc <_ZN8Ethernet4initENS_10ethSpeed_eENS_11ethDuplex_eEbNS_9ethMode_eE>
   20fa4:	03410613          	add	a2,sp,52
   20fa8:	36848593          	add	a1,s1,872
   20fac:	00000513          	li	a0,0
   20fb0:	851ff0ef          	jal	20800 <_Z11getRegisterhPKcR8Ethernet>
   20fb4:	03410613          	add	a2,sp,52
   20fb8:	38840593          	add	a1,s0,904
   20fbc:	00100513          	li	a0,1
   20fc0:	841ff0ef          	jal	20800 <_Z11getRegisterhPKcR8Ethernet>
   20fc4:	3e800593          	li	a1,1000
   20fc8:	00000613          	li	a2,0
   20fcc:	01010513          	add	a0,sp,16
   20fd0:	741000ef          	jal	21f10 <_ZN5Timer5delayEy>
   20fd4:	5d898513          	add	a0,s3,1496
   20fd8:	341000ef          	jal	21b18 <_ZN9SerialOut7printlnEPKcz>
   20fdc:	03410513          	add	a0,sp,52
   20fe0:	2a0010ef          	jal	22280 <_ZN8Ethernet8waitLinkEv>
   20fe4:	5f490513          	add	a0,s2,1524
   20fe8:	331000ef          	jal	21b18 <_ZN9SerialOut7printlnEPKcz>
   20fec:	3e800593          	li	a1,1000
   20ff0:	00000613          	li	a2,0
   20ff4:	01010513          	add	a0,sp,16
   20ff8:	719000ef          	jal	21f10 <_ZN5Timer5delayEy>
   20ffc:	00812603          	lw	a2,8(sp)
   21000:	00c12683          	lw	a3,12(sp)
   21004:	00000793          	li	a5,0
   21008:	03410593          	add	a1,sp,52
   2100c:	64000713          	li	a4,1600
   21010:	02010513          	add	a0,sp,32
   21014:	859ff0ef          	jal	2086c <_Z10packetLoopR4GPIOR8EthernetNS1_9macAddr_sEtb>
   21018:	00023537          	lui	a0,0x23
   2101c:	65c50513          	add	a0,a0,1628 # 2365c <__clzsi2+0x434>
   21020:	345000ef          	jal	21b64 <_ZN9SerialOut6printfEPKcz>
   21024:	00100713          	li	a4,1
   21028:	00000693          	li	a3,0
   2102c:	00100613          	li	a2,1
   21030:	00100593          	li	a1,1
   21034:	03410513          	add	a0,sp,52
   21038:	1a5010ef          	jal	229dc <_ZN8Ethernet4initENS_10ethSpeed_eENS_11ethDuplex_eEbNS_9ethMode_eE>
   2103c:	03410613          	add	a2,sp,52
   21040:	36848593          	add	a1,s1,872
   21044:	00000513          	li	a0,0
   21048:	fb8ff0ef          	jal	20800 <_Z11getRegisterhPKcR8Ethernet>
   2104c:	03410613          	add	a2,sp,52
   21050:	38840593          	add	a1,s0,904
   21054:	00100513          	li	a0,1
   21058:	fa8ff0ef          	jal	20800 <_Z11getRegisterhPKcR8Ethernet>
   2105c:	3e800593          	li	a1,1000
   21060:	00000613          	li	a2,0
   21064:	01010513          	add	a0,sp,16
   21068:	6a9000ef          	jal	21f10 <_ZN5Timer5delayEy>
   2106c:	5d898513          	add	a0,s3,1496
   21070:	2a9000ef          	jal	21b18 <_ZN9SerialOut7printlnEPKcz>
   21074:	03410513          	add	a0,sp,52
   21078:	208010ef          	jal	22280 <_ZN8Ethernet8waitLinkEv>
   2107c:	5f490513          	add	a0,s2,1524
   21080:	299000ef          	jal	21b18 <_ZN9SerialOut7printlnEPKcz>
   21084:	3e800593          	li	a1,1000
   21088:	00000613          	li	a2,0
   2108c:	01010513          	add	a0,sp,16
   21090:	681000ef          	jal	21f10 <_ZN5Timer5delayEy>
   21094:	00812603          	lw	a2,8(sp)
   21098:	00c12683          	lw	a3,12(sp)
   2109c:	00100793          	li	a5,1
   210a0:	03410593          	add	a1,sp,52
   210a4:	64000713          	li	a4,1600
   210a8:	02010513          	add	a0,sp,32
   210ac:	fc0ff0ef          	jal	2086c <_Z10packetLoopR4GPIOR8EthernetNS1_9macAddr_sEtb>
   210b0:	00023537          	lui	a0,0x23
   210b4:	6a450513          	add	a0,a0,1700 # 236a4 <__clzsi2+0x47c>
   210b8:	2ad000ef          	jal	21b64 <_ZN9SerialOut6printfEPKcz>
   210bc:	00100713          	li	a4,1
   210c0:	00000693          	li	a3,0
   210c4:	00100613          	li	a2,1
   210c8:	00000593          	li	a1,0
   210cc:	03410513          	add	a0,sp,52
   210d0:	10d010ef          	jal	229dc <_ZN8Ethernet4initENS_10ethSpeed_eENS_11ethDuplex_eEbNS_9ethMode_eE>
   210d4:	03410613          	add	a2,sp,52
   210d8:	36848593          	add	a1,s1,872
   210dc:	00000513          	li	a0,0
   210e0:	f20ff0ef          	jal	20800 <_Z11getRegisterhPKcR8Ethernet>
   210e4:	03410613          	add	a2,sp,52
   210e8:	38840593          	add	a1,s0,904
   210ec:	00100513          	li	a0,1
   210f0:	f10ff0ef          	jal	20800 <_Z11getRegisterhPKcR8Ethernet>
   210f4:	3e800593          	li	a1,1000
   210f8:	00000613          	li	a2,0
   210fc:	01010513          	add	a0,sp,16
   21100:	611000ef          	jal	21f10 <_ZN5Timer5delayEy>
   21104:	5d898513          	add	a0,s3,1496
   21108:	211000ef          	jal	21b18 <_ZN9SerialOut7printlnEPKcz>
   2110c:	03410513          	add	a0,sp,52
   21110:	170010ef          	jal	22280 <_ZN8Ethernet8waitLinkEv>
   21114:	5f490513          	add	a0,s2,1524
   21118:	201000ef          	jal	21b18 <_ZN9SerialOut7printlnEPKcz>
   2111c:	3e800593          	li	a1,1000
   21120:	00000613          	li	a2,0
   21124:	01010513          	add	a0,sp,16
   21128:	5e9000ef          	jal	21f10 <_ZN5Timer5delayEy>
   2112c:	00812603          	lw	a2,8(sp)
   21130:	00c12683          	lw	a3,12(sp)
   21134:	03410593          	add	a1,sp,52
   21138:	00100793          	li	a5,1
   2113c:	64000713          	li	a4,1600
   21140:	02010513          	add	a0,sp,32
   21144:	f28ff0ef          	jal	2086c <_Z10packetLoopR4GPIOR8EthernetNS1_9macAddr_sEtb>
   21148:	03410513          	add	a0,sp,52
   2114c:	604010ef          	jal	22750 <_ZN8EthernetD1Ev>
   21150:	02010513          	add	a0,sp,32
   21154:	299000ef          	jal	21bec <_ZN4GPIOD1Ev>
   21158:	01010513          	add	a0,sp,16
   2115c:	459000ef          	jal	21db4 <_ZN5TimerD1Ev>
   21160:	06c12083          	lw	ra,108(sp)
   21164:	06812403          	lw	s0,104(sp)
   21168:	06412483          	lw	s1,100(sp)
   2116c:	06012903          	lw	s2,96(sp)
   21170:	05c12983          	lw	s3,92(sp)
   21174:	07010113          	add	sp,sp,112
   21178:	00008067          	ret

0002117c <_ZN9SerialOut4initEmbN4UART12parityMode_eENS0_10stopBits_eENS0_12dataLenght_eE>:
   2117c:	000247b7          	lui	a5,0x24
   21180:	28b01813          	bset	a6,zero,0xb
   21184:	f107a423          	sw	a6,-248(a5) # 23f08 <_ZN9SerialOut6statusE>
   21188:	f087a803          	lw	a6,-248(a5)
   2118c:	00480813          	add	a6,a6,4
   21190:	000248b7          	lui	a7,0x24
   21194:	f108a223          	sw	a6,-252(a7) # 23f04 <_ZN9SerialOut8bufferTXE>
   21198:	f087a883          	lw	a7,-248(a5)
   2119c:	0015f593          	and	a1,a1,1
   211a0:	00b59813          	sll	a6,a1,0xb
   211a4:	0008a583          	lw	a1,0(a7)
   211a8:	48b59593          	bclr	a1,a1,0xb
   211ac:	0105e5b3          	or	a1,a1,a6
   211b0:	00b8a023          	sw	a1,0(a7)
   211b4:	f087a803          	lw	a6,-248(a5)
   211b8:	00377713          	and	a4,a4,3
   211bc:	00e71593          	sll	a1,a4,0xe
   211c0:	00082703          	lw	a4,0(a6)
   211c4:	48e71713          	bclr	a4,a4,0xe
   211c8:	48f71713          	bclr	a4,a4,0xf
   211cc:	00b76733          	or	a4,a4,a1
   211d0:	00e82023          	sw	a4,0(a6)
   211d4:	f087a583          	lw	a1,-248(a5)
   211d8:	0016f693          	and	a3,a3,1
   211dc:	00d69693          	sll	a3,a3,0xd
   211e0:	0005a703          	lw	a4,0(a1)
   211e4:	48d71713          	bclr	a4,a4,0xd
   211e8:	00d76733          	or	a4,a4,a3
   211ec:	00e5a023          	sw	a4,0(a1)
   211f0:	f087a683          	lw	a3,-248(a5)
   211f4:	00167613          	and	a2,a2,1
   211f8:	00c61713          	sll	a4,a2,0xc
   211fc:	0006a603          	lw	a2,0(a3)
   21200:	48c61613          	bclr	a2,a2,0xc
   21204:	00e66633          	or	a2,a2,a4
   21208:	00c6a023          	sw	a2,0(a3)
   2120c:	00451513          	sll	a0,a0,0x4
   21210:	05f5e737          	lui	a4,0x5f5e
   21214:	10070713          	add	a4,a4,256 # 5f5e100 <_ZN9SerialOut6statusE+0x5f3a1f8>
   21218:	02a75733          	divu	a4,a4,a0
   2121c:	fff70713          	add	a4,a4,-1
   21220:	f087a603          	lw	a2,-248(a5)
   21224:	01171713          	sll	a4,a4,0x11
   21228:	00062683          	lw	a3,0(a2)
   2122c:	00f69693          	sll	a3,a3,0xf
   21230:	00f6d693          	srl	a3,a3,0xf
   21234:	00e6e733          	or	a4,a3,a4
   21238:	00e62023          	sw	a4,0(a2)
   2123c:	f087a683          	lw	a3,-248(a5)
   21240:	0006a703          	lw	a4,0(a3)
   21244:	dff77713          	and	a4,a4,-513
   21248:	00e6a023          	sw	a4,0(a3)
   2124c:	f087a703          	lw	a4,-248(a5)
   21250:	00072783          	lw	a5,0(a4)
   21254:	4007e793          	or	a5,a5,1024
   21258:	00f72023          	sw	a5,0(a4)
   2125c:	00008067          	ret

00021260 <_ZN9SerialOut5writeEc>:
   21260:	00024737          	lui	a4,0x24
   21264:	f0872783          	lw	a5,-248(a4) # 23f08 <_ZN9SerialOut6statusE>
   21268:	0007a783          	lw	a5,0(a5)
   2126c:	4837d793          	bext	a5,a5,0x3
   21270:	fe079ae3          	bnez	a5,21264 <_ZN9SerialOut5writeEc+0x4>
   21274:	000247b7          	lui	a5,0x24
   21278:	f047a783          	lw	a5,-252(a5) # 23f04 <_ZN9SerialOut8bufferTXE>
   2127c:	00a78023          	sb	a0,0(a5)
   21280:	00008067          	ret

00021284 <_ZN9SerialOut5writeEPKcm>:
   21284:	02058c63          	beqz	a1,212bc <_ZN9SerialOut5writeEPKcm+0x38>
   21288:	00050693          	mv	a3,a0
   2128c:	00b505b3          	add	a1,a0,a1
   21290:	00024737          	lui	a4,0x24
   21294:	00024537          	lui	a0,0x24
   21298:	f0872783          	lw	a5,-248(a4) # 23f08 <_ZN9SerialOut6statusE>
   2129c:	0007a783          	lw	a5,0(a5)
   212a0:	4837d793          	bext	a5,a5,0x3
   212a4:	fe079ae3          	bnez	a5,21298 <_ZN9SerialOut5writeEPKcm+0x14>
   212a8:	f0452783          	lw	a5,-252(a0) # 23f04 <_ZN9SerialOut8bufferTXE>
   212ac:	0006c603          	lbu	a2,0(a3)
   212b0:	00c78023          	sb	a2,0(a5)
   212b4:	00168693          	add	a3,a3,1
   212b8:	feb690e3          	bne	a3,a1,21298 <_ZN9SerialOut5writeEPKcm+0x14>
   212bc:	00008067          	ret

000212c0 <_ZN9SerialOut5writeEPKc>:
   212c0:	ff010113          	add	sp,sp,-16
   212c4:	00112623          	sw	ra,12(sp)
   212c8:	00054783          	lbu	a5,0(a0)
   212cc:	02078463          	beqz	a5,212f4 <_ZN9SerialOut5writeEPKc+0x34>
   212d0:	00000593          	li	a1,0
   212d4:	00158593          	add	a1,a1,1
   212d8:	00b507b3          	add	a5,a0,a1
   212dc:	0007c783          	lbu	a5,0(a5)
   212e0:	fe079ae3          	bnez	a5,212d4 <_ZN9SerialOut5writeEPKc+0x14>
   212e4:	fa1ff0ef          	jal	21284 <_ZN9SerialOut5writeEPKcm>
   212e8:	00c12083          	lw	ra,12(sp)
   212ec:	01010113          	add	sp,sp,16
   212f0:	00008067          	ret
   212f4:	00000593          	li	a1,0
   212f8:	fedff06f          	j	212e4 <_ZN9SerialOut5writeEPKc+0x24>

000212fc <_ZN9SerialOut7vprintfEPKcPv>:
   212fc:	f9010113          	add	sp,sp,-112
   21300:	06112623          	sw	ra,108(sp)
   21304:	06812423          	sw	s0,104(sp)
   21308:	00050413          	mv	s0,a0
   2130c:	00054503          	lbu	a0,0(a0)
   21310:	7e050c63          	beqz	a0,21b08 <_ZN9SerialOut7vprintfEPKcPv+0x80c>
   21314:	06912223          	sw	s1,100(sp)
   21318:	07212023          	sw	s2,96(sp)
   2131c:	05312e23          	sw	s3,92(sp)
   21320:	05412c23          	sw	s4,88(sp)
   21324:	05512a23          	sw	s5,84(sp)
   21328:	05612823          	sw	s6,80(sp)
   2132c:	05712623          	sw	s7,76(sp)
   21330:	00058b13          	mv	s6,a1
   21334:	00000a93          	li	s5,0
   21338:	02500913          	li	s2,37
   2133c:	01600a13          	li	s4,22
   21340:	000239b7          	lui	s3,0x23
   21344:	70098993          	add	s3,s3,1792 # 23700 <__clzsi2+0x4d8>
   21348:	77c0006f          	j	21ac4 <_ZN9SerialOut7vprintfEPKcPv+0x7c8>
   2134c:	004b0b93          	add	s7,s6,4
   21350:	000b2a83          	lw	s5,0(s6)
   21354:	41fadb13          	sra	s6,s5,0x1f
   21358:	100ac463          	bltz	s5,21460 <_ZN9SerialOut7vprintfEPKcPv+0x164>
   2135c:	00000593          	li	a1,0
   21360:	00500613          	li	a2,5
   21364:	ccccd6b7          	lui	a3,0xccccd
   21368:	ccd68693          	add	a3,a3,-819 # cccccccd <_ZN9SerialOut6statusE+0xccca8dc5>
   2136c:	ccccd537          	lui	a0,0xccccd
   21370:	ccc50513          	add	a0,a0,-820 # cccccccc <_ZN9SerialOut6statusE+0xccca8dc4>
   21374:	016a87b3          	add	a5,s5,s6
   21378:	0157b733          	sltu	a4,a5,s5
   2137c:	00e787b3          	add	a5,a5,a4
   21380:	02c7f7b3          	remu	a5,a5,a2
   21384:	40fa87b3          	sub	a5,s5,a5
   21388:	02d787b3          	mul	a5,a5,a3
   2138c:	0017d793          	srl	a5,a5,0x1
   21390:	20f7c7b3          	sh2add	a5,a5,a5
   21394:	00179793          	sll	a5,a5,0x1
   21398:	40fa87b3          	sub	a5,s5,a5
   2139c:	03078793          	add	a5,a5,48
   213a0:	000a8e13          	mv	t3,s5
   213a4:	000b0313          	mv	t1,s6
   213a8:	016a8733          	add	a4,s5,s6
   213ac:	01573833          	sltu	a6,a4,s5
   213b0:	01070733          	add	a4,a4,a6
   213b4:	02c77733          	remu	a4,a4,a2
   213b8:	40ea8733          	sub	a4,s5,a4
   213bc:	00eab833          	sltu	a6,s5,a4
   213c0:	410b0833          	sub	a6,s6,a6
   213c4:	02d80833          	mul	a6,a6,a3
   213c8:	02a708b3          	mul	a7,a4,a0
   213cc:	01180833          	add	a6,a6,a7
   213d0:	02d708b3          	mul	a7,a4,a3
   213d4:	02d73733          	mulhu	a4,a4,a3
   213d8:	00e80733          	add	a4,a6,a4
   213dc:	01f71a93          	sll	s5,a4,0x1f
   213e0:	0018d813          	srl	a6,a7,0x1
   213e4:	010aeab3          	or	s5,s5,a6
   213e8:	00175b13          	srl	s6,a4,0x1
   213ec:	00058813          	mv	a6,a1
   213f0:	00158593          	add	a1,a1,1
   213f4:	00b10733          	add	a4,sp,a1
   213f8:	fef70fa3          	sb	a5,-1(a4)
   213fc:	f6031ce3          	bnez	t1,21374 <_ZN9SerialOut7vprintfEPKcPv+0x78>
   21400:	00031663          	bnez	t1,2140c <_ZN9SerialOut7vprintfEPKcPv+0x110>
   21404:	00900793          	li	a5,9
   21408:	f7c7e6e3          	bltu	a5,t3,21374 <_ZN9SerialOut7vprintfEPKcPv+0x78>
   2140c:	0015d893          	srl	a7,a1,0x1
   21410:	00100793          	li	a5,1
   21414:	02b7f863          	bgeu	a5,a1,21444 <_ZN9SerialOut7vprintfEPKcPv+0x148>
   21418:	010107b3          	add	a5,sp,a6
   2141c:	00010713          	mv	a4,sp
   21420:	00078513          	mv	a0,a5
   21424:	0007c683          	lbu	a3,0(a5)
   21428:	00074603          	lbu	a2,0(a4)
   2142c:	00c78023          	sb	a2,0(a5)
   21430:	00d70023          	sb	a3,0(a4)
   21434:	fff78793          	add	a5,a5,-1
   21438:	00170713          	add	a4,a4,1
   2143c:	40f506b3          	sub	a3,a0,a5
   21440:	ff16e2e3          	bltu	a3,a7,21424 <_ZN9SerialOut7vprintfEPKcPv+0x128>
   21444:	00010513          	mv	a0,sp
   21448:	e3dff0ef          	jal	21284 <_ZN9SerialOut5writeEPKcm>
   2144c:	00000513          	li	a0,0
   21450:	e11ff0ef          	jal	21260 <_ZN9SerialOut5writeEc>
   21454:	000b8b13          	mv	s6,s7
   21458:	00048a93          	mv	s5,s1
   2145c:	6580006f          	j	21ab4 <_ZN9SerialOut7vprintfEPKcPv+0x7b8>
   21460:	015037b3          	snez	a5,s5
   21464:	41600b33          	neg	s6,s6
   21468:	40fb0b33          	sub	s6,s6,a5
   2146c:	41500ab3          	neg	s5,s5
   21470:	02d00513          	li	a0,45
   21474:	dedff0ef          	jal	21260 <_ZN9SerialOut5writeEc>
   21478:	ee5ff06f          	j	2135c <_ZN9SerialOut7vprintfEPKcPv+0x60>
   2147c:	007b0793          	add	a5,s6,7
   21480:	ff87f793          	and	a5,a5,-8
   21484:	00878b13          	add	s6,a5,8
   21488:	0007aa83          	lw	s5,0(a5)
   2148c:	0047ab83          	lw	s7,4(a5)
   21490:	100bc263          	bltz	s7,21594 <_ZN9SerialOut7vprintfEPKcPv+0x298>
   21494:	00000593          	li	a1,0
   21498:	00500613          	li	a2,5
   2149c:	ccccd6b7          	lui	a3,0xccccd
   214a0:	ccd68693          	add	a3,a3,-819 # cccccccd <_ZN9SerialOut6statusE+0xccca8dc5>
   214a4:	ccccd537          	lui	a0,0xccccd
   214a8:	ccc50513          	add	a0,a0,-820 # cccccccc <_ZN9SerialOut6statusE+0xccca8dc4>
   214ac:	017a87b3          	add	a5,s5,s7
   214b0:	0157b733          	sltu	a4,a5,s5
   214b4:	00e787b3          	add	a5,a5,a4
   214b8:	02c7f7b3          	remu	a5,a5,a2
   214bc:	40fa87b3          	sub	a5,s5,a5
   214c0:	02d787b3          	mul	a5,a5,a3
   214c4:	0017d793          	srl	a5,a5,0x1
   214c8:	20f7c7b3          	sh2add	a5,a5,a5
   214cc:	00179793          	sll	a5,a5,0x1
   214d0:	40fa87b3          	sub	a5,s5,a5
   214d4:	03078793          	add	a5,a5,48
   214d8:	000a8e13          	mv	t3,s5
   214dc:	000b8313          	mv	t1,s7
   214e0:	017a8733          	add	a4,s5,s7
   214e4:	01573833          	sltu	a6,a4,s5
   214e8:	01070733          	add	a4,a4,a6
   214ec:	02c77733          	remu	a4,a4,a2
   214f0:	40ea8733          	sub	a4,s5,a4
   214f4:	00eab833          	sltu	a6,s5,a4
   214f8:	410b8833          	sub	a6,s7,a6
   214fc:	02d80833          	mul	a6,a6,a3
   21500:	02a708b3          	mul	a7,a4,a0
   21504:	01180833          	add	a6,a6,a7
   21508:	02d708b3          	mul	a7,a4,a3
   2150c:	02d73733          	mulhu	a4,a4,a3
   21510:	00e80733          	add	a4,a6,a4
   21514:	01f71a93          	sll	s5,a4,0x1f
   21518:	0018d813          	srl	a6,a7,0x1
   2151c:	010aeab3          	or	s5,s5,a6
   21520:	00175b93          	srl	s7,a4,0x1
   21524:	00058813          	mv	a6,a1
   21528:	00158593          	add	a1,a1,1
   2152c:	00b10733          	add	a4,sp,a1
   21530:	fef70fa3          	sb	a5,-1(a4)
   21534:	f6031ce3          	bnez	t1,214ac <_ZN9SerialOut7vprintfEPKcPv+0x1b0>
   21538:	00031663          	bnez	t1,21544 <_ZN9SerialOut7vprintfEPKcPv+0x248>
   2153c:	00900793          	li	a5,9
   21540:	f7c7e6e3          	bltu	a5,t3,214ac <_ZN9SerialOut7vprintfEPKcPv+0x1b0>
   21544:	0015d893          	srl	a7,a1,0x1
   21548:	00100793          	li	a5,1
   2154c:	02b7f863          	bgeu	a5,a1,2157c <_ZN9SerialOut7vprintfEPKcPv+0x280>
   21550:	010107b3          	add	a5,sp,a6
   21554:	00010713          	mv	a4,sp
   21558:	00078513          	mv	a0,a5
   2155c:	0007c683          	lbu	a3,0(a5)
   21560:	00074603          	lbu	a2,0(a4)
   21564:	00c78023          	sb	a2,0(a5)
   21568:	00d70023          	sb	a3,0(a4)
   2156c:	fff78793          	add	a5,a5,-1
   21570:	00170713          	add	a4,a4,1
   21574:	40f506b3          	sub	a3,a0,a5
   21578:	ff16e2e3          	bltu	a3,a7,2155c <_ZN9SerialOut7vprintfEPKcPv+0x260>
   2157c:	00010513          	mv	a0,sp
   21580:	d05ff0ef          	jal	21284 <_ZN9SerialOut5writeEPKcm>
   21584:	00000513          	li	a0,0
   21588:	cd9ff0ef          	jal	21260 <_ZN9SerialOut5writeEc>
   2158c:	00048a93          	mv	s5,s1
   21590:	5240006f          	j	21ab4 <_ZN9SerialOut7vprintfEPKcPv+0x7b8>
   21594:	015037b3          	snez	a5,s5
   21598:	41700bb3          	neg	s7,s7
   2159c:	40fb8bb3          	sub	s7,s7,a5
   215a0:	41500ab3          	neg	s5,s5
   215a4:	02d00513          	li	a0,45
   215a8:	cb9ff0ef          	jal	21260 <_ZN9SerialOut5writeEc>
   215ac:	ee9ff06f          	j	21494 <_ZN9SerialOut7vprintfEPKcPv+0x198>
   215b0:	004b0a93          	add	s5,s6,4
   215b4:	000b2683          	lw	a3,0(s6)
   215b8:	00000893          	li	a7,0
   215bc:	00000593          	li	a1,0
   215c0:	00500513          	li	a0,5
   215c4:	ccccd637          	lui	a2,0xccccd
   215c8:	ccd60613          	add	a2,a2,-819 # cccccccd <_ZN9SerialOut6statusE+0xccca8dc5>
   215cc:	ccccd837          	lui	a6,0xccccd
   215d0:	ccc80813          	add	a6,a6,-820 # cccccccc <_ZN9SerialOut6statusE+0xccca8dc4>
   215d4:	011687b3          	add	a5,a3,a7
   215d8:	00d7b733          	sltu	a4,a5,a3
   215dc:	00e787b3          	add	a5,a5,a4
   215e0:	02a7f7b3          	remu	a5,a5,a0
   215e4:	40f687b3          	sub	a5,a3,a5
   215e8:	02c787b3          	mul	a5,a5,a2
   215ec:	0017d793          	srl	a5,a5,0x1
   215f0:	20f7c7b3          	sh2add	a5,a5,a5
   215f4:	00179793          	sll	a5,a5,0x1
   215f8:	40f687b3          	sub	a5,a3,a5
   215fc:	03078793          	add	a5,a5,48
   21600:	00068e13          	mv	t3,a3
   21604:	00088313          	mv	t1,a7
   21608:	01168733          	add	a4,a3,a7
   2160c:	00d73eb3          	sltu	t4,a4,a3
   21610:	01d70733          	add	a4,a4,t4
   21614:	02a77733          	remu	a4,a4,a0
   21618:	40e68733          	sub	a4,a3,a4
   2161c:	00e6b6b3          	sltu	a3,a3,a4
   21620:	40d886b3          	sub	a3,a7,a3
   21624:	02c686b3          	mul	a3,a3,a2
   21628:	030708b3          	mul	a7,a4,a6
   2162c:	011686b3          	add	a3,a3,a7
   21630:	02c708b3          	mul	a7,a4,a2
   21634:	02c73733          	mulhu	a4,a4,a2
   21638:	00e68733          	add	a4,a3,a4
   2163c:	01f71693          	sll	a3,a4,0x1f
   21640:	0018d893          	srl	a7,a7,0x1
   21644:	0116e6b3          	or	a3,a3,a7
   21648:	00175893          	srl	a7,a4,0x1
   2164c:	00058e93          	mv	t4,a1
   21650:	00158593          	add	a1,a1,1
   21654:	00b10733          	add	a4,sp,a1
   21658:	fef70fa3          	sb	a5,-1(a4)
   2165c:	f6031ce3          	bnez	t1,215d4 <_ZN9SerialOut7vprintfEPKcPv+0x2d8>
   21660:	00031663          	bnez	t1,2166c <_ZN9SerialOut7vprintfEPKcPv+0x370>
   21664:	00900793          	li	a5,9
   21668:	f7c7e6e3          	bltu	a5,t3,215d4 <_ZN9SerialOut7vprintfEPKcPv+0x2d8>
   2166c:	0015d813          	srl	a6,a1,0x1
   21670:	00100793          	li	a5,1
   21674:	02b7f863          	bgeu	a5,a1,216a4 <_ZN9SerialOut7vprintfEPKcPv+0x3a8>
   21678:	01d107b3          	add	a5,sp,t4
   2167c:	00010713          	mv	a4,sp
   21680:	00078513          	mv	a0,a5
   21684:	0007c683          	lbu	a3,0(a5)
   21688:	00074603          	lbu	a2,0(a4)
   2168c:	00c78023          	sb	a2,0(a5)
   21690:	00d70023          	sb	a3,0(a4)
   21694:	fff78793          	add	a5,a5,-1
   21698:	00170713          	add	a4,a4,1
   2169c:	40f506b3          	sub	a3,a0,a5
   216a0:	ff06e2e3          	bltu	a3,a6,21684 <_ZN9SerialOut7vprintfEPKcPv+0x388>
   216a4:	00010513          	mv	a0,sp
   216a8:	bddff0ef          	jal	21284 <_ZN9SerialOut5writeEPKcm>
   216ac:	00000513          	li	a0,0
   216b0:	bb1ff0ef          	jal	21260 <_ZN9SerialOut5writeEc>
   216b4:	000a8b13          	mv	s6,s5
   216b8:	00048a93          	mv	s5,s1
   216bc:	3f80006f          	j	21ab4 <_ZN9SerialOut7vprintfEPKcPv+0x7b8>
   216c0:	002a8a93          	add	s5,s5,2
   216c4:	015407b3          	add	a5,s0,s5
   216c8:	0007c783          	lbu	a5,0(a5)
   216cc:	06400713          	li	a4,100
   216d0:	10e78a63          	beq	a5,a4,217e4 <_ZN9SerialOut7vprintfEPKcPv+0x4e8>
   216d4:	06800713          	li	a4,104
   216d8:	06e78063          	beq	a5,a4,21738 <_ZN9SerialOut7vprintfEPKcPv+0x43c>
   216dc:	06200713          	li	a4,98
   216e0:	1ae79e63          	bne	a5,a4,2189c <_ZN9SerialOut7vprintfEPKcPv+0x5a0>
   216e4:	004b0493          	add	s1,s6,4
   216e8:	000b4783          	lbu	a5,0(s6)
   216ec:	0047d713          	srl	a4,a5,0x4
   216f0:	00f7f793          	and	a5,a5,15
   216f4:	00900613          	li	a2,9
   216f8:	03078693          	add	a3,a5,48
   216fc:	00f67463          	bgeu	a2,a5,21704 <_ZN9SerialOut7vprintfEPKcPv+0x408>
   21700:	03778693          	add	a3,a5,55
   21704:	00900613          	li	a2,9
   21708:	03770793          	add	a5,a4,55
   2170c:	00e66463          	bltu	a2,a4,21714 <_ZN9SerialOut7vprintfEPKcPv+0x418>
   21710:	03070793          	add	a5,a4,48
   21714:	00d100a3          	sb	a3,1(sp)
   21718:	00f10023          	sb	a5,0(sp)
   2171c:	00200593          	li	a1,2
   21720:	00010513          	mv	a0,sp
   21724:	b61ff0ef          	jal	21284 <_ZN9SerialOut5writeEPKcm>
   21728:	00000513          	li	a0,0
   2172c:	b35ff0ef          	jal	21260 <_ZN9SerialOut5writeEc>
   21730:	00048b13          	mv	s6,s1
   21734:	3800006f          	j	21ab4 <_ZN9SerialOut7vprintfEPKcPv+0x7b8>
   21738:	004b0493          	add	s1,s6,4
   2173c:	000b2703          	lw	a4,0(s6)
   21740:	01071793          	sll	a5,a4,0x10
   21744:	0107d793          	srl	a5,a5,0x10
   21748:	0047d693          	srl	a3,a5,0x4
   2174c:	00f6f693          	and	a3,a3,15
   21750:	00f77713          	and	a4,a4,15
   21754:	00900593          	li	a1,9
   21758:	03070613          	add	a2,a4,48
   2175c:	00e5f463          	bgeu	a1,a4,21764 <_ZN9SerialOut7vprintfEPKcPv+0x468>
   21760:	03770613          	add	a2,a4,55
   21764:	00c10023          	sb	a2,0(sp)
   21768:	00900613          	li	a2,9
   2176c:	03768713          	add	a4,a3,55
   21770:	00d66463          	bltu	a2,a3,21778 <_ZN9SerialOut7vprintfEPKcPv+0x47c>
   21774:	03068713          	add	a4,a3,48
   21778:	00e100a3          	sb	a4,1(sp)
   2177c:	00c7d713          	srl	a4,a5,0xc
   21780:	0087d793          	srl	a5,a5,0x8
   21784:	00f7f793          	and	a5,a5,15
   21788:	00900613          	li	a2,9
   2178c:	03078693          	add	a3,a5,48
   21790:	00f67463          	bgeu	a2,a5,21798 <_ZN9SerialOut7vprintfEPKcPv+0x49c>
   21794:	03778693          	add	a3,a5,55
   21798:	00d10123          	sb	a3,2(sp)
   2179c:	00900693          	li	a3,9
   217a0:	03770793          	add	a5,a4,55
   217a4:	00e6e463          	bltu	a3,a4,217ac <_ZN9SerialOut7vprintfEPKcPv+0x4b0>
   217a8:	03070793          	add	a5,a4,48
   217ac:	00014703          	lbu	a4,0(sp)
   217b0:	00e101a3          	sb	a4,3(sp)
   217b4:	00f10023          	sb	a5,0(sp)
   217b8:	00214783          	lbu	a5,2(sp)
   217bc:	00114703          	lbu	a4,1(sp)
   217c0:	00e10123          	sb	a4,2(sp)
   217c4:	00f100a3          	sb	a5,1(sp)
   217c8:	00400593          	li	a1,4
   217cc:	00010513          	mv	a0,sp
   217d0:	ab5ff0ef          	jal	21284 <_ZN9SerialOut5writeEPKcm>
   217d4:	00000513          	li	a0,0
   217d8:	a89ff0ef          	jal	21260 <_ZN9SerialOut5writeEc>
   217dc:	00048b13          	mv	s6,s1
   217e0:	2d40006f          	j	21ab4 <_ZN9SerialOut7vprintfEPKcPv+0x7b8>
   217e4:	007b0793          	add	a5,s6,7
   217e8:	ff87f793          	and	a5,a5,-8
   217ec:	00878b13          	add	s6,a5,8
   217f0:	0007a703          	lw	a4,0(a5)
   217f4:	0047a503          	lw	a0,4(a5)
   217f8:	00010593          	mv	a1,sp
   217fc:	01010893          	add	a7,sp,16
   21800:	00058693          	mv	a3,a1
   21804:	00900813          	li	a6,9
   21808:	0300006f          	j	21838 <_ZN9SerialOut7vprintfEPKcPv+0x53c>
   2180c:	03060613          	add	a2,a2,48
   21810:	00c68023          	sb	a2,0(a3)
   21814:	03c0006f          	j	21850 <_ZN9SerialOut7vprintfEPKcPv+0x554>
   21818:	03778793          	add	a5,a5,55
   2181c:	00f680a3          	sb	a5,1(a3)
   21820:	01851793          	sll	a5,a0,0x18
   21824:	00875713          	srl	a4,a4,0x8
   21828:	00e7e733          	or	a4,a5,a4
   2182c:	00855513          	srl	a0,a0,0x8
   21830:	00268693          	add	a3,a3,2
   21834:	03168663          	beq	a3,a7,21860 <_ZN9SerialOut7vprintfEPKcPv+0x564>
   21838:	00475793          	srl	a5,a4,0x4
   2183c:	00f7f793          	and	a5,a5,15
   21840:	00f77613          	and	a2,a4,15
   21844:	fcc874e3          	bgeu	a6,a2,2180c <_ZN9SerialOut7vprintfEPKcPv+0x510>
   21848:	03760613          	add	a2,a2,55
   2184c:	00c68023          	sb	a2,0(a3)
   21850:	fcf864e3          	bltu	a6,a5,21818 <_ZN9SerialOut7vprintfEPKcPv+0x51c>
   21854:	03078793          	add	a5,a5,48
   21858:	00f680a3          	sb	a5,1(a3)
   2185c:	fc5ff06f          	j	21820 <_ZN9SerialOut7vprintfEPKcPv+0x524>
   21860:	00858613          	add	a2,a1,8
   21864:	00058793          	mv	a5,a1
   21868:	00f5c703          	lbu	a4,15(a1)
   2186c:	0007c683          	lbu	a3,0(a5)
   21870:	00d587a3          	sb	a3,15(a1)
   21874:	00e78023          	sb	a4,0(a5)
   21878:	fff58593          	add	a1,a1,-1
   2187c:	00178793          	add	a5,a5,1
   21880:	fec794e3          	bne	a5,a2,21868 <_ZN9SerialOut7vprintfEPKcPv+0x56c>
   21884:	01000593          	li	a1,16
   21888:	00010513          	mv	a0,sp
   2188c:	9f9ff0ef          	jal	21284 <_ZN9SerialOut5writeEPKcm>
   21890:	00000513          	li	a0,0
   21894:	9cdff0ef          	jal	21260 <_ZN9SerialOut5writeEc>
   21898:	21c0006f          	j	21ab4 <_ZN9SerialOut7vprintfEPKcPv+0x7b8>
   2189c:	004b0a93          	add	s5,s6,4
   218a0:	000b2583          	lw	a1,0(s6)
   218a4:	00010613          	mv	a2,sp
   218a8:	00810813          	add	a6,sp,8
   218ac:	00060713          	mv	a4,a2
   218b0:	00900513          	li	a0,9
   218b4:	0240006f          	j	218d8 <_ZN9SerialOut7vprintfEPKcPv+0x5dc>
   218b8:	03068693          	add	a3,a3,48
   218bc:	00d70023          	sb	a3,0(a4)
   218c0:	0300006f          	j	218f0 <_ZN9SerialOut7vprintfEPKcPv+0x5f4>
   218c4:	03778793          	add	a5,a5,55
   218c8:	00f700a3          	sb	a5,1(a4)
   218cc:	0085d593          	srl	a1,a1,0x8
   218d0:	00270713          	add	a4,a4,2
   218d4:	03070663          	beq	a4,a6,21900 <_ZN9SerialOut7vprintfEPKcPv+0x604>
   218d8:	0045d793          	srl	a5,a1,0x4
   218dc:	00f7f793          	and	a5,a5,15
   218e0:	00f5f693          	and	a3,a1,15
   218e4:	fcd57ae3          	bgeu	a0,a3,218b8 <_ZN9SerialOut7vprintfEPKcPv+0x5bc>
   218e8:	03768693          	add	a3,a3,55
   218ec:	00d70023          	sb	a3,0(a4)
   218f0:	fcf56ae3          	bltu	a0,a5,218c4 <_ZN9SerialOut7vprintfEPKcPv+0x5c8>
   218f4:	03078793          	add	a5,a5,48
   218f8:	00f700a3          	sb	a5,1(a4)
   218fc:	fd1ff06f          	j	218cc <_ZN9SerialOut7vprintfEPKcPv+0x5d0>
   21900:	00460593          	add	a1,a2,4
   21904:	00060793          	mv	a5,a2
   21908:	00764703          	lbu	a4,7(a2)
   2190c:	0007c683          	lbu	a3,0(a5)
   21910:	00d603a3          	sb	a3,7(a2)
   21914:	00e78023          	sb	a4,0(a5)
   21918:	fff60613          	add	a2,a2,-1
   2191c:	00178793          	add	a5,a5,1
   21920:	fef594e3          	bne	a1,a5,21908 <_ZN9SerialOut7vprintfEPKcPv+0x60c>
   21924:	00800593          	li	a1,8
   21928:	00010513          	mv	a0,sp
   2192c:	959ff0ef          	jal	21284 <_ZN9SerialOut5writeEPKcm>
   21930:	00000513          	li	a0,0
   21934:	92dff0ef          	jal	21260 <_ZN9SerialOut5writeEc>
   21938:	000a8b13          	mv	s6,s5
   2193c:	00048a93          	mv	s5,s1
   21940:	1740006f          	j	21ab4 <_ZN9SerialOut7vprintfEPKcPv+0x7b8>
   21944:	002a8a93          	add	s5,s5,2
   21948:	015407b3          	add	a5,s0,s5
   2194c:	0007c783          	lbu	a5,0(a5)
   21950:	06400713          	li	a4,100
   21954:	0ae78063          	beq	a5,a4,219f4 <_ZN9SerialOut7vprintfEPKcPv+0x6f8>
   21958:	06800713          	li	a4,104
   2195c:	04e78863          	beq	a5,a4,219ac <_ZN9SerialOut7vprintfEPKcPv+0x6b0>
   21960:	06200713          	li	a4,98
   21964:	0ee79663          	bne	a5,a4,21a50 <_ZN9SerialOut7vprintfEPKcPv+0x754>
   21968:	004b0493          	add	s1,s6,4
   2196c:	000b4683          	lbu	a3,0(s6)
   21970:	00010793          	mv	a5,sp
   21974:	ff810613          	add	a2,sp,-8
   21978:	0016f713          	and	a4,a3,1
   2197c:	03070713          	add	a4,a4,48
   21980:	00e783a3          	sb	a4,7(a5)
   21984:	0016d693          	srl	a3,a3,0x1
   21988:	fff78793          	add	a5,a5,-1
   2198c:	fec796e3          	bne	a5,a2,21978 <_ZN9SerialOut7vprintfEPKcPv+0x67c>
   21990:	00800593          	li	a1,8
   21994:	00010513          	mv	a0,sp
   21998:	8edff0ef          	jal	21284 <_ZN9SerialOut5writeEPKcm>
   2199c:	00000513          	li	a0,0
   219a0:	8c1ff0ef          	jal	21260 <_ZN9SerialOut5writeEc>
   219a4:	00048b13          	mv	s6,s1
   219a8:	10c0006f          	j	21ab4 <_ZN9SerialOut7vprintfEPKcPv+0x7b8>
   219ac:	004b0493          	add	s1,s6,4
   219b0:	000b5683          	lhu	a3,0(s6)
   219b4:	00f10793          	add	a5,sp,15
   219b8:	00010613          	mv	a2,sp
   219bc:	0016f713          	and	a4,a3,1
   219c0:	03070713          	add	a4,a4,48
   219c4:	00e78023          	sb	a4,0(a5)
   219c8:	0016d693          	srl	a3,a3,0x1
   219cc:	00078713          	mv	a4,a5
   219d0:	fff78793          	add	a5,a5,-1
   219d4:	fec714e3          	bne	a4,a2,219bc <_ZN9SerialOut7vprintfEPKcPv+0x6c0>
   219d8:	01000593          	li	a1,16
   219dc:	00010513          	mv	a0,sp
   219e0:	8a5ff0ef          	jal	21284 <_ZN9SerialOut5writeEPKcm>
   219e4:	00000513          	li	a0,0
   219e8:	879ff0ef          	jal	21260 <_ZN9SerialOut5writeEc>
   219ec:	00048b13          	mv	s6,s1
   219f0:	0c40006f          	j	21ab4 <_ZN9SerialOut7vprintfEPKcPv+0x7b8>
   219f4:	007b0713          	add	a4,s6,7
   219f8:	ff877713          	and	a4,a4,-8
   219fc:	00870b13          	add	s6,a4,8
   21a00:	00072783          	lw	a5,0(a4)
   21a04:	00472603          	lw	a2,4(a4)
   21a08:	03f10713          	add	a4,sp,63
   21a0c:	00010593          	mv	a1,sp
   21a10:	0017f693          	and	a3,a5,1
   21a14:	03068693          	add	a3,a3,48
   21a18:	00d70023          	sb	a3,0(a4)
   21a1c:	01f61693          	sll	a3,a2,0x1f
   21a20:	0017d793          	srl	a5,a5,0x1
   21a24:	00f6e7b3          	or	a5,a3,a5
   21a28:	00165613          	srl	a2,a2,0x1
   21a2c:	00070693          	mv	a3,a4
   21a30:	fff70713          	add	a4,a4,-1
   21a34:	fcd59ee3          	bne	a1,a3,21a10 <_ZN9SerialOut7vprintfEPKcPv+0x714>
   21a38:	04000593          	li	a1,64
   21a3c:	00010513          	mv	a0,sp
   21a40:	845ff0ef          	jal	21284 <_ZN9SerialOut5writeEPKcm>
   21a44:	00000513          	li	a0,0
   21a48:	819ff0ef          	jal	21260 <_ZN9SerialOut5writeEc>
   21a4c:	0680006f          	j	21ab4 <_ZN9SerialOut7vprintfEPKcPv+0x7b8>
   21a50:	004b0a93          	add	s5,s6,4
   21a54:	000b2683          	lw	a3,0(s6)
   21a58:	01f10793          	add	a5,sp,31
   21a5c:	00010613          	mv	a2,sp
   21a60:	0016f713          	and	a4,a3,1
   21a64:	03070713          	add	a4,a4,48
   21a68:	00e78023          	sb	a4,0(a5)
   21a6c:	0016d693          	srl	a3,a3,0x1
   21a70:	00078713          	mv	a4,a5
   21a74:	fff78793          	add	a5,a5,-1
   21a78:	fee614e3          	bne	a2,a4,21a60 <_ZN9SerialOut7vprintfEPKcPv+0x764>
   21a7c:	02000593          	li	a1,32
   21a80:	00010513          	mv	a0,sp
   21a84:	801ff0ef          	jal	21284 <_ZN9SerialOut5writeEPKcm>
   21a88:	00000513          	li	a0,0
   21a8c:	fd4ff0ef          	jal	21260 <_ZN9SerialOut5writeEc>
   21a90:	000a8b13          	mv	s6,s5
   21a94:	00048a93          	mv	s5,s1
   21a98:	01c0006f          	j	21ab4 <_ZN9SerialOut7vprintfEPKcPv+0x7b8>
   21a9c:	00023537          	lui	a0,0x23
   21aa0:	6ec50513          	add	a0,a0,1772 # 236ec <__clzsi2+0x4c4>
   21aa4:	81dff0ef          	jal	212c0 <_ZN9SerialOut5writeEPKc>
   21aa8:	00048a93          	mv	s5,s1
   21aac:	0080006f          	j	21ab4 <_ZN9SerialOut7vprintfEPKcPv+0x7b8>
   21ab0:	fb0ff0ef          	jal	21260 <_ZN9SerialOut5writeEc>
   21ab4:	001a8a93          	add	s5,s5,1
   21ab8:	015407b3          	add	a5,s0,s5
   21abc:	0007c503          	lbu	a0,0(a5)
   21ac0:	02050663          	beqz	a0,21aec <_ZN9SerialOut7vprintfEPKcPv+0x7f0>
   21ac4:	ff2516e3          	bne	a0,s2,21ab0 <_ZN9SerialOut7vprintfEPKcPv+0x7b4>
   21ac8:	001a8493          	add	s1,s5,1
   21acc:	009407b3          	add	a5,s0,s1
   21ad0:	0007c783          	lbu	a5,0(a5)
   21ad4:	f9e78793          	add	a5,a5,-98
   21ad8:	0ff7f713          	zext.b	a4,a5
   21adc:	fcea60e3          	bltu	s4,a4,21a9c <_ZN9SerialOut7vprintfEPKcPv+0x7a0>
   21ae0:	213747b3          	sh2add	a5,a4,s3
   21ae4:	0007a783          	lw	a5,0(a5)
   21ae8:	00078067          	jr	a5
   21aec:	06412483          	lw	s1,100(sp)
   21af0:	06012903          	lw	s2,96(sp)
   21af4:	05c12983          	lw	s3,92(sp)
   21af8:	05812a03          	lw	s4,88(sp)
   21afc:	05412a83          	lw	s5,84(sp)
   21b00:	05012b03          	lw	s6,80(sp)
   21b04:	04c12b83          	lw	s7,76(sp)
   21b08:	06c12083          	lw	ra,108(sp)
   21b0c:	06812403          	lw	s0,104(sp)
   21b10:	07010113          	add	sp,sp,112
   21b14:	00008067          	ret

00021b18 <_ZN9SerialOut7printlnEPKcz>:
   21b18:	fc010113          	add	sp,sp,-64
   21b1c:	00112e23          	sw	ra,28(sp)
   21b20:	02b12223          	sw	a1,36(sp)
   21b24:	02c12423          	sw	a2,40(sp)
   21b28:	02d12623          	sw	a3,44(sp)
   21b2c:	02e12823          	sw	a4,48(sp)
   21b30:	02f12a23          	sw	a5,52(sp)
   21b34:	03012c23          	sw	a6,56(sp)
   21b38:	03112e23          	sw	a7,60(sp)
   21b3c:	02410593          	add	a1,sp,36
   21b40:	00b12623          	sw	a1,12(sp)
   21b44:	fb8ff0ef          	jal	212fc <_ZN9SerialOut7vprintfEPKcPv>
   21b48:	00a00513          	li	a0,10
   21b4c:	f14ff0ef          	jal	21260 <_ZN9SerialOut5writeEc>
   21b50:	00000513          	li	a0,0
   21b54:	f0cff0ef          	jal	21260 <_ZN9SerialOut5writeEc>
   21b58:	01c12083          	lw	ra,28(sp)
   21b5c:	04010113          	add	sp,sp,64
   21b60:	00008067          	ret

00021b64 <_ZN9SerialOut6printfEPKcz>:
   21b64:	fc010113          	add	sp,sp,-64
   21b68:	00112e23          	sw	ra,28(sp)
   21b6c:	02b12223          	sw	a1,36(sp)
   21b70:	02c12423          	sw	a2,40(sp)
   21b74:	02d12623          	sw	a3,44(sp)
   21b78:	02e12823          	sw	a4,48(sp)
   21b7c:	02f12a23          	sw	a5,52(sp)
   21b80:	03012c23          	sw	a6,56(sp)
   21b84:	03112e23          	sw	a7,60(sp)
   21b88:	02410593          	add	a1,sp,36
   21b8c:	00b12623          	sw	a1,12(sp)
   21b90:	f6cff0ef          	jal	212fc <_ZN9SerialOut7vprintfEPKcPv>
   21b94:	00000513          	li	a0,0
   21b98:	ec8ff0ef          	jal	21260 <_ZN9SerialOut5writeEc>
   21b9c:	01c12083          	lw	ra,28(sp)
   21ba0:	04010113          	add	sp,sp,64
   21ba4:	00008067          	ret

00021ba8 <_ZN4GPIOC1Em>:
   21ba8:	000017b7          	lui	a5,0x1
   21bac:	90078793          	add	a5,a5,-1792 # 900 <boot_program+0x900>
   21bb0:	00f585b3          	add	a1,a1,a5
   21bb4:	00b52023          	sw	a1,0(a0)
   21bb8:	00b52223          	sw	a1,4(a0)
   21bbc:	00458793          	add	a5,a1,4
   21bc0:	00f52423          	sw	a5,8(a0)
   21bc4:	00858793          	add	a5,a1,8
   21bc8:	00f52623          	sw	a5,12(a0)
   21bcc:	00c58793          	add	a5,a1,12
   21bd0:	00f52823          	sw	a5,16(a0)
   21bd4:	00058423          	sb	zero,8(a1)
   21bd8:	00058223          	sb	zero,4(a1)
   21bdc:	00058023          	sb	zero,0(a1)
   21be0:	00100793          	li	a5,1
   21be4:	00f58623          	sb	a5,12(a1)
   21be8:	00008067          	ret

00021bec <_ZN4GPIOD1Ev>:
   21bec:	00c52783          	lw	a5,12(a0)
   21bf0:	00078023          	sb	zero,0(a5)
   21bf4:	00852783          	lw	a5,8(a0)
   21bf8:	00078023          	sb	zero,0(a5)
   21bfc:	00452783          	lw	a5,4(a0)
   21c00:	00078023          	sb	zero,0(a5)
   21c04:	01052783          	lw	a5,16(a0)
   21c08:	00078023          	sb	zero,0(a5)
   21c0c:	00008067          	ret

00021c10 <_ZN4GPIO4initEhhhh>:
   21c10:	00c52803          	lw	a6,12(a0)
   21c14:	00080023          	sb	zero,0(a6)
   21c18:	00852803          	lw	a6,8(a0)
   21c1c:	00c80023          	sb	a2,0(a6)
   21c20:	00452603          	lw	a2,4(a0)
   21c24:	00b60023          	sb	a1,0(a2)
   21c28:	00c52603          	lw	a2,12(a0)
   21c2c:	00d60023          	sb	a3,0(a2)
   21c30:	01052783          	lw	a5,16(a0)
   21c34:	00e78023          	sb	a4,0(a5)
   21c38:	00008067          	ret

00021c3c <_ZN4GPIO11setPinValueEmb>:
   21c3c:	00452703          	lw	a4,4(a0)
   21c40:	00074783          	lbu	a5,0(a4)
   21c44:	48b797b3          	bclr	a5,a5,a1
   21c48:	00b61633          	sll	a2,a2,a1
   21c4c:	00c7e7b3          	or	a5,a5,a2
   21c50:	0ff7f793          	zext.b	a5,a5
   21c54:	00f70023          	sb	a5,0(a4)
   21c58:	00008067          	ret

00021c5c <_ZN4GPIO11getPinValueEm>:
   21c5c:	00452783          	lw	a5,4(a0)
   21c60:	0007c503          	lbu	a0,0(a5)
   21c64:	28b017b3          	bset	a5,zero,a1
   21c68:	00f57533          	and	a0,a0,a5
   21c6c:	40b55533          	sra	a0,a0,a1
   21c70:	00a03533          	snez	a0,a0
   21c74:	00008067          	ret

00021c78 <_ZN4GPIO15setPinDirectionEmNS_14pinDirection_eE>:
   21c78:	00852703          	lw	a4,8(a0)
   21c7c:	00074783          	lbu	a5,0(a4)
   21c80:	48b797b3          	bclr	a5,a5,a1
   21c84:	00b61633          	sll	a2,a2,a1
   21c88:	00c7e7b3          	or	a5,a5,a2
   21c8c:	0ff7f793          	zext.b	a5,a5
   21c90:	00f70023          	sb	a5,0(a4)
   21c94:	00008067          	ret

00021c98 <_ZN4GPIO15getPinDirectionEm>:
   21c98:	00852783          	lw	a5,8(a0)
   21c9c:	0007c503          	lbu	a0,0(a5)
   21ca0:	28b017b3          	bset	a5,zero,a1
   21ca4:	0ff7f793          	zext.b	a5,a5
   21ca8:	fff7c793          	not	a5,a5
   21cac:	00f57533          	and	a0,a0,a5
   21cb0:	40b55533          	sra	a0,a0,a1
   21cb4:	00008067          	ret

00021cb8 <_ZN4GPIO18setInterruptEnableEmb>:
   21cb8:	00c52703          	lw	a4,12(a0)
   21cbc:	00074783          	lbu	a5,0(a4)
   21cc0:	48b797b3          	bclr	a5,a5,a1
   21cc4:	00b61633          	sll	a2,a2,a1
   21cc8:	00c7e7b3          	or	a5,a5,a2
   21ccc:	0ff7f793          	zext.b	a5,a5
   21cd0:	00f70023          	sb	a5,0(a4)
   21cd4:	00008067          	ret

00021cd8 <_ZN4GPIO18getInterruptEnableEm>:
   21cd8:	00c52783          	lw	a5,12(a0)
   21cdc:	0007c503          	lbu	a0,0(a5)
   21ce0:	28b017b3          	bset	a5,zero,a1
   21ce4:	0ff7f793          	zext.b	a5,a5
   21ce8:	fff7c793          	not	a5,a5
   21cec:	00f57533          	and	a0,a0,a5
   21cf0:	40b55533          	sra	a0,a0,a1
   21cf4:	00a03533          	snez	a0,a0
   21cf8:	00008067          	ret

00021cfc <_ZN4GPIO15setTriggerLevelEmNS_14triggerLevel_eE>:
   21cfc:	01052703          	lw	a4,16(a0)
   21d00:	00074783          	lbu	a5,0(a4)
   21d04:	48b797b3          	bclr	a5,a5,a1
   21d08:	00b61633          	sll	a2,a2,a1
   21d0c:	00c7e7b3          	or	a5,a5,a2
   21d10:	0ff7f793          	zext.b	a5,a5
   21d14:	00f70023          	sb	a5,0(a4)
   21d18:	00008067          	ret

00021d1c <_ZN4GPIO15getTriggerLevelEm>:
   21d1c:	01052783          	lw	a5,16(a0)
   21d20:	0007c503          	lbu	a0,0(a5)
   21d24:	28b017b3          	bset	a5,zero,a1
   21d28:	0ff7f793          	zext.b	a5,a5
   21d2c:	fff7c793          	not	a5,a5
   21d30:	00f57533          	and	a0,a0,a5
   21d34:	40b55533          	sra	a0,a0,a1
   21d38:	00008067          	ret

00021d3c <_ZN5TimerC1Em>:
   21d3c:	11058593          	add	a1,a1,272
   21d40:	00359593          	sll	a1,a1,0x3
   21d44:	00b52023          	sw	a1,0(a0)
   21d48:	00858793          	add	a5,a1,8
   21d4c:	00f52223          	sw	a5,4(a0)
   21d50:	00b52423          	sw	a1,8(a0)
   21d54:	01058793          	add	a5,a1,16
   21d58:	00f52623          	sw	a5,12(a0)
   21d5c:	00c52703          	lw	a4,12(a0)
   21d60:	00072783          	lw	a5,0(a4)
   21d64:	ffe7f793          	and	a5,a5,-2
   21d68:	00f72023          	sw	a5,0(a4)
   21d6c:	00c52703          	lw	a4,12(a0)
   21d70:	00072783          	lw	a5,0(a4)
   21d74:	ffb7f793          	and	a5,a5,-5
   21d78:	00f72023          	sw	a5,0(a4)
   21d7c:	00000793          	li	a5,0
   21d80:	00000813          	li	a6,0
   21d84:	00f5a423          	sw	a5,8(a1)
   21d88:	0105a623          	sw	a6,12(a1)
   21d8c:	00852783          	lw	a5,8(a0)
   21d90:	fff00613          	li	a2,-1
   21d94:	fff00693          	li	a3,-1
   21d98:	00c7a023          	sw	a2,0(a5)
   21d9c:	00d7a223          	sw	a3,4(a5)
   21da0:	00c52703          	lw	a4,12(a0)
   21da4:	00072783          	lw	a5,0(a4)
   21da8:	ffd7f793          	and	a5,a5,-3
   21dac:	00f72023          	sw	a5,0(a4)
   21db0:	00008067          	ret

00021db4 <_ZN5TimerD1Ev>:
   21db4:	00c52703          	lw	a4,12(a0)
   21db8:	00072783          	lw	a5,0(a4)
   21dbc:	ffe7f793          	and	a5,a5,-2
   21dc0:	00f72023          	sw	a5,0(a4)
   21dc4:	00c52703          	lw	a4,12(a0)
   21dc8:	00072783          	lw	a5,0(a4)
   21dcc:	ffb7f793          	and	a5,a5,-5
   21dd0:	00f72023          	sw	a5,0(a4)
   21dd4:	00452783          	lw	a5,4(a0)
   21dd8:	00000693          	li	a3,0
   21ddc:	00000713          	li	a4,0
   21de0:	00d7a023          	sw	a3,0(a5)
   21de4:	00e7a223          	sw	a4,4(a5)
   21de8:	00852783          	lw	a5,8(a0)
   21dec:	fff00613          	li	a2,-1
   21df0:	fff00693          	li	a3,-1
   21df4:	00c7a023          	sw	a2,0(a5)
   21df8:	00d7a223          	sw	a3,4(a5)
   21dfc:	00c52703          	lw	a4,12(a0)
   21e00:	00072783          	lw	a5,0(a4)
   21e04:	ffd7f793          	and	a5,a5,-3
   21e08:	00f72023          	sw	a5,0(a4)
   21e0c:	00008067          	ret

00021e10 <_ZN5Timer4initEyNS_11timerMode_eE>:
   21e10:	00060893          	mv	a7,a2
   21e14:	00c52603          	lw	a2,12(a0)
   21e18:	00062703          	lw	a4,0(a2)
   21e1c:	ffb77713          	and	a4,a4,-5
   21e20:	00e62023          	sw	a4,0(a2)
   21e24:	00852703          	lw	a4,8(a0)
   21e28:	00b72023          	sw	a1,0(a4)
   21e2c:	01172223          	sw	a7,4(a4)
   21e30:	00c52603          	lw	a2,12(a0)
   21e34:	0016f693          	and	a3,a3,1
   21e38:	00169693          	sll	a3,a3,0x1
   21e3c:	00062703          	lw	a4,0(a2)
   21e40:	ffd77713          	and	a4,a4,-3
   21e44:	00d76733          	or	a4,a4,a3
   21e48:	00e62023          	sw	a4,0(a2)
   21e4c:	00452783          	lw	a5,4(a0)
   21e50:	00000693          	li	a3,0
   21e54:	00000713          	li	a4,0
   21e58:	00d7a023          	sw	a3,0(a5)
   21e5c:	00e7a223          	sw	a4,4(a5)
   21e60:	00008067          	ret

00021e64 <_ZN5Timer12setInterruptEb>:
   21e64:	00c52703          	lw	a4,12(a0)
   21e68:	0015f593          	and	a1,a1,1
   21e6c:	00259593          	sll	a1,a1,0x2
   21e70:	00072783          	lw	a5,0(a4)
   21e74:	ffb7f793          	and	a5,a5,-5
   21e78:	00b7e7b3          	or	a5,a5,a1
   21e7c:	00f72023          	sw	a5,0(a4)
   21e80:	00008067          	ret

00021e84 <_ZN5Timer12setTimerModeENS_11timerMode_eE>:
   21e84:	00c52703          	lw	a4,12(a0)
   21e88:	0015f593          	and	a1,a1,1
   21e8c:	00159593          	sll	a1,a1,0x1
   21e90:	00072783          	lw	a5,0(a4)
   21e94:	ffd7f793          	and	a5,a5,-3
   21e98:	00b7e7b3          	or	a5,a5,a1
   21e9c:	00f72023          	sw	a5,0(a4)
   21ea0:	00008067          	ret

00021ea4 <_ZNK5Timer16getConfigurationEv>:
   21ea4:	00c52503          	lw	a0,12(a0)
   21ea8:	00008067          	ret

00021eac <_ZN5Timer7setTimeEy>:
   21eac:	00452683          	lw	a3,4(a0)
   21eb0:	00b6a023          	sw	a1,0(a3)
   21eb4:	00c6a223          	sw	a2,4(a3)
   21eb8:	00008067          	ret

00021ebc <_ZNK5Timer7getTimeEv>:
   21ebc:	00452783          	lw	a5,4(a0)
   21ec0:	0007a503          	lw	a0,0(a5)
   21ec4:	0047a583          	lw	a1,4(a5)
   21ec8:	00008067          	ret

00021ecc <_ZN5Timer12setThresholdEy>:
   21ecc:	00852683          	lw	a3,8(a0)
   21ed0:	00b6a023          	sw	a1,0(a3)
   21ed4:	00c6a223          	sw	a2,4(a3)
   21ed8:	00008067          	ret

00021edc <_ZNK5Timer12getThresholdEv>:
   21edc:	00852783          	lw	a5,8(a0)
   21ee0:	0007a503          	lw	a0,0(a5)
   21ee4:	0047a583          	lw	a1,4(a5)
   21ee8:	00008067          	ret

00021eec <_ZN5Timer5startEv>:
   21eec:	00c52683          	lw	a3,12(a0)
   21ef0:	0006a703          	lw	a4,0(a3)
   21ef4:	00176713          	or	a4,a4,1
   21ef8:	00e6a023          	sw	a4,0(a3)
   21efc:	00c52703          	lw	a4,12(a0)
   21f00:	00072783          	lw	a5,0(a4)
   21f04:	ff77f793          	and	a5,a5,-9
   21f08:	00f72023          	sw	a5,0(a4)
   21f0c:	00008067          	ret

00021f10 <_ZN5Timer5delayEy>:
   21f10:	ff010113          	add	sp,sp,-16
   21f14:	00112623          	sw	ra,12(sp)
   21f18:	00812423          	sw	s0,8(sp)
   21f1c:	00050413          	mv	s0,a0
   21f20:	00c52703          	lw	a4,12(a0)
   21f24:	00072783          	lw	a5,0(a4)
   21f28:	ffe7f793          	and	a5,a5,-2
   21f2c:	00f72023          	sw	a5,0(a4)
   21f30:	00452783          	lw	a5,4(a0)
   21f34:	00000693          	li	a3,0
   21f38:	00000713          	li	a4,0
   21f3c:	00d7a023          	sw	a3,0(a5)
   21f40:	00e7a223          	sw	a4,4(a5)
   21f44:	000186b7          	lui	a3,0x18
   21f48:	6a068693          	add	a3,a3,1696 # 186a0 <boot_program+0x186a0>
   21f4c:	02d60633          	mul	a2,a2,a3
   21f50:	02d5b7b3          	mulhu	a5,a1,a3
   21f54:	02d58733          	mul	a4,a1,a3
   21f58:	00f607b3          	add	a5,a2,a5
   21f5c:	00852683          	lw	a3,8(a0)
   21f60:	00e6a023          	sw	a4,0(a3)
   21f64:	00f6a223          	sw	a5,4(a3)
   21f68:	f85ff0ef          	jal	21eec <_ZN5Timer5startEv>
   21f6c:	00c42783          	lw	a5,12(s0)
   21f70:	0007a783          	lw	a5,0(a5)
   21f74:	4837d793          	bext	a5,a5,0x3
   21f78:	fe078ae3          	beqz	a5,21f6c <_ZN5Timer5delayEy+0x5c>
   21f7c:	00040513          	mv	a0,s0
   21f80:	00c12083          	lw	ra,12(sp)
   21f84:	00812403          	lw	s0,8(sp)
   21f88:	01010113          	add	sp,sp,16
   21f8c:	00008067          	ret

00021f90 <_ZN5Timer4stopEv>:
   21f90:	00c52703          	lw	a4,12(a0)
   21f94:	00072783          	lw	a5,0(a4)
   21f98:	ffe7f793          	and	a5,a5,-2
   21f9c:	00f72023          	sw	a5,0(a4)
   21fa0:	00008067          	ret

00021fa4 <_ZN5Timer7restartEv>:
   21fa4:	00452703          	lw	a4,4(a0)
   21fa8:	00000613          	li	a2,0
   21fac:	00000693          	li	a3,0
   21fb0:	00c72023          	sw	a2,0(a4)
   21fb4:	00d72223          	sw	a3,4(a4)
   21fb8:	00c52703          	lw	a4,12(a0)
   21fbc:	00072783          	lw	a5,0(a4)
   21fc0:	ff77f793          	and	a5,a5,-9
   21fc4:	00f72023          	sw	a5,0(a4)
   21fc8:	00008067          	ret

00021fcc <_ZNK5Timer9getMillisEv>:
   21fcc:	ff010113          	add	sp,sp,-16
   21fd0:	00112623          	sw	ra,12(sp)
   21fd4:	00452783          	lw	a5,4(a0)
   21fd8:	0007a503          	lw	a0,0(a5)
   21fdc:	0047a583          	lw	a1,4(a5)
   21fe0:	00018637          	lui	a2,0x18
   21fe4:	6a060613          	add	a2,a2,1696 # 186a0 <boot_program+0x186a0>
   21fe8:	00000693          	li	a3,0
   21fec:	35d000ef          	jal	22b48 <__udivdi3>
   21ff0:	00c12083          	lw	ra,12(sp)
   21ff4:	01010113          	add	sp,sp,16
   21ff8:	00008067          	ret

00021ffc <_ZNK5Timer11timeElapsedENS_12timeFormat_eE>:
   21ffc:	ff010113          	add	sp,sp,-16
   22000:	00112623          	sw	ra,12(sp)
   22004:	00812423          	sw	s0,8(sp)
   22008:	00058413          	mv	s0,a1
   2200c:	00452783          	lw	a5,4(a0)
   22010:	0007a503          	lw	a0,0(a5)
   22014:	0047a583          	lw	a1,4(a5)
   22018:	0d6010ef          	jal	230ee <__floatundisf>
   2201c:	00400793          	li	a5,4
   22020:	0687ee63          	bltu	a5,s0,2209c <_ZNK5Timer11timeElapsedENS_12timeFormat_eE+0xa0>
   22024:	000237b7          	lui	a5,0x23
   22028:	75c78793          	add	a5,a5,1884 # 2375c <__clzsi2+0x534>
   2202c:	20f44433          	sh2add	s0,s0,a5
   22030:	00042783          	lw	a5,0(s0)
   22034:	00078067          	jr	a5
   22038:	000247b7          	lui	a5,0x24
   2203c:	8ac7a583          	lw	a1,-1876(a5) # 238ac <__clz_tab+0x100>
   22040:	667000ef          	jal	22ea6 <__divsf3>
   22044:	00c12083          	lw	ra,12(sp)
   22048:	00812403          	lw	s0,8(sp)
   2204c:	01010113          	add	sp,sp,16
   22050:	00008067          	ret
   22054:	000247b7          	lui	a5,0x24
   22058:	8b07a583          	lw	a1,-1872(a5) # 238b0 <__clz_tab+0x104>
   2205c:	64b000ef          	jal	22ea6 <__divsf3>
   22060:	fe5ff06f          	j	22044 <_ZNK5Timer11timeElapsedENS_12timeFormat_eE+0x48>
   22064:	000247b7          	lui	a5,0x24
   22068:	8b07a583          	lw	a1,-1872(a5) # 238b0 <__clz_tab+0x104>
   2206c:	63b000ef          	jal	22ea6 <__divsf3>
   22070:	000247b7          	lui	a5,0x24
   22074:	8b47a583          	lw	a1,-1868(a5) # 238b4 <__clz_tab+0x108>
   22078:	62f000ef          	jal	22ea6 <__divsf3>
   2207c:	fc9ff06f          	j	22044 <_ZNK5Timer11timeElapsedENS_12timeFormat_eE+0x48>
   22080:	000247b7          	lui	a5,0x24
   22084:	8b07a583          	lw	a1,-1872(a5) # 238b0 <__clz_tab+0x104>
   22088:	61f000ef          	jal	22ea6 <__divsf3>
   2208c:	000247b7          	lui	a5,0x24
   22090:	8b87a583          	lw	a1,-1864(a5) # 238b8 <__clz_tab+0x10c>
   22094:	613000ef          	jal	22ea6 <__divsf3>
   22098:	fadff06f          	j	22044 <_ZNK5Timer11timeElapsedENS_12timeFormat_eE+0x48>
   2209c:	00000513          	li	a0,0
   220a0:	fa5ff06f          	j	22044 <_ZNK5Timer11timeElapsedENS_12timeFormat_eE+0x48>

000220a4 <_ZN8Ethernet15setMacInterruptEhbPNS_10ethError_eE>:
   220a4:	00300793          	li	a5,3
   220a8:	04b7e063          	bltu	a5,a1,220e8 <_ZN8Ethernet15setMacInterruptEhbPNS_10ethError_eE+0x44>
   220ac:	04060463          	beqz	a2,220f4 <_ZN8Ethernet15setMacInterruptEhbPNS_10ethError_eE+0x50>
   220b0:	00452683          	lw	a3,4(a0)
   220b4:	0006a783          	lw	a5,0(a3)
   220b8:	00d7d793          	srl	a5,a5,0xd
   220bc:	00f7f793          	and	a5,a5,15
   220c0:	28b797b3          	bset	a5,a5,a1
   220c4:	00f7f793          	and	a5,a5,15
   220c8:	00d79793          	sll	a5,a5,0xd
   220cc:	0006a703          	lw	a4,0(a3)
   220d0:	fffe2637          	lui	a2,0xfffe2
   220d4:	fff60613          	add	a2,a2,-1 # fffe1fff <_ZN9SerialOut6statusE+0xfffbe0f7>
   220d8:	00c77733          	and	a4,a4,a2
   220dc:	00f767b3          	or	a5,a4,a5
   220e0:	00f6a023          	sw	a5,0(a3)
   220e4:	00008067          	ret
   220e8:	00500793          	li	a5,5
   220ec:	00f6a023          	sw	a5,0(a3)
   220f0:	00008067          	ret
   220f4:	00452683          	lw	a3,4(a0)
   220f8:	0006a783          	lw	a5,0(a3)
   220fc:	00d7d793          	srl	a5,a5,0xd
   22100:	00f7f793          	and	a5,a5,15
   22104:	48b797b3          	bclr	a5,a5,a1
   22108:	00d79793          	sll	a5,a5,0xd
   2210c:	0006a703          	lw	a4,0(a3)
   22110:	fffe2637          	lui	a2,0xfffe2
   22114:	fff60613          	add	a2,a2,-1 # fffe1fff <_ZN9SerialOut6statusE+0xfffbe0f7>
   22118:	00c77733          	and	a4,a4,a2
   2211c:	00f767b3          	or	a5,a4,a5
   22120:	00f6a023          	sw	a5,0(a3)
   22124:	00008067          	ret

00022128 <_ZN8Ethernet15setEthernetModeENS_9ethMode_eE>:
   22128:	00452703          	lw	a4,4(a0)
   2212c:	0015f593          	and	a1,a1,1
   22130:	00c59593          	sll	a1,a1,0xc
   22134:	00072783          	lw	a5,0(a4)
   22138:	48c79793          	bclr	a5,a5,0xc
   2213c:	00b7e7b3          	or	a5,a5,a1
   22140:	00f72023          	sw	a5,0(a4)
   22144:	00008067          	ret

00022148 <_ZN8Ethernet8enableTXEb>:
   22148:	00452703          	lw	a4,4(a0)
   2214c:	0015f593          	and	a1,a1,1
   22150:	00b59593          	sll	a1,a1,0xb
   22154:	00072783          	lw	a5,0(a4)
   22158:	48b79793          	bclr	a5,a5,0xb
   2215c:	00b7e7b3          	or	a5,a5,a1
   22160:	00f72023          	sw	a5,0(a4)
   22164:	00008067          	ret

00022168 <_ZN8Ethernet8enableRXEb>:
   22168:	00452703          	lw	a4,4(a0)
   2216c:	0015f593          	and	a1,a1,1
   22170:	00a59593          	sll	a1,a1,0xa
   22174:	00072783          	lw	a5,0(a4)
   22178:	bff7f793          	and	a5,a5,-1025
   2217c:	00b7e7b3          	or	a5,a5,a1
   22180:	00f72023          	sw	a5,0(a4)
   22184:	00008067          	ret

00022188 <_ZN8Ethernet9isSendingEv>:
   22188:	00452783          	lw	a5,4(a0)
   2218c:	0007a503          	lw	a0,0(a5)
   22190:	48955513          	bext	a0,a0,0x9
   22194:	00154513          	xor	a0,a0,1
   22198:	00008067          	ret

0002219c <_ZN8Ethernet11isReceivingEv>:
   2219c:	00452783          	lw	a5,4(a0)
   221a0:	0007a503          	lw	a0,0(a5)
   221a4:	48855513          	bext	a0,a0,0x8
   221a8:	00154513          	xor	a0,a0,1
   221ac:	00008067          	ret

000221b0 <_ZN8Ethernet16isEmptyPayloadTXEv>:
   221b0:	00452783          	lw	a5,4(a0)
   221b4:	0007a503          	lw	a0,0(a5)
   221b8:	48255513          	bext	a0,a0,0x2
   221bc:	00008067          	ret

000221c0 <_ZN8Ethernet15isFullPayloadTXEv>:
   221c0:	00452783          	lw	a5,4(a0)
   221c4:	0007a503          	lw	a0,0(a5)
   221c8:	48355513          	bext	a0,a0,0x3
   221cc:	00008067          	ret

000221d0 <_ZN8Ethernet16isEmptyPayloadRXEv>:
   221d0:	00452783          	lw	a5,4(a0)
   221d4:	0007a503          	lw	a0,0(a5)
   221d8:	00157513          	and	a0,a0,1
   221dc:	00008067          	ret

000221e0 <_ZN8Ethernet15isFullPayloadRXEv>:
   221e0:	00452783          	lw	a5,4(a0)
   221e4:	0007a503          	lw	a0,0(a5)
   221e8:	48155513          	bext	a0,a0,0x1
   221ec:	00008067          	ret

000221f0 <_ZN8Ethernet15isEmptyPacketTXEv>:
   221f0:	00452783          	lw	a5,4(a0)
   221f4:	0007a503          	lw	a0,0(a5)
   221f8:	48655513          	bext	a0,a0,0x6
   221fc:	00008067          	ret

00022200 <_ZN8Ethernet14isFullPacketTXEv>:
   22200:	00452783          	lw	a5,4(a0)
   22204:	0007a503          	lw	a0,0(a5)
   22208:	48755513          	bext	a0,a0,0x7
   2220c:	00008067          	ret

00022210 <_ZN8Ethernet15isEmptyPacketRXEv>:
   22210:	00452783          	lw	a5,4(a0)
   22214:	0007a503          	lw	a0,0(a5)
   22218:	48455513          	bext	a0,a0,0x4
   2221c:	00008067          	ret

00022220 <_ZN8Ethernet14isFullPacketRXEv>:
   22220:	00452783          	lw	a5,4(a0)
   22224:	0007a503          	lw	a0,0(a5)
   22228:	48555513          	bext	a0,a0,0x5
   2222c:	00008067          	ret

00022230 <_ZN8Ethernet12getInterruptEv>:
   22230:	ff010113          	add	sp,sp,-16
   22234:	00052783          	lw	a5,0(a0)
   22238:	0747a783          	lw	a5,116(a5)
   2223c:	01852703          	lw	a4,24(a0)
   22240:	00072583          	lw	a1,0(a4)
   22244:	00f11423          	sh	a5,8(sp)
   22248:	00812503          	lw	a0,8(sp)
   2224c:	01010113          	add	sp,sp,16
   22250:	00008067          	ret

00022254 <_ZN8Ethernet8isLinkedEv>:
   22254:	ff010113          	add	sp,sp,-16
   22258:	00011623          	sh	zero,12(sp)
   2225c:	00052783          	lw	a5,0(a0)
   22260:	0047a783          	lw	a5,4(a5)
   22264:	01079793          	sll	a5,a5,0x10
   22268:	0107d793          	srl	a5,a5,0x10
   2226c:	00f11623          	sh	a5,12(sp)
   22270:	00c12503          	lw	a0,12(sp)
   22274:	48255513          	bext	a0,a0,0x2
   22278:	01010113          	add	sp,sp,16
   2227c:	00008067          	ret

00022280 <_ZN8Ethernet8waitLinkEv>:
   22280:	ff010113          	add	sp,sp,-16
   22284:	000107a3          	sb	zero,15(sp)
   22288:	00011423          	sh	zero,8(sp)
   2228c:	00f14783          	lbu	a5,15(sp)
   22290:	0ff7f793          	zext.b	a5,a5
   22294:	02079863          	bnez	a5,222c4 <_ZN8Ethernet8waitLinkEv+0x44>
   22298:	00052703          	lw	a4,0(a0)
   2229c:	00472783          	lw	a5,4(a4)
   222a0:	01079793          	sll	a5,a5,0x10
   222a4:	0107d793          	srl	a5,a5,0x10
   222a8:	00f11423          	sh	a5,8(sp)
   222ac:	00812783          	lw	a5,8(sp)
   222b0:	4827d793          	bext	a5,a5,0x2
   222b4:	00f107a3          	sb	a5,15(sp)
   222b8:	00f14783          	lbu	a5,15(sp)
   222bc:	0ff7f793          	zext.b	a5,a5
   222c0:	fc078ee3          	beqz	a5,2229c <_ZN8Ethernet8waitLinkEv+0x1c>
   222c4:	01010113          	add	sp,sp,16
   222c8:	00008067          	ret

000222cc <_ZN8Ethernet8energyOnEv>:
   222cc:	ff010113          	add	sp,sp,-16
   222d0:	00011623          	sh	zero,12(sp)
   222d4:	00052783          	lw	a5,0(a0)
   222d8:	0447a783          	lw	a5,68(a5)
   222dc:	01079793          	sll	a5,a5,0x10
   222e0:	0107d793          	srl	a5,a5,0x10
   222e4:	00f11623          	sh	a5,12(sp)
   222e8:	00c12503          	lw	a0,12(sp)
   222ec:	48155513          	bext	a0,a0,0x1
   222f0:	01010113          	add	sp,sp,16
   222f4:	00008067          	ret

000222f8 <_ZN8Ethernet10getChannelEv>:
   222f8:	ff010113          	add	sp,sp,-16
   222fc:	00011623          	sh	zero,12(sp)
   22300:	00052783          	lw	a5,0(a0)
   22304:	06c7a783          	lw	a5,108(a5)
   22308:	01079793          	sll	a5,a5,0x10
   2230c:	0107d793          	srl	a5,a5,0x10
   22310:	00f11623          	sh	a5,12(sp)
   22314:	00c12503          	lw	a0,12(sp)
   22318:	48d55513          	bext	a0,a0,0xd
   2231c:	01010113          	add	sp,sp,16
   22320:	00008067          	ret

00022324 <_ZN8Ethernet13getErrorCountEv>:
   22324:	ff010113          	add	sp,sp,-16
   22328:	00011723          	sh	zero,14(sp)
   2232c:	00052783          	lw	a5,0(a0)
   22330:	0687a783          	lw	a5,104(a5)
   22334:	01079793          	sll	a5,a5,0x10
   22338:	0107d793          	srl	a5,a5,0x10
   2233c:	00f11723          	sh	a5,14(sp)
   22340:	00e15503          	lhu	a0,14(sp)
   22344:	01010113          	add	sp,sp,16
   22348:	00008067          	ret

0002234c <_ZN8Ethernet9sendFrameEPKhmNS_9macAddr_sEPNS_10ethError_eE>:
   2234c:	ff010113          	add	sp,sp,-16
   22350:	00d12423          	sw	a3,8(sp)
   22354:	00e12623          	sw	a4,12(sp)
   22358:	00452703          	lw	a4,4(a0)
   2235c:	00072703          	lw	a4,0(a4)
   22360:	01371693          	sll	a3,a4,0x13
   22364:	0006d663          	bgez	a3,22370 <_ZN8Ethernet9sendFrameEPKhmNS_9macAddr_sEPNS_10ethError_eE+0x24>
   22368:	00600713          	li	a4,6
   2236c:	00e7a023          	sw	a4,0(a5)
   22370:	5dc00713          	li	a4,1500
   22374:	0ac76863          	bltu	a4,a2,22424 <_ZN8Ethernet9sendFrameEPKhmNS_9macAddr_sEPNS_10ethError_eE+0xd8>
   22378:	00452783          	lw	a5,4(a0)
   2237c:	0007a783          	lw	a5,0(a5)
   22380:	4877d793          	bext	a5,a5,0x7
   22384:	fe079ae3          	bnez	a5,22378 <_ZN8Ethernet9sendFrameEPKhmNS_9macAddr_sEPNS_10ethError_eE+0x2c>
   22388:	0a060463          	beqz	a2,22430 <_ZN8Ethernet9sendFrameEPKhmNS_9macAddr_sEPNS_10ethError_eE+0xe4>
   2238c:	00058793          	mv	a5,a1
   22390:	00c585b3          	add	a1,a1,a2
   22394:	00c52703          	lw	a4,12(a0)
   22398:	0007c683          	lbu	a3,0(a5)
   2239c:	00d70023          	sb	a3,0(a4)
   223a0:	00178793          	add	a5,a5,1
   223a4:	feb798e3          	bne	a5,a1,22394 <_ZN8Ethernet9sendFrameEPKhmNS_9macAddr_sEPNS_10ethError_eE+0x48>
   223a8:	02900793          	li	a5,41
   223ac:	00000693          	li	a3,0
   223b0:	08c7f063          	bgeu	a5,a2,22430 <_ZN8Ethernet9sendFrameEPKhmNS_9macAddr_sEPNS_10ethError_eE+0xe4>
   223b4:	00d607b3          	add	a5,a2,a3
   223b8:	00814703          	lbu	a4,8(sp)
   223bc:	01071713          	sll	a4,a4,0x10
   223c0:	01079793          	sll	a5,a5,0x10
   223c4:	0107d793          	srl	a5,a5,0x10
   223c8:	00e7e7b3          	or	a5,a5,a4
   223cc:	00914803          	lbu	a6,9(sp)
   223d0:	01881813          	sll	a6,a6,0x18
   223d4:	010006b7          	lui	a3,0x1000
   223d8:	fff68693          	add	a3,a3,-1 # ffffff <_ZN9SerialOut6statusE+0xfdc0f7>
   223dc:	00d7f7b3          	and	a5,a5,a3
   223e0:	00b14583          	lbu	a1,11(sp)
   223e4:	00859593          	sll	a1,a1,0x8
   223e8:	00a14703          	lbu	a4,10(sp)
   223ec:	00c14603          	lbu	a2,12(sp)
   223f0:	01061613          	sll	a2,a2,0x10
   223f4:	00b76733          	or	a4,a4,a1
   223f8:	00c76733          	or	a4,a4,a2
   223fc:	00d14583          	lbu	a1,13(sp)
   22400:	01859593          	sll	a1,a1,0x18
   22404:	00d77733          	and	a4,a4,a3
   22408:	00852883          	lw	a7,8(a0)
   2240c:	0107e633          	or	a2,a5,a6
   22410:	00b766b3          	or	a3,a4,a1
   22414:	00c8a023          	sw	a2,0(a7)
   22418:	00d8a223          	sw	a3,4(a7)
   2241c:	01010113          	add	sp,sp,16
   22420:	00008067          	ret
   22424:	00300713          	li	a4,3
   22428:	00e7a023          	sw	a4,0(a5)
   2242c:	ff1ff06f          	j	2241c <_ZN8Ethernet9sendFrameEPKhmNS_9macAddr_sEPNS_10ethError_eE+0xd0>
   22430:	02a00693          	li	a3,42
   22434:	40c686b3          	sub	a3,a3,a2
   22438:	00068593          	mv	a1,a3
   2243c:	00000713          	li	a4,0
   22440:	00452783          	lw	a5,4(a0)
   22444:	0007a783          	lw	a5,0(a5)
   22448:	4837d793          	bext	a5,a5,0x3
   2244c:	fe079ae3          	bnez	a5,22440 <_ZN8Ethernet9sendFrameEPKhmNS_9macAddr_sEPNS_10ethError_eE+0xf4>
   22450:	00c52783          	lw	a5,12(a0)
   22454:	00078023          	sb	zero,0(a5)
   22458:	00170713          	add	a4,a4,1
   2245c:	fee592e3          	bne	a1,a4,22440 <_ZN8Ethernet9sendFrameEPKhmNS_9macAddr_sEPNS_10ethError_eE+0xf4>
   22460:	f55ff06f          	j	223b4 <_ZN8Ethernet9sendFrameEPKhmNS_9macAddr_sEPNS_10ethError_eE+0x68>

00022464 <_ZN8Ethernet9sendFrameEPKhmNS_9macAddr_sEtPNS_10ethError_eE>:
   22464:	ff010113          	add	sp,sp,-16
   22468:	00d12423          	sw	a3,8(sp)
   2246c:	00e12623          	sw	a4,12(sp)
   22470:	00452703          	lw	a4,4(a0)
   22474:	00072703          	lw	a4,0(a4)
   22478:	01371693          	sll	a3,a4,0x13
   2247c:	0006c663          	bltz	a3,22488 <_ZN8Ethernet9sendFrameEPKhmNS_9macAddr_sEtPNS_10ethError_eE+0x24>
   22480:	00600713          	li	a4,6
   22484:	00e82023          	sw	a4,0(a6)
   22488:	5dc00713          	li	a4,1500
   2248c:	0cc76463          	bltu	a4,a2,22554 <_ZN8Ethernet9sendFrameEPKhmNS_9macAddr_sEtPNS_10ethError_eE+0xf0>
   22490:	00452703          	lw	a4,4(a0)
   22494:	00072703          	lw	a4,0(a4)
   22498:	48775713          	bext	a4,a4,0x7
   2249c:	fe071ae3          	bnez	a4,22490 <_ZN8Ethernet9sendFrameEPKhmNS_9macAddr_sEtPNS_10ethError_eE+0x2c>
   224a0:	00c52703          	lw	a4,12(a0)
   224a4:	0087d693          	srl	a3,a5,0x8
   224a8:	00d70023          	sb	a3,0(a4)
   224ac:	00c52703          	lw	a4,12(a0)
   224b0:	0ff7f793          	zext.b	a5,a5
   224b4:	00f70023          	sb	a5,0(a4)
   224b8:	0a060463          	beqz	a2,22560 <_ZN8Ethernet9sendFrameEPKhmNS_9macAddr_sEtPNS_10ethError_eE+0xfc>
   224bc:	00058793          	mv	a5,a1
   224c0:	00c585b3          	add	a1,a1,a2
   224c4:	00c52703          	lw	a4,12(a0)
   224c8:	0007c683          	lbu	a3,0(a5)
   224cc:	00d70023          	sb	a3,0(a4)
   224d0:	00178793          	add	a5,a5,1
   224d4:	feb798e3          	bne	a5,a1,224c4 <_ZN8Ethernet9sendFrameEPKhmNS_9macAddr_sEtPNS_10ethError_eE+0x60>
   224d8:	02900793          	li	a5,41
   224dc:	00000693          	li	a3,0
   224e0:	08c7f063          	bgeu	a5,a2,22560 <_ZN8Ethernet9sendFrameEPKhmNS_9macAddr_sEtPNS_10ethError_eE+0xfc>
   224e4:	00d607b3          	add	a5,a2,a3
   224e8:	00814703          	lbu	a4,8(sp)
   224ec:	01071713          	sll	a4,a4,0x10
   224f0:	01079793          	sll	a5,a5,0x10
   224f4:	0107d793          	srl	a5,a5,0x10
   224f8:	00e7e7b3          	or	a5,a5,a4
   224fc:	00914803          	lbu	a6,9(sp)
   22500:	01881813          	sll	a6,a6,0x18
   22504:	010006b7          	lui	a3,0x1000
   22508:	fff68693          	add	a3,a3,-1 # ffffff <_ZN9SerialOut6statusE+0xfdc0f7>
   2250c:	00d7f7b3          	and	a5,a5,a3
   22510:	00b14583          	lbu	a1,11(sp)
   22514:	00859593          	sll	a1,a1,0x8
   22518:	00a14703          	lbu	a4,10(sp)
   2251c:	00c14603          	lbu	a2,12(sp)
   22520:	01061613          	sll	a2,a2,0x10
   22524:	00b76733          	or	a4,a4,a1
   22528:	00c76733          	or	a4,a4,a2
   2252c:	00d14583          	lbu	a1,13(sp)
   22530:	01859593          	sll	a1,a1,0x18
   22534:	00d77733          	and	a4,a4,a3
   22538:	00852883          	lw	a7,8(a0)
   2253c:	0107e633          	or	a2,a5,a6
   22540:	00b766b3          	or	a3,a4,a1
   22544:	00c8a023          	sw	a2,0(a7)
   22548:	00d8a223          	sw	a3,4(a7)
   2254c:	01010113          	add	sp,sp,16
   22550:	00008067          	ret
   22554:	00300793          	li	a5,3
   22558:	00f82023          	sw	a5,0(a6)
   2255c:	ff1ff06f          	j	2254c <_ZN8Ethernet9sendFrameEPKhmNS_9macAddr_sEtPNS_10ethError_eE+0xe8>
   22560:	02a00693          	li	a3,42
   22564:	40c686b3          	sub	a3,a3,a2
   22568:	00068593          	mv	a1,a3
   2256c:	00000713          	li	a4,0
   22570:	00452783          	lw	a5,4(a0)
   22574:	0007a783          	lw	a5,0(a5)
   22578:	4837d793          	bext	a5,a5,0x3
   2257c:	fe079ae3          	bnez	a5,22570 <_ZN8Ethernet9sendFrameEPKhmNS_9macAddr_sEtPNS_10ethError_eE+0x10c>
   22580:	00c52783          	lw	a5,12(a0)
   22584:	00078023          	sb	zero,0(a5)
   22588:	00170713          	add	a4,a4,1
   2258c:	fee592e3          	bne	a1,a4,22570 <_ZN8Ethernet9sendFrameEPKhmNS_9macAddr_sEtPNS_10ethError_eE+0x10c>
   22590:	f55ff06f          	j	224e4 <_ZN8Ethernet9sendFrameEPKhmNS_9macAddr_sEtPNS_10ethError_eE+0x80>

00022594 <_ZN8Ethernet12receiveFrameEPhmPNS_10ethError_eE>:
   22594:	00452783          	lw	a5,4(a0)
   22598:	0007a783          	lw	a5,0(a5)
   2259c:	01379713          	sll	a4,a5,0x13
   225a0:	02074c63          	bltz	a4,225d8 <_ZN8Ethernet12receiveFrameEPhmPNS_10ethError_eE+0x44>
   225a4:	5dc00793          	li	a5,1500
   225a8:	02c7ee63          	bltu	a5,a2,225e4 <_ZN8Ethernet12receiveFrameEPhmPNS_10ethError_eE+0x50>
   225ac:	02900793          	li	a5,41
   225b0:	04c7f063          	bgeu	a5,a2,225f0 <_ZN8Ethernet12receiveFrameEPhmPNS_10ethError_eE+0x5c>
   225b4:	00058793          	mv	a5,a1
   225b8:	00c585b3          	add	a1,a1,a2
   225bc:	00458713          	add	a4,a1,4
   225c0:	01452683          	lw	a3,20(a0)
   225c4:	0006c683          	lbu	a3,0(a3)
   225c8:	00d78023          	sb	a3,0(a5)
   225cc:	00178793          	add	a5,a5,1
   225d0:	fee798e3          	bne	a5,a4,225c0 <_ZN8Ethernet12receiveFrameEPhmPNS_10ethError_eE+0x2c>
   225d4:	00008067          	ret
   225d8:	00600793          	li	a5,6
   225dc:	00f6a023          	sw	a5,0(a3)
   225e0:	00008067          	ret
   225e4:	00300793          	li	a5,3
   225e8:	00f6a023          	sw	a5,0(a3)
   225ec:	00008067          	ret
   225f0:	00400793          	li	a5,4
   225f4:	00f6a023          	sw	a5,0(a3)
   225f8:	00008067          	ret

000225fc <_ZN8Ethernet12receiveFrameEPhmPtPNS_10ethError_eE>:
   225fc:	00452783          	lw	a5,4(a0)
   22600:	0007a783          	lw	a5,0(a5)
   22604:	01379813          	sll	a6,a5,0x13
   22608:	04085863          	bgez	a6,22658 <_ZN8Ethernet12receiveFrameEPhmPtPNS_10ethError_eE+0x5c>
   2260c:	5dc00793          	li	a5,1500
   22610:	04c7ea63          	bltu	a5,a2,22664 <_ZN8Ethernet12receiveFrameEPhmPtPNS_10ethError_eE+0x68>
   22614:	02900793          	li	a5,41
   22618:	04c7fc63          	bgeu	a5,a2,22670 <_ZN8Ethernet12receiveFrameEPhmPtPNS_10ethError_eE+0x74>
   2261c:	01452783          	lw	a5,20(a0)
   22620:	0007c703          	lbu	a4,0(a5)
   22624:	0007c783          	lbu	a5,0(a5)
   22628:	00871713          	sll	a4,a4,0x8
   2262c:	00e7e7b3          	or	a5,a5,a4
   22630:	00f69023          	sh	a5,0(a3)
   22634:	00058793          	mv	a5,a1
   22638:	00458593          	add	a1,a1,4
   2263c:	00c58733          	add	a4,a1,a2
   22640:	01452683          	lw	a3,20(a0)
   22644:	0006c683          	lbu	a3,0(a3)
   22648:	00d78023          	sb	a3,0(a5)
   2264c:	00178793          	add	a5,a5,1
   22650:	fee798e3          	bne	a5,a4,22640 <_ZN8Ethernet12receiveFrameEPhmPtPNS_10ethError_eE+0x44>
   22654:	00008067          	ret
   22658:	00600793          	li	a5,6
   2265c:	00f72023          	sw	a5,0(a4)
   22660:	00008067          	ret
   22664:	00300793          	li	a5,3
   22668:	00f72023          	sw	a5,0(a4)
   2266c:	00008067          	ret
   22670:	00400793          	li	a5,4
   22674:	00f72023          	sw	a5,0(a4)
   22678:	00008067          	ret

0002267c <_ZN8Ethernet15getRxDescriptorEv>:
   2267c:	ff010113          	add	sp,sp,-16
   22680:	01052783          	lw	a5,16(a0)
   22684:	0007a703          	lw	a4,0(a5)
   22688:	0047a783          	lw	a5,4(a5)
   2268c:	00070513          	mv	a0,a4
   22690:	00078593          	mv	a1,a5
   22694:	01010113          	add	sp,sp,16
   22698:	00008067          	ret

0002269c <_ZN8Ethernet5resetEv>:
   2269c:	ff010113          	add	sp,sp,-16
   226a0:	00011623          	sh	zero,12(sp)
   226a4:	00052703          	lw	a4,0(a0)
   226a8:	00072783          	lw	a5,0(a4)
   226ac:	01079793          	sll	a5,a5,0x10
   226b0:	0107d793          	srl	a5,a5,0x10
   226b4:	00f11623          	sh	a5,12(sp)
   226b8:	00c15783          	lhu	a5,12(sp)
   226bc:	ffff86b7          	lui	a3,0xffff8
   226c0:	00d7e7b3          	or	a5,a5,a3
   226c4:	00f11623          	sh	a5,12(sp)
   226c8:	00c15783          	lhu	a5,12(sp)
   226cc:	01079793          	sll	a5,a5,0x10
   226d0:	0107d793          	srl	a5,a5,0x10
   226d4:	00f72023          	sw	a5,0(a4)
   226d8:	01010113          	add	sp,sp,16
   226dc:	00008067          	ret

000226e0 <_ZN8Ethernet9powerDownEv>:
   226e0:	ff010113          	add	sp,sp,-16
   226e4:	00011623          	sh	zero,12(sp)
   226e8:	00052683          	lw	a3,0(a0)
   226ec:	0006a703          	lw	a4,0(a3) # ffff8000 <_ZN9SerialOut6statusE+0xfffd40f8>
   226f0:	01071713          	sll	a4,a4,0x10
   226f4:	01075713          	srl	a4,a4,0x10
   226f8:	00e11623          	sh	a4,12(sp)
   226fc:	00c15703          	lhu	a4,12(sp)
   22700:	48c71713          	bclr	a4,a4,0xc
   22704:	00e11623          	sh	a4,12(sp)
   22708:	00c15703          	lhu	a4,12(sp)
   2270c:	01071713          	sll	a4,a4,0x10
   22710:	01075713          	srl	a4,a4,0x10
   22714:	00e6a023          	sw	a4,0(a3)
   22718:	00052703          	lw	a4,0(a0)
   2271c:	00072783          	lw	a5,0(a4)
   22720:	01079793          	sll	a5,a5,0x10
   22724:	0107d793          	srl	a5,a5,0x10
   22728:	00f11623          	sh	a5,12(sp)
   2272c:	00c15783          	lhu	a5,12(sp)
   22730:	28b79793          	bset	a5,a5,0xb
   22734:	00f11623          	sh	a5,12(sp)
   22738:	00c15783          	lhu	a5,12(sp)
   2273c:	01079793          	sll	a5,a5,0x10
   22740:	0107d793          	srl	a5,a5,0x10
   22744:	00f72023          	sw	a5,0(a4)
   22748:	01010113          	add	sp,sp,16
   2274c:	00008067          	ret

00022750 <_ZN8EthernetD1Ev>:
   22750:	ff010113          	add	sp,sp,-16
   22754:	00112623          	sw	ra,12(sp)
   22758:	00812423          	sw	s0,8(sp)
   2275c:	00050413          	mv	s0,a0
   22760:	f3dff0ef          	jal	2269c <_ZN8Ethernet5resetEv>
   22764:	00040513          	mv	a0,s0
   22768:	f79ff0ef          	jal	226e0 <_ZN8Ethernet9powerDownEv>
   2276c:	00442683          	lw	a3,4(s0)
   22770:	0006a783          	lw	a5,0(a3)
   22774:	fffe2737          	lui	a4,0xfffe2
   22778:	fff70713          	add	a4,a4,-1 # fffe1fff <_ZN9SerialOut6statusE+0xfffbe0f7>
   2277c:	00e7f7b3          	and	a5,a5,a4
   22780:	00f6a023          	sw	a5,0(a3)
   22784:	01842783          	lw	a5,24(s0)
   22788:	0007a023          	sw	zero,0(a5)
   2278c:	00c12083          	lw	ra,12(sp)
   22790:	00812403          	lw	s0,8(sp)
   22794:	01010113          	add	sp,sp,16
   22798:	00008067          	ret

0002279c <_ZN8Ethernet6wakeUpEv>:
   2279c:	ff010113          	add	sp,sp,-16
   227a0:	00011623          	sh	zero,12(sp)
   227a4:	00052703          	lw	a4,0(a0)
   227a8:	00072783          	lw	a5,0(a4)
   227ac:	01079793          	sll	a5,a5,0x10
   227b0:	0107d793          	srl	a5,a5,0x10
   227b4:	00f11623          	sh	a5,12(sp)
   227b8:	00c15783          	lhu	a5,12(sp)
   227bc:	48b79793          	bclr	a5,a5,0xb
   227c0:	00f11623          	sh	a5,12(sp)
   227c4:	00c15783          	lhu	a5,12(sp)
   227c8:	01079793          	sll	a5,a5,0x10
   227cc:	0107d793          	srl	a5,a5,0x10
   227d0:	00f72023          	sw	a5,0(a4)
   227d4:	01010113          	add	sp,sp,16
   227d8:	00008067          	ret

000227dc <_ZN8EthernetC1Ev>:
   227dc:	ff010113          	add	sp,sp,-16
   227e0:	00112623          	sw	ra,12(sp)
   227e4:	00812423          	sw	s0,8(sp)
   227e8:	00050413          	mv	s0,a0
   227ec:	000017b7          	lui	a5,0x1
   227f0:	a0078793          	add	a5,a5,-1536 # a00 <boot_program+0xa00>
   227f4:	00f52023          	sw	a5,0(a0)
   227f8:	000017b7          	lui	a5,0x1
   227fc:	a8078793          	add	a5,a5,-1408 # a80 <boot_program+0xa80>
   22800:	00f52223          	sw	a5,4(a0)
   22804:	000017b7          	lui	a5,0x1
   22808:	a8478793          	add	a5,a5,-1404 # a84 <boot_program+0xa84>
   2280c:	00f52423          	sw	a5,8(a0)
   22810:	000017b7          	lui	a5,0x1
   22814:	a8c78793          	add	a5,a5,-1396 # a8c <boot_program+0xa8c>
   22818:	00f52623          	sw	a5,12(a0)
   2281c:	000017b7          	lui	a5,0x1
   22820:	a9078793          	add	a5,a5,-1392 # a90 <boot_program+0xa90>
   22824:	00f52823          	sw	a5,16(a0)
   22828:	000017b7          	lui	a5,0x1
   2282c:	a9878793          	add	a5,a5,-1384 # a98 <boot_program+0xa98>
   22830:	00f52a23          	sw	a5,20(a0)
   22834:	000017b7          	lui	a5,0x1
   22838:	a9c78793          	add	a5,a5,-1380 # a9c <boot_program+0xa9c>
   2283c:	00f52c23          	sw	a5,24(a0)
   22840:	e5dff0ef          	jal	2269c <_ZN8Ethernet5resetEv>
   22844:	00040513          	mv	a0,s0
   22848:	f55ff0ef          	jal	2279c <_ZN8Ethernet6wakeUpEv>
   2284c:	00442683          	lw	a3,4(s0)
   22850:	0006a783          	lw	a5,0(a3)
   22854:	fffe2737          	lui	a4,0xfffe2
   22858:	fff70713          	add	a4,a4,-1 # fffe1fff <_ZN9SerialOut6statusE+0xfffbe0f7>
   2285c:	00e7f7b3          	and	a5,a5,a4
   22860:	00f6a023          	sw	a5,0(a3)
   22864:	01842783          	lw	a5,24(s0)
   22868:	0007a023          	sw	zero,0(a5)
   2286c:	00c12083          	lw	ra,12(sp)
   22870:	00812403          	lw	s0,8(sp)
   22874:	01010113          	add	sp,sp,16
   22878:	00008067          	ret

0002287c <_ZN8Ethernet9configureENS_10ethSpeed_eENS_11ethDuplex_eE>:
   2287c:	ff010113          	add	sp,sp,-16
   22880:	00011623          	sh	zero,12(sp)
   22884:	00052703          	lw	a4,0(a0)
   22888:	00072783          	lw	a5,0(a4)
   2288c:	01079793          	sll	a5,a5,0x10
   22890:	0107d793          	srl	a5,a5,0x10
   22894:	00f11623          	sh	a5,12(sp)
   22898:	0015f593          	and	a1,a1,1
   2289c:	00d59593          	sll	a1,a1,0xd
   228a0:	00c15783          	lhu	a5,12(sp)
   228a4:	48d79793          	bclr	a5,a5,0xd
   228a8:	00b7e7b3          	or	a5,a5,a1
   228ac:	00f11623          	sh	a5,12(sp)
   228b0:	00167613          	and	a2,a2,1
   228b4:	00861613          	sll	a2,a2,0x8
   228b8:	00c15783          	lhu	a5,12(sp)
   228bc:	eff7f793          	and	a5,a5,-257
   228c0:	00c7e7b3          	or	a5,a5,a2
   228c4:	00f11623          	sh	a5,12(sp)
   228c8:	00c15783          	lhu	a5,12(sp)
   228cc:	01079793          	sll	a5,a5,0x10
   228d0:	0107d793          	srl	a5,a5,0x10
   228d4:	00f72023          	sw	a5,0(a4)
   228d8:	01010113          	add	sp,sp,16
   228dc:	00008067          	ret

000228e0 <_ZN8Ethernet11setTestModeEb>:
   228e0:	ff010113          	add	sp,sp,-16
   228e4:	00011623          	sh	zero,12(sp)
   228e8:	00052703          	lw	a4,0(a0)
   228ec:	00072783          	lw	a5,0(a4)
   228f0:	01079793          	sll	a5,a5,0x10
   228f4:	0107d793          	srl	a5,a5,0x10
   228f8:	00f11623          	sh	a5,12(sp)
   228fc:	0015f593          	and	a1,a1,1
   22900:	00e59593          	sll	a1,a1,0xe
   22904:	00c15783          	lhu	a5,12(sp)
   22908:	48e79793          	bclr	a5,a5,0xe
   2290c:	00b7e7b3          	or	a5,a5,a1
   22910:	00f11623          	sh	a5,12(sp)
   22914:	00c15783          	lhu	a5,12(sp)
   22918:	01079793          	sll	a5,a5,0x10
   2291c:	0107d793          	srl	a5,a5,0x10
   22920:	00f72023          	sw	a5,0(a4)
   22924:	01010113          	add	sp,sp,16
   22928:	00008067          	ret

0002292c <_ZN8Ethernet16setHeartbeatTestEb>:
   2292c:	ff010113          	add	sp,sp,-16
   22930:	00011623          	sh	zero,12(sp)
   22934:	00052703          	lw	a4,0(a0)
   22938:	06c72783          	lw	a5,108(a4)
   2293c:	01079793          	sll	a5,a5,0x10
   22940:	0107d793          	srl	a5,a5,0x10
   22944:	00f11623          	sh	a5,12(sp)
   22948:	0015c593          	xor	a1,a1,1
   2294c:	0015f593          	and	a1,a1,1
   22950:	00b59593          	sll	a1,a1,0xb
   22954:	00c15783          	lhu	a5,12(sp)
   22958:	48b79793          	bclr	a5,a5,0xb
   2295c:	00b7e7b3          	or	a5,a5,a1
   22960:	00f11623          	sh	a5,12(sp)
   22964:	00c15783          	lhu	a5,12(sp)
   22968:	01079793          	sll	a5,a5,0x10
   2296c:	0107d793          	srl	a5,a5,0x10
   22970:	06f72623          	sw	a5,108(a4)
   22974:	01010113          	add	sp,sp,16
   22978:	00008067          	ret

0002297c <_ZN8Ethernet18setAutoNegotiationEb>:
   2297c:	ff010113          	add	sp,sp,-16
   22980:	00011623          	sh	zero,12(sp)
   22984:	00052703          	lw	a4,0(a0)
   22988:	00072783          	lw	a5,0(a4)
   2298c:	01079793          	sll	a5,a5,0x10
   22990:	0107d793          	srl	a5,a5,0x10
   22994:	00f11623          	sh	a5,12(sp)
   22998:	0015f593          	and	a1,a1,1
   2299c:	00c59693          	sll	a3,a1,0xc
   229a0:	00c15783          	lhu	a5,12(sp)
   229a4:	48c79793          	bclr	a5,a5,0xc
   229a8:	00d7e7b3          	or	a5,a5,a3
   229ac:	00f11623          	sh	a5,12(sp)
   229b0:	00959593          	sll	a1,a1,0x9
   229b4:	00c15783          	lhu	a5,12(sp)
   229b8:	dff7f793          	and	a5,a5,-513
   229bc:	00b7e7b3          	or	a5,a5,a1
   229c0:	00f11623          	sh	a5,12(sp)
   229c4:	00c15783          	lhu	a5,12(sp)
   229c8:	01079793          	sll	a5,a5,0x10
   229cc:	0107d793          	srl	a5,a5,0x10
   229d0:	00f72023          	sw	a5,0(a4)
   229d4:	01010113          	add	sp,sp,16
   229d8:	00008067          	ret

000229dc <_ZN8Ethernet4initENS_10ethSpeed_eENS_11ethDuplex_eEbNS_9ethMode_eE>:
   229dc:	ff010113          	add	sp,sp,-16
   229e0:	00112623          	sw	ra,12(sp)
   229e4:	00812423          	sw	s0,8(sp)
   229e8:	00912223          	sw	s1,4(sp)
   229ec:	01212023          	sw	s2,0(sp)
   229f0:	00050413          	mv	s0,a0
   229f4:	00058493          	mv	s1,a1
   229f8:	00060913          	mv	s2,a2
   229fc:	00452803          	lw	a6,4(a0)
   22a00:	0015f613          	and	a2,a1,1
   22a04:	01161613          	sll	a2,a2,0x11
   22a08:	00082783          	lw	a5,0(a6)
   22a0c:	49179793          	bclr	a5,a5,0x11
   22a10:	00c7e7b3          	or	a5,a5,a2
   22a14:	00f82023          	sw	a5,0(a6)
   22a18:	00452603          	lw	a2,4(a0)
   22a1c:	00177713          	and	a4,a4,1
   22a20:	00c71713          	sll	a4,a4,0xc
   22a24:	00062783          	lw	a5,0(a2)
   22a28:	48c79793          	bclr	a5,a5,0xc
   22a2c:	00e7e7b3          	or	a5,a5,a4
   22a30:	00f62023          	sw	a5,0(a2)
   22a34:	00452703          	lw	a4,4(a0)
   22a38:	00072783          	lw	a5,0(a4)
   22a3c:	4007e793          	or	a5,a5,1024
   22a40:	00f72023          	sw	a5,0(a4)
   22a44:	00452703          	lw	a4,4(a0)
   22a48:	00072783          	lw	a5,0(a4)
   22a4c:	28b79793          	bset	a5,a5,0xb
   22a50:	00f72023          	sw	a5,0(a4)
   22a54:	00068593          	mv	a1,a3
   22a58:	f25ff0ef          	jal	2297c <_ZN8Ethernet18setAutoNegotiationEb>
   22a5c:	00090613          	mv	a2,s2
   22a60:	00048593          	mv	a1,s1
   22a64:	00040513          	mv	a0,s0
   22a68:	e15ff0ef          	jal	2287c <_ZN8Ethernet9configureENS_10ethSpeed_eENS_11ethDuplex_eE>
   22a6c:	00040513          	mv	a0,s0
   22a70:	00c12083          	lw	ra,12(sp)
   22a74:	00812403          	lw	s0,8(sp)
   22a78:	00412483          	lw	s1,4(sp)
   22a7c:	00012903          	lw	s2,0(sp)
   22a80:	01010113          	add	sp,sp,16
   22a84:	00008067          	ret

00022a88 <_ZN8Ethernet10setChannelENS_12ethChannel_eE>:
   22a88:	ff010113          	add	sp,sp,-16
   22a8c:	00011623          	sh	zero,12(sp)
   22a90:	00052703          	lw	a4,0(a0)
   22a94:	06c72783          	lw	a5,108(a4)
   22a98:	01079793          	sll	a5,a5,0x10
   22a9c:	0107d793          	srl	a5,a5,0x10
   22aa0:	00f11623          	sh	a5,12(sp)
   22aa4:	0015f593          	and	a1,a1,1
   22aa8:	00d59593          	sll	a1,a1,0xd
   22aac:	00c15783          	lhu	a5,12(sp)
   22ab0:	48d79793          	bclr	a5,a5,0xd
   22ab4:	00b7e7b3          	or	a5,a5,a1
   22ab8:	00f11623          	sh	a5,12(sp)
   22abc:	00c15783          	lhu	a5,12(sp)
   22ac0:	ffff86b7          	lui	a3,0xffff8
   22ac4:	00d7e7b3          	or	a5,a5,a3
   22ac8:	00f11623          	sh	a5,12(sp)
   22acc:	00c15783          	lhu	a5,12(sp)
   22ad0:	01079793          	sll	a5,a5,0x10
   22ad4:	0107d793          	srl	a5,a5,0x10
   22ad8:	06f72623          	sw	a5,108(a4)
   22adc:	01010113          	add	sp,sp,16
   22ae0:	00008067          	ret

00022ae4 <_ZN8Ethernet15setPhyInterruptEhbPNS_10ethError_eE>:
   22ae4:	00600793          	li	a5,6
   22ae8:	04b7e263          	bltu	a5,a1,22b2c <_ZN8Ethernet15setPhyInterruptEhbPNS_10ethError_eE+0x48>
   22aec:	00052683          	lw	a3,0(a0)
   22af0:	0786a783          	lw	a5,120(a3) # ffff8078 <_ZN9SerialOut6statusE+0xfffd4170>
   22af4:	01079793          	sll	a5,a5,0x10
   22af8:	0107d793          	srl	a5,a5,0x10
   22afc:	02060e63          	beqz	a2,22b38 <_ZN8Ethernet15setPhyInterruptEhbPNS_10ethError_eE+0x54>
   22b00:	0017d713          	srl	a4,a5,0x1
   22b04:	07f77713          	and	a4,a4,127
   22b08:	28b71733          	bset	a4,a4,a1
   22b0c:	07f77713          	and	a4,a4,127
   22b10:	00171713          	sll	a4,a4,0x1
   22b14:	f017f793          	and	a5,a5,-255
   22b18:	00e7e7b3          	or	a5,a5,a4
   22b1c:	01079793          	sll	a5,a5,0x10
   22b20:	0107d793          	srl	a5,a5,0x10
   22b24:	06f6ac23          	sw	a5,120(a3)
   22b28:	00008067          	ret
   22b2c:	00500793          	li	a5,5
   22b30:	00f6a023          	sw	a5,0(a3)
   22b34:	00008067          	ret
   22b38:	0017d713          	srl	a4,a5,0x1
   22b3c:	07f77713          	and	a4,a4,127
   22b40:	48b71733          	bclr	a4,a4,a1
   22b44:	fcdff06f          	j	22b10 <_ZN8Ethernet15setPhyInterruptEhbPNS_10ethError_eE+0x2c>

00022b48 <__udivdi3>:
   22b48:	88aa                	mv	a7,a0
   22b4a:	832e                	mv	t1,a1
   22b4c:	8732                	mv	a4,a2
   22b4e:	882a                	mv	a6,a0
   22b50:	87ae                	mv	a5,a1
   22b52:	20069663          	bnez	a3,22d5e <__udivdi3+0x216>
   22b56:	000235b7          	lui	a1,0x23
   22b5a:	7ac58593          	add	a1,a1,1964 # 237ac <__clz_tab>
   22b5e:	0cc37163          	bgeu	t1,a2,22c20 <__udivdi3+0xd8>
   22b62:	66c1                	lui	a3,0x10
   22b64:	0ad67763          	bgeu	a2,a3,22c12 <__udivdi3+0xca>
   22b68:	10063693          	sltiu	a3,a2,256
   22b6c:	0016c693          	xor	a3,a3,1
   22b70:	068e                	sll	a3,a3,0x3
   22b72:	00d65533          	srl	a0,a2,a3
   22b76:	95aa                	add	a1,a1,a0
   22b78:	0005c583          	lbu	a1,0(a1)
   22b7c:	02000513          	li	a0,32
   22b80:	96ae                	add	a3,a3,a1
   22b82:	40d505b3          	sub	a1,a0,a3
   22b86:	00d50b63          	beq	a0,a3,22b9c <__udivdi3+0x54>
   22b8a:	00b317b3          	sll	a5,t1,a1
   22b8e:	00d8d6b3          	srl	a3,a7,a3
   22b92:	00b61733          	sll	a4,a2,a1
   22b96:	8fd5                	or	a5,a5,a3
   22b98:	00b89833          	sll	a6,a7,a1
   22b9c:	01075593          	srl	a1,a4,0x10
   22ba0:	02b7d333          	divu	t1,a5,a1
   22ba4:	01071613          	sll	a2,a4,0x10
   22ba8:	8241                	srl	a2,a2,0x10
   22baa:	02b7f7b3          	remu	a5,a5,a1
   22bae:	851a                	mv	a0,t1
   22bb0:	026608b3          	mul	a7,a2,t1
   22bb4:	01079693          	sll	a3,a5,0x10
   22bb8:	01085793          	srl	a5,a6,0x10
   22bbc:	8fd5                	or	a5,a5,a3
   22bbe:	0117fc63          	bgeu	a5,a7,22bd6 <__udivdi3+0x8e>
   22bc2:	97ba                	add	a5,a5,a4
   22bc4:	fff30513          	add	a0,t1,-1
   22bc8:	00e7e763          	bltu	a5,a4,22bd6 <__udivdi3+0x8e>
   22bcc:	0117f563          	bgeu	a5,a7,22bd6 <__udivdi3+0x8e>
   22bd0:	ffe30513          	add	a0,t1,-2
   22bd4:	97ba                	add	a5,a5,a4
   22bd6:	411787b3          	sub	a5,a5,a7
   22bda:	02b7d8b3          	divu	a7,a5,a1
   22bde:	0842                	sll	a6,a6,0x10
   22be0:	01085813          	srl	a6,a6,0x10
   22be4:	02b7f7b3          	remu	a5,a5,a1
   22be8:	031606b3          	mul	a3,a2,a7
   22bec:	07c2                	sll	a5,a5,0x10
   22bee:	00f86833          	or	a6,a6,a5
   22bf2:	87c6                	mv	a5,a7
   22bf4:	00d87b63          	bgeu	a6,a3,22c0a <__udivdi3+0xc2>
   22bf8:	983a                	add	a6,a6,a4
   22bfa:	fff88793          	add	a5,a7,-1
   22bfe:	00e86663          	bltu	a6,a4,22c0a <__udivdi3+0xc2>
   22c02:	00d87463          	bgeu	a6,a3,22c0a <__udivdi3+0xc2>
   22c06:	ffe88793          	add	a5,a7,-2
   22c0a:	0542                	sll	a0,a0,0x10
   22c0c:	8d5d                	or	a0,a0,a5
   22c0e:	4581                	li	a1,0
   22c10:	8082                	ret
   22c12:	01000537          	lui	a0,0x1000
   22c16:	46c1                	li	a3,16
   22c18:	f4a66de3          	bltu	a2,a0,22b72 <__udivdi3+0x2a>
   22c1c:	46e1                	li	a3,24
   22c1e:	bf91                	j	22b72 <__udivdi3+0x2a>
   22c20:	4681                	li	a3,0
   22c22:	ca09                	beqz	a2,22c34 <__udivdi3+0xec>
   22c24:	67c1                	lui	a5,0x10
   22c26:	08f67f63          	bgeu	a2,a5,22cc4 <__udivdi3+0x17c>
   22c2a:	10063693          	sltiu	a3,a2,256
   22c2e:	0016c693          	xor	a3,a3,1
   22c32:	068e                	sll	a3,a3,0x3
   22c34:	00d657b3          	srl	a5,a2,a3
   22c38:	95be                	add	a1,a1,a5
   22c3a:	0005c783          	lbu	a5,0(a1)
   22c3e:	97b6                	add	a5,a5,a3
   22c40:	02000693          	li	a3,32
   22c44:	40f685b3          	sub	a1,a3,a5
   22c48:	08f69563          	bne	a3,a5,22cd2 <__udivdi3+0x18a>
   22c4c:	40c307b3          	sub	a5,t1,a2
   22c50:	4585                	li	a1,1
   22c52:	01075893          	srl	a7,a4,0x10
   22c56:	0317de33          	divu	t3,a5,a7
   22c5a:	01071613          	sll	a2,a4,0x10
   22c5e:	8241                	srl	a2,a2,0x10
   22c60:	01085693          	srl	a3,a6,0x10
   22c64:	0317f7b3          	remu	a5,a5,a7
   22c68:	8572                	mv	a0,t3
   22c6a:	03c60333          	mul	t1,a2,t3
   22c6e:	07c2                	sll	a5,a5,0x10
   22c70:	8fd5                	or	a5,a5,a3
   22c72:	0067fc63          	bgeu	a5,t1,22c8a <__udivdi3+0x142>
   22c76:	97ba                	add	a5,a5,a4
   22c78:	fffe0513          	add	a0,t3,-1
   22c7c:	00e7e763          	bltu	a5,a4,22c8a <__udivdi3+0x142>
   22c80:	0067f563          	bgeu	a5,t1,22c8a <__udivdi3+0x142>
   22c84:	ffee0513          	add	a0,t3,-2
   22c88:	97ba                	add	a5,a5,a4
   22c8a:	406787b3          	sub	a5,a5,t1
   22c8e:	0317d333          	divu	t1,a5,a7
   22c92:	0842                	sll	a6,a6,0x10
   22c94:	01085813          	srl	a6,a6,0x10
   22c98:	0317f7b3          	remu	a5,a5,a7
   22c9c:	026606b3          	mul	a3,a2,t1
   22ca0:	07c2                	sll	a5,a5,0x10
   22ca2:	00f86833          	or	a6,a6,a5
   22ca6:	879a                	mv	a5,t1
   22ca8:	00d87b63          	bgeu	a6,a3,22cbe <__udivdi3+0x176>
   22cac:	983a                	add	a6,a6,a4
   22cae:	fff30793          	add	a5,t1,-1
   22cb2:	00e86663          	bltu	a6,a4,22cbe <__udivdi3+0x176>
   22cb6:	00d87463          	bgeu	a6,a3,22cbe <__udivdi3+0x176>
   22cba:	ffe30793          	add	a5,t1,-2
   22cbe:	0542                	sll	a0,a0,0x10
   22cc0:	8d5d                	or	a0,a0,a5
   22cc2:	8082                	ret
   22cc4:	010007b7          	lui	a5,0x1000
   22cc8:	46c1                	li	a3,16
   22cca:	f6f665e3          	bltu	a2,a5,22c34 <__udivdi3+0xec>
   22cce:	46e1                	li	a3,24
   22cd0:	b795                	j	22c34 <__udivdi3+0xec>
   22cd2:	00b61733          	sll	a4,a2,a1
   22cd6:	00f356b3          	srl	a3,t1,a5
   22cda:	01075513          	srl	a0,a4,0x10
   22cde:	00b31333          	sll	t1,t1,a1
   22ce2:	00f8d7b3          	srl	a5,a7,a5
   22ce6:	0067e7b3          	or	a5,a5,t1
   22cea:	02a6d333          	divu	t1,a3,a0
   22cee:	01071613          	sll	a2,a4,0x10
   22cf2:	8241                	srl	a2,a2,0x10
   22cf4:	00b89833          	sll	a6,a7,a1
   22cf8:	02a6f6b3          	remu	a3,a3,a0
   22cfc:	026608b3          	mul	a7,a2,t1
   22d00:	01069593          	sll	a1,a3,0x10
   22d04:	0107d693          	srl	a3,a5,0x10
   22d08:	8ecd                	or	a3,a3,a1
   22d0a:	859a                	mv	a1,t1
   22d0c:	0116fc63          	bgeu	a3,a7,22d24 <__udivdi3+0x1dc>
   22d10:	96ba                	add	a3,a3,a4
   22d12:	fff30593          	add	a1,t1,-1
   22d16:	00e6e763          	bltu	a3,a4,22d24 <__udivdi3+0x1dc>
   22d1a:	0116f563          	bgeu	a3,a7,22d24 <__udivdi3+0x1dc>
   22d1e:	ffe30593          	add	a1,t1,-2
   22d22:	96ba                	add	a3,a3,a4
   22d24:	411686b3          	sub	a3,a3,a7
   22d28:	02a6d8b3          	divu	a7,a3,a0
   22d2c:	07c2                	sll	a5,a5,0x10
   22d2e:	83c1                	srl	a5,a5,0x10
   22d30:	02a6f6b3          	remu	a3,a3,a0
   22d34:	03160633          	mul	a2,a2,a7
   22d38:	06c2                	sll	a3,a3,0x10
   22d3a:	8fd5                	or	a5,a5,a3
   22d3c:	86c6                	mv	a3,a7
   22d3e:	00c7fc63          	bgeu	a5,a2,22d56 <__udivdi3+0x20e>
   22d42:	97ba                	add	a5,a5,a4
   22d44:	fff88693          	add	a3,a7,-1
   22d48:	00e7e763          	bltu	a5,a4,22d56 <__udivdi3+0x20e>
   22d4c:	00c7f563          	bgeu	a5,a2,22d56 <__udivdi3+0x20e>
   22d50:	ffe88693          	add	a3,a7,-2
   22d54:	97ba                	add	a5,a5,a4
   22d56:	05c2                	sll	a1,a1,0x10
   22d58:	8f91                	sub	a5,a5,a2
   22d5a:	8dd5                	or	a1,a1,a3
   22d5c:	bddd                	j	22c52 <__udivdi3+0x10a>
   22d5e:	14d5e163          	bltu	a1,a3,22ea0 <__udivdi3+0x358>
   22d62:	67c1                	lui	a5,0x10
   22d64:	02f6ff63          	bgeu	a3,a5,22da2 <__udivdi3+0x25a>
   22d68:	1006b713          	sltiu	a4,a3,256
   22d6c:	00174713          	xor	a4,a4,1
   22d70:	070e                	sll	a4,a4,0x3
   22d72:	000237b7          	lui	a5,0x23
   22d76:	00e6d5b3          	srl	a1,a3,a4
   22d7a:	7ac78793          	add	a5,a5,1964 # 237ac <__clz_tab>
   22d7e:	97ae                	add	a5,a5,a1
   22d80:	0007c783          	lbu	a5,0(a5)
   22d84:	97ba                	add	a5,a5,a4
   22d86:	02000713          	li	a4,32
   22d8a:	40f705b3          	sub	a1,a4,a5
   22d8e:	02f71163          	bne	a4,a5,22db0 <__udivdi3+0x268>
   22d92:	4505                	li	a0,1
   22d94:	e666eee3          	bltu	a3,t1,22c10 <__udivdi3+0xc8>
   22d98:	00c8b533          	sltu	a0,a7,a2
   22d9c:	00154513          	xor	a0,a0,1
   22da0:	8082                	ret
   22da2:	010007b7          	lui	a5,0x1000
   22da6:	4741                	li	a4,16
   22da8:	fcf6e5e3          	bltu	a3,a5,22d72 <__udivdi3+0x22a>
   22dac:	4761                	li	a4,24
   22dae:	b7d1                	j	22d72 <__udivdi3+0x22a>
   22db0:	00f65733          	srl	a4,a2,a5
   22db4:	00b696b3          	sll	a3,a3,a1
   22db8:	8ed9                	or	a3,a3,a4
   22dba:	00f35733          	srl	a4,t1,a5
   22dbe:	00b31333          	sll	t1,t1,a1
   22dc2:	00f8d7b3          	srl	a5,a7,a5
   22dc6:	0067e7b3          	or	a5,a5,t1
   22dca:	0106d313          	srl	t1,a3,0x10
   22dce:	02675eb3          	divu	t4,a4,t1
   22dd2:	01069813          	sll	a6,a3,0x10
   22dd6:	01085813          	srl	a6,a6,0x10
   22dda:	00b61633          	sll	a2,a2,a1
   22dde:	02677733          	remu	a4,a4,t1
   22de2:	03d80e33          	mul	t3,a6,t4
   22de6:	01071513          	sll	a0,a4,0x10
   22dea:	0107d713          	srl	a4,a5,0x10
   22dee:	8f49                	or	a4,a4,a0
   22df0:	8576                	mv	a0,t4
   22df2:	01c77c63          	bgeu	a4,t3,22e0a <__udivdi3+0x2c2>
   22df6:	9736                	add	a4,a4,a3
   22df8:	fffe8513          	add	a0,t4,-1
   22dfc:	00d76763          	bltu	a4,a3,22e0a <__udivdi3+0x2c2>
   22e00:	01c77563          	bgeu	a4,t3,22e0a <__udivdi3+0x2c2>
   22e04:	ffee8513          	add	a0,t4,-2
   22e08:	9736                	add	a4,a4,a3
   22e0a:	41c70733          	sub	a4,a4,t3
   22e0e:	02675e33          	divu	t3,a4,t1
   22e12:	07c2                	sll	a5,a5,0x10
   22e14:	83c1                	srl	a5,a5,0x10
   22e16:	02677733          	remu	a4,a4,t1
   22e1a:	03c80833          	mul	a6,a6,t3
   22e1e:	0742                	sll	a4,a4,0x10
   22e20:	8fd9                	or	a5,a5,a4
   22e22:	8772                	mv	a4,t3
   22e24:	0107fc63          	bgeu	a5,a6,22e3c <__udivdi3+0x2f4>
   22e28:	97b6                	add	a5,a5,a3
   22e2a:	fffe0713          	add	a4,t3,-1
   22e2e:	00d7e763          	bltu	a5,a3,22e3c <__udivdi3+0x2f4>
   22e32:	0107f563          	bgeu	a5,a6,22e3c <__udivdi3+0x2f4>
   22e36:	ffee0713          	add	a4,t3,-2
   22e3a:	97b6                	add	a5,a5,a3
   22e3c:	0542                	sll	a0,a0,0x10
   22e3e:	6e41                	lui	t3,0x10
   22e40:	8d59                	or	a0,a0,a4
   22e42:	fffe0693          	add	a3,t3,-1 # ffff <boot_program+0xffff>
   22e46:	00d57733          	and	a4,a0,a3
   22e4a:	410787b3          	sub	a5,a5,a6
   22e4e:	8ef1                	and	a3,a3,a2
   22e50:	01055813          	srl	a6,a0,0x10
   22e54:	8241                	srl	a2,a2,0x10
   22e56:	02d70333          	mul	t1,a4,a3
   22e5a:	02d806b3          	mul	a3,a6,a3
   22e5e:	02c70733          	mul	a4,a4,a2
   22e62:	02c80833          	mul	a6,a6,a2
   22e66:	00d70633          	add	a2,a4,a3
   22e6a:	01035713          	srl	a4,t1,0x10
   22e6e:	9732                	add	a4,a4,a2
   22e70:	00d77363          	bgeu	a4,a3,22e76 <__udivdi3+0x32e>
   22e74:	9872                	add	a6,a6,t3
   22e76:	01075693          	srl	a3,a4,0x10
   22e7a:	96c2                	add	a3,a3,a6
   22e7c:	02d7e063          	bltu	a5,a3,22e9c <__udivdi3+0x354>
   22e80:	d8d797e3          	bne	a5,a3,22c0e <__udivdi3+0xc6>
   22e84:	67c1                	lui	a5,0x10
   22e86:	17fd                	add	a5,a5,-1 # ffff <boot_program+0xffff>
   22e88:	8f7d                	and	a4,a4,a5
   22e8a:	0742                	sll	a4,a4,0x10
   22e8c:	00f37333          	and	t1,t1,a5
   22e90:	00b898b3          	sll	a7,a7,a1
   22e94:	971a                	add	a4,a4,t1
   22e96:	4581                	li	a1,0
   22e98:	d6e8fce3          	bgeu	a7,a4,22c10 <__udivdi3+0xc8>
   22e9c:	157d                	add	a0,a0,-1 # ffffff <_ZN9SerialOut6statusE+0xfdc0f7>
   22e9e:	bb85                	j	22c0e <__udivdi3+0xc6>
   22ea0:	4581                	li	a1,0
   22ea2:	4501                	li	a0,0
   22ea4:	8082                	ret

00022ea6 <__divsf3>:
   22ea6:	1101                	add	sp,sp,-32
   22ea8:	ca26                	sw	s1,20(sp)
   22eaa:	01755493          	srl	s1,a0,0x17
   22eae:	c84a                	sw	s2,16(sp)
   22eb0:	c64e                	sw	s3,12(sp)
   22eb2:	c452                	sw	s4,8(sp)
   22eb4:	00951713          	sll	a4,a0,0x9
   22eb8:	ce06                	sw	ra,28(sp)
   22eba:	cc22                	sw	s0,24(sp)
   22ebc:	c256                	sw	s5,4(sp)
   22ebe:	0ff4f493          	zext.b	s1,s1
   22ec2:	8a2e                	mv	s4,a1
   22ec4:	00975993          	srl	s3,a4,0x9
   22ec8:	01f55913          	srl	s2,a0,0x1f
   22ecc:	c4ad                	beqz	s1,22f36 <__divsf3+0x90>
   22ece:	0ff00793          	li	a5,255
   22ed2:	06f48e63          	beq	s1,a5,22f4e <__divsf3+0xa8>
   22ed6:	00399713          	sll	a4,s3,0x3
   22eda:	040007b7          	lui	a5,0x4000
   22ede:	00f769b3          	or	s3,a4,a5
   22ee2:	f8148493          	add	s1,s1,-127
   22ee6:	4a81                	li	s5,0
   22ee8:	017a5793          	srl	a5,s4,0x17
   22eec:	009a1413          	sll	s0,s4,0x9
   22ef0:	0ff7f793          	zext.b	a5,a5
   22ef4:	8025                	srl	s0,s0,0x9
   22ef6:	01fa5a13          	srl	s4,s4,0x1f
   22efa:	c7a5                	beqz	a5,22f62 <__divsf3+0xbc>
   22efc:	0ff00713          	li	a4,255
   22f00:	06e78c63          	beq	a5,a4,22f78 <__divsf3+0xd2>
   22f04:	040e                	sll	s0,s0,0x3
   22f06:	04000737          	lui	a4,0x4000
   22f0a:	8c59                	or	s0,s0,a4
   22f0c:	f8178793          	add	a5,a5,-127 # 3ffff81 <_ZN9SerialOut6statusE+0x3fdc079>
   22f10:	4681                	li	a3,0
   22f12:	8c9d                	sub	s1,s1,a5
   22f14:	002a9793          	sll	a5,s5,0x2
   22f18:	8fd5                	or	a5,a5,a3
   22f1a:	17fd                	add	a5,a5,-1
   22f1c:	4739                	li	a4,14
   22f1e:	01494633          	xor	a2,s2,s4
   22f22:	08f76363          	bltu	a4,a5,22fa8 <__divsf3+0x102>
   22f26:	00023737          	lui	a4,0x23
   22f2a:	078a                	sll	a5,a5,0x2
   22f2c:	77070713          	add	a4,a4,1904 # 23770 <__clzsi2+0x548>
   22f30:	97ba                	add	a5,a5,a4
   22f32:	439c                	lw	a5,0(a5)
   22f34:	8782                	jr	a5
   22f36:	02098363          	beqz	s3,22f5c <__divsf3+0xb6>
   22f3a:	854e                	mv	a0,s3
   22f3c:	24f5                	jal	23228 <__clzsi2>
   22f3e:	ffb50793          	add	a5,a0,-5
   22f42:	f8a00493          	li	s1,-118
   22f46:	00f999b3          	sll	s3,s3,a5
   22f4a:	8c89                	sub	s1,s1,a0
   22f4c:	bf69                	j	22ee6 <__divsf3+0x40>
   22f4e:	0ff00493          	li	s1,255
   22f52:	4a8d                	li	s5,3
   22f54:	f8099ae3          	bnez	s3,22ee8 <__divsf3+0x42>
   22f58:	4a89                	li	s5,2
   22f5a:	b779                	j	22ee8 <__divsf3+0x42>
   22f5c:	4481                	li	s1,0
   22f5e:	4a85                	li	s5,1
   22f60:	b761                	j	22ee8 <__divsf3+0x42>
   22f62:	c00d                	beqz	s0,22f84 <__divsf3+0xde>
   22f64:	8522                	mv	a0,s0
   22f66:	24c9                	jal	23228 <__clzsi2>
   22f68:	ffb50793          	add	a5,a0,-5
   22f6c:	00f41433          	sll	s0,s0,a5
   22f70:	f8a00793          	li	a5,-118
   22f74:	8f89                	sub	a5,a5,a0
   22f76:	bf69                	j	22f10 <__divsf3+0x6a>
   22f78:	0ff00793          	li	a5,255
   22f7c:	468d                	li	a3,3
   22f7e:	f851                	bnez	s0,22f12 <__divsf3+0x6c>
   22f80:	4689                	li	a3,2
   22f82:	bf41                	j	22f12 <__divsf3+0x6c>
   22f84:	4781                	li	a5,0
   22f86:	4685                	li	a3,1
   22f88:	b769                	j	22f12 <__divsf3+0x6c>
   22f8a:	864a                	mv	a2,s2
   22f8c:	844e                	mv	s0,s3
   22f8e:	86d6                	mv	a3,s5
   22f90:	4789                	li	a5,2
   22f92:	14f68a63          	beq	a3,a5,230e6 <__divsf3+0x240>
   22f96:	478d                	li	a5,3
   22f98:	14f68163          	beq	a3,a5,230da <__divsf3+0x234>
   22f9c:	4785                	li	a5,1
   22f9e:	08f69763          	bne	a3,a5,2302c <__divsf3+0x186>
   22fa2:	4781                	li	a5,0
   22fa4:	4701                	li	a4,0
   22fa6:	a0c1                	j	23066 <__divsf3+0x1c0>
   22fa8:	00541593          	sll	a1,s0,0x5
   22fac:	0c89fd63          	bgeu	s3,s0,23086 <__divsf3+0x1e0>
   22fb0:	14fd                	add	s1,s1,-1
   22fb2:	4781                	li	a5,0
   22fb4:	0105d513          	srl	a0,a1,0x10
   22fb8:	02a9d8b3          	divu	a7,s3,a0
   22fbc:	66c1                	lui	a3,0x10
   22fbe:	16fd                	add	a3,a3,-1 # ffff <boot_program+0xffff>
   22fc0:	8eed                	and	a3,a3,a1
   22fc2:	83c1                	srl	a5,a5,0x10
   22fc4:	02a9f733          	remu	a4,s3,a0
   22fc8:	8446                	mv	s0,a7
   22fca:	03168833          	mul	a6,a3,a7
   22fce:	0742                	sll	a4,a4,0x10
   22fd0:	8fd9                	or	a5,a5,a4
   22fd2:	0107fc63          	bgeu	a5,a6,22fea <__divsf3+0x144>
   22fd6:	97ae                	add	a5,a5,a1
   22fd8:	fff88413          	add	s0,a7,-1
   22fdc:	00b7e763          	bltu	a5,a1,22fea <__divsf3+0x144>
   22fe0:	0107f563          	bgeu	a5,a6,22fea <__divsf3+0x144>
   22fe4:	ffe88413          	add	s0,a7,-2
   22fe8:	97ae                	add	a5,a5,a1
   22fea:	410787b3          	sub	a5,a5,a6
   22fee:	02a7d833          	divu	a6,a5,a0
   22ff2:	02a7f7b3          	remu	a5,a5,a0
   22ff6:	03068733          	mul	a4,a3,a6
   22ffa:	07c2                	sll	a5,a5,0x10
   22ffc:	86c2                	mv	a3,a6
   22ffe:	02e7f163          	bgeu	a5,a4,23020 <__divsf3+0x17a>
   23002:	00b78533          	add	a0,a5,a1
   23006:	00f538b3          	sltu	a7,a0,a5
   2300a:	fff80693          	add	a3,a6,-1
   2300e:	87aa                	mv	a5,a0
   23010:	00089863          	bnez	a7,23020 <__divsf3+0x17a>
   23014:	00e57663          	bgeu	a0,a4,23020 <__divsf3+0x17a>
   23018:	ffe80693          	add	a3,a6,-2
   2301c:	00b507b3          	add	a5,a0,a1
   23020:	0442                	sll	s0,s0,0x10
   23022:	8f99                	sub	a5,a5,a4
   23024:	8c55                	or	s0,s0,a3
   23026:	00f037b3          	snez	a5,a5
   2302a:	8c5d                	or	s0,s0,a5
   2302c:	07f48713          	add	a4,s1,127
   23030:	06e05263          	blez	a4,23094 <__divsf3+0x1ee>
   23034:	00747793          	and	a5,s0,7
   23038:	c799                	beqz	a5,23046 <__divsf3+0x1a0>
   2303a:	00f47793          	and	a5,s0,15
   2303e:	4691                	li	a3,4
   23040:	00d78363          	beq	a5,a3,23046 <__divsf3+0x1a0>
   23044:	0411                	add	s0,s0,4
   23046:	080007b7          	lui	a5,0x8000
   2304a:	8fe1                	and	a5,a5,s0
   2304c:	c799                	beqz	a5,2305a <__divsf3+0x1b4>
   2304e:	f80007b7          	lui	a5,0xf8000
   23052:	17fd                	add	a5,a5,-1 # f7ffffff <_ZN9SerialOut6statusE+0xf7fdc0f7>
   23054:	8c7d                	and	s0,s0,a5
   23056:	08048713          	add	a4,s1,128
   2305a:	0fe00793          	li	a5,254
   2305e:	08e7c463          	blt	a5,a4,230e6 <__divsf3+0x240>
   23062:	00345793          	srl	a5,s0,0x3
   23066:	40f2                	lw	ra,28(sp)
   23068:	4462                	lw	s0,24(sp)
   2306a:	07a6                	sll	a5,a5,0x9
   2306c:	075e                	sll	a4,a4,0x17
   2306e:	83a5                	srl	a5,a5,0x9
   23070:	8f5d                	or	a4,a4,a5
   23072:	01f61513          	sll	a0,a2,0x1f
   23076:	44d2                	lw	s1,20(sp)
   23078:	4942                	lw	s2,16(sp)
   2307a:	49b2                	lw	s3,12(sp)
   2307c:	4a22                	lw	s4,8(sp)
   2307e:	4a92                	lw	s5,4(sp)
   23080:	8d59                	or	a0,a0,a4
   23082:	6105                	add	sp,sp,32
   23084:	8082                	ret
   23086:	01f99793          	sll	a5,s3,0x1f
   2308a:	0019d993          	srl	s3,s3,0x1
   2308e:	b71d                	j	22fb4 <__divsf3+0x10e>
   23090:	8652                	mv	a2,s4
   23092:	bdfd                	j	22f90 <__divsf3+0xea>
   23094:	4685                	li	a3,1
   23096:	c719                	beqz	a4,230a4 <__divsf3+0x1fe>
   23098:	8e99                	sub	a3,a3,a4
   2309a:	45ed                	li	a1,27
   2309c:	4781                	li	a5,0
   2309e:	4701                	li	a4,0
   230a0:	fcd5c3e3          	blt	a1,a3,23066 <__divsf3+0x1c0>
   230a4:	09e48493          	add	s1,s1,158
   230a8:	00d456b3          	srl	a3,s0,a3
   230ac:	00941433          	sll	s0,s0,s1
   230b0:	00803433          	snez	s0,s0
   230b4:	0086e7b3          	or	a5,a3,s0
   230b8:	0077f713          	and	a4,a5,7
   230bc:	c719                	beqz	a4,230ca <__divsf3+0x224>
   230be:	00f7f713          	and	a4,a5,15
   230c2:	4691                	li	a3,4
   230c4:	00d70363          	beq	a4,a3,230ca <__divsf3+0x224>
   230c8:	0791                	add	a5,a5,4
   230ca:	04000737          	lui	a4,0x4000
   230ce:	8f7d                	and	a4,a4,a5
   230d0:	838d                	srl	a5,a5,0x3
   230d2:	db51                	beqz	a4,23066 <__divsf3+0x1c0>
   230d4:	4781                	li	a5,0
   230d6:	4705                	li	a4,1
   230d8:	b779                	j	23066 <__divsf3+0x1c0>
   230da:	004007b7          	lui	a5,0x400
   230de:	0ff00713          	li	a4,255
   230e2:	4601                	li	a2,0
   230e4:	b749                	j	23066 <__divsf3+0x1c0>
   230e6:	4781                	li	a5,0
   230e8:	0ff00713          	li	a4,255
   230ec:	bfad                	j	23066 <__divsf3+0x1c0>

000230ee <__floatundisf>:
   230ee:	1101                	add	sp,sp,-32
   230f0:	ce06                	sw	ra,28(sp)
   230f2:	cc22                	sw	s0,24(sp)
   230f4:	ca26                	sw	s1,20(sp)
   230f6:	c84a                	sw	s2,16(sp)
   230f8:	c64e                	sw	s3,12(sp)
   230fa:	c452                	sw	s4,8(sp)
   230fc:	00b567b3          	or	a5,a0,a1
   23100:	c7f1                	beqz	a5,231cc <__floatundisf+0xde>
   23102:	8a2a                	mv	s4,a0
   23104:	89ae                	mv	s3,a1
   23106:	c1bd                	beqz	a1,2316c <__floatundisf+0x7e>
   23108:	852e                	mv	a0,a1
   2310a:	2a39                	jal	23228 <__clzsi2>
   2310c:	0be00493          	li	s1,190
   23110:	892a                	mv	s2,a0
   23112:	8c89                	sub	s1,s1,a0
   23114:	01b90613          	add	a2,s2,27
   23118:	8552                	mv	a0,s4
   2311a:	85ce                	mv	a1,s3
   2311c:	20d5                	jal	23200 <__ashldi3>
   2311e:	02500613          	li	a2,37
   23122:	00b56433          	or	s0,a0,a1
   23126:	41260633          	sub	a2,a2,s2
   2312a:	8552                	mv	a0,s4
   2312c:	85ce                	mv	a1,s3
   2312e:	00803433          	snez	s0,s0
   23132:	205d                	jal	231d8 <__lshrdi3>
   23134:	8c49                	or	s0,s0,a0
   23136:	fc0007b7          	lui	a5,0xfc000
   2313a:	17fd                	add	a5,a5,-1 # fbffffff <_ZN9SerialOut6statusE+0xfbfdc0f7>
   2313c:	00747713          	and	a4,s0,7
   23140:	8fe1                	and	a5,a5,s0
   23142:	c711                	beqz	a4,2314e <__floatundisf+0x60>
   23144:	883d                	and	s0,s0,15
   23146:	4711                	li	a4,4
   23148:	00e40363          	beq	s0,a4,2314e <__floatundisf+0x60>
   2314c:	0791                	add	a5,a5,4
   2314e:	04000737          	lui	a4,0x4000
   23152:	8f7d                	and	a4,a4,a5
   23154:	cb09                	beqz	a4,23166 <__floatundisf+0x78>
   23156:	fc000737          	lui	a4,0xfc000
   2315a:	177d                	add	a4,a4,-1 # fbffffff <_ZN9SerialOut6statusE+0xfbfdc0f7>
   2315c:	0bf00493          	li	s1,191
   23160:	8ff9                	and	a5,a5,a4
   23162:	412484b3          	sub	s1,s1,s2
   23166:	0037d413          	srl	s0,a5,0x3
   2316a:	a025                	j	23192 <__floatundisf+0xa4>
   2316c:	842a                	mv	s0,a0
   2316e:	286d                	jal	23228 <__clzsi2>
   23170:	02050913          	add	s2,a0,32
   23174:	0be00493          	li	s1,190
   23178:	412484b3          	sub	s1,s1,s2
   2317c:	09600793          	li	a5,150
   23180:	0297c663          	blt	a5,s1,231ac <__floatundisf+0xbe>
   23184:	02800793          	li	a5,40
   23188:	04f90563          	beq	s2,a5,231d2 <__floatundisf+0xe4>
   2318c:	1561                	add	a0,a0,-8
   2318e:	00aa1433          	sll	s0,s4,a0
   23192:	0426                	sll	s0,s0,0x9
   23194:	01749513          	sll	a0,s1,0x17
   23198:	8025                	srl	s0,s0,0x9
   2319a:	40f2                	lw	ra,28(sp)
   2319c:	8d41                	or	a0,a0,s0
   2319e:	4462                	lw	s0,24(sp)
   231a0:	44d2                	lw	s1,20(sp)
   231a2:	4942                	lw	s2,16(sp)
   231a4:	49b2                	lw	s3,12(sp)
   231a6:	4a22                	lw	s4,8(sp)
   231a8:	6105                	add	sp,sp,32
   231aa:	8082                	ret
   231ac:	09900793          	li	a5,153
   231b0:	f697c2e3          	blt	a5,s1,23114 <__floatundisf+0x26>
   231b4:	02500713          	li	a4,37
   231b8:	ffb50793          	add	a5,a0,-5
   231bc:	00e90563          	beq	s2,a4,231c6 <__floatundisf+0xd8>
   231c0:	00fa1433          	sll	s0,s4,a5
   231c4:	bf8d                	j	23136 <__floatundisf+0x48>
   231c6:	09900493          	li	s1,153
   231ca:	b7b5                	j	23136 <__floatundisf+0x48>
   231cc:	4401                	li	s0,0
   231ce:	4481                	li	s1,0
   231d0:	b7c9                	j	23192 <__floatundisf+0xa4>
   231d2:	09600493          	li	s1,150
   231d6:	bf75                	j	23192 <__floatundisf+0xa4>

000231d8 <__lshrdi3>:
   231d8:	ca19                	beqz	a2,231ee <__lshrdi3+0x16>
   231da:	02000793          	li	a5,32
   231de:	8f91                	sub	a5,a5,a2
   231e0:	00f04863          	bgtz	a5,231f0 <__lshrdi3+0x18>
   231e4:	1601                	add	a2,a2,-32
   231e6:	00c5d533          	srl	a0,a1,a2
   231ea:	4701                	li	a4,0
   231ec:	85ba                	mv	a1,a4
   231ee:	8082                	ret
   231f0:	00c5d733          	srl	a4,a1,a2
   231f4:	00c55533          	srl	a0,a0,a2
   231f8:	00f595b3          	sll	a1,a1,a5
   231fc:	8d4d                	or	a0,a0,a1
   231fe:	b7fd                	j	231ec <__lshrdi3+0x14>

00023200 <__ashldi3>:
   23200:	ca19                	beqz	a2,23216 <__ashldi3+0x16>
   23202:	02000793          	li	a5,32
   23206:	8f91                	sub	a5,a5,a2
   23208:	00f04863          	bgtz	a5,23218 <__ashldi3+0x18>
   2320c:	1601                	add	a2,a2,-32
   2320e:	00c515b3          	sll	a1,a0,a2
   23212:	4701                	li	a4,0
   23214:	853a                	mv	a0,a4
   23216:	8082                	ret
   23218:	00c51733          	sll	a4,a0,a2
   2321c:	00c595b3          	sll	a1,a1,a2
   23220:	00f55533          	srl	a0,a0,a5
   23224:	8dc9                	or	a1,a1,a0
   23226:	b7fd                	j	23214 <__ashldi3+0x14>

00023228 <__clzsi2>:
   23228:	67c1                	lui	a5,0x10
   2322a:	02f57663          	bgeu	a0,a5,23256 <__clzsi2+0x2e>
   2322e:	10053793          	sltiu	a5,a0,256
   23232:	0017c793          	xor	a5,a5,1
   23236:	078e                	sll	a5,a5,0x3
   23238:	00023737          	lui	a4,0x23
   2323c:	02000693          	li	a3,32
   23240:	8e9d                	sub	a3,a3,a5
   23242:	00f55533          	srl	a0,a0,a5
   23246:	7ac70793          	add	a5,a4,1964 # 237ac <__clz_tab>
   2324a:	97aa                	add	a5,a5,a0
   2324c:	0007c503          	lbu	a0,0(a5) # 10000 <boot_program+0x10000>
   23250:	40a68533          	sub	a0,a3,a0
   23254:	8082                	ret
   23256:	01000737          	lui	a4,0x1000
   2325a:	47c1                	li	a5,16
   2325c:	fce56ee3          	bltu	a0,a4,23238 <__clzsi2+0x10>
   23260:	47e1                	li	a5,24
   23262:	bfd9                	j	23238 <__clzsi2+0x10>
