
output.elf:     file format elf32-littleriscv


Disassembly of section .boot:

00000000 <boot_program>:
   0:	00025137          	.word	0x00025137
   4:	80010113          	.word	0x80010113
   8:	00800293          	.word	0x00800293
   c:	3002a073          	.word	0x3002a073
  10:	fff00293          	.word	0xfff00293
  14:	3042a073          	.word	0x3042a073
  18:	66d200ef          	.word	0x66d200ef
  1c:	c0001073          	.word	0xc0001073

Disassembly of section .text:

00020800 <_Z11getRegisterhPKcR8Ethernet>:
   20800:	00062703          	lw	a4,0(a2)
   20804:	fd010113          	add	sp,sp,-48
   20808:	02812423          	sw	s0,40(sp)
   2080c:	20e547b3          	sh2add	a5,a0,a4
   20810:	0007a403          	lw	s0,0(a5)
   20814:	00058513          	mv	a0,a1
   20818:	02112623          	sw	ra,44(sp)
   2081c:	01041413          	sll	s0,s0,0x10
   20820:	710010ef          	jal	21f30 <_ZN9SerialOut6printfEPKcz>
   20824:	01045413          	srl	s0,s0,0x10
   20828:	00010e23          	sb	zero,28(sp)
   2082c:	00c10513          	add	a0,sp,12
   20830:	01b10793          	add	a5,sp,27
   20834:	00147713          	and	a4,s0,1
   20838:	03070713          	add	a4,a4,48
   2083c:	00e78023          	sb	a4,0(a5)
   20840:	00078713          	mv	a4,a5
   20844:	00145413          	srl	s0,s0,0x1
   20848:	fff78793          	add	a5,a5,-1
   2084c:	fee514e3          	bne	a0,a4,20834 <_Z11getRegisterhPKcR8Ethernet+0x34>
   20850:	694010ef          	jal	21ee4 <_ZN9SerialOut7printlnEPKcz>
   20854:	02c12083          	lw	ra,44(sp)
   20858:	02812403          	lw	s0,40(sp)
   2085c:	03010113          	add	sp,sp,48
   20860:	00008067          	ret

00020864 <_Z10packetLoopR4GPIOR8EthernetNS1_9macAddr_sEtb>:
   20864:	f9010113          	add	sp,sp,-112
   20868:	00010ca3          	sb	zero,25(sp)
   2086c:	06912223          	sw	s1,100(sp)
   20870:	07212023          	sw	s2,96(sp)
   20874:	05412c23          	sw	s4,88(sp)
   20878:	05712623          	sw	s7,76(sp)
   2087c:	05812423          	sw	s8,72(sp)
   20880:	05912223          	sw	s9,68(sp)
   20884:	05a12023          	sw	s10,64(sp)
   20888:	06112623          	sw	ra,108(sp)
   2088c:	06812423          	sw	s0,104(sp)
   20890:	00050913          	mv	s2,a0
   20894:	00058493          	mv	s1,a1
   20898:	00c12423          	sw	a2,8(sp)
   2089c:	00d12623          	sw	a3,12(sp)
   208a0:	00e12223          	sw	a4,4(sp)
   208a4:	00078a13          	mv	s4,a5
   208a8:	00010c23          	sb	zero,24(sp)
   208ac:	00012e23          	sw	zero,28(sp)
   208b0:	00023d37          	lui	s10,0x23
   208b4:	00900b93          	li	s7,9
   208b8:	00023c37          	lui	s8,0x23
   208bc:	00024cb7          	lui	s9,0x24
   208c0:	00400593          	li	a1,4
   208c4:	00090513          	mv	a0,s2
   208c8:	760010ef          	jal	22028 <_ZN4GPIO11getPinValueEm>
   208cc:	06051c63          	bnez	a0,20944 <_Z10packetLoopR4GPIOR8EthernetNS1_9macAddr_sEtb+0xe0>
   208d0:	00048513          	mv	a0,s1
   208d4:	495010ef          	jal	22568 <_ZN8Ethernet11isReceivingEv>
   208d8:	00a10ca3          	sb	a0,25(sp)
   208dc:	01814783          	lbu	a5,24(sp)
   208e0:	01914703          	lbu	a4,25(sp)
   208e4:	0017c793          	xor	a5,a5,1
   208e8:	0ff77713          	zext.b	a4,a4
   208ec:	08078263          	beqz	a5,20970 <_Z10packetLoopR4GPIOR8EthernetNS1_9macAddr_sEtb+0x10c>
   208f0:	08070063          	beqz	a4,20970 <_Z10packetLoopR4GPIOR8EthernetNS1_9macAddr_sEtb+0x10c>
   208f4:	57cc0513          	add	a0,s8,1404 # 2357c <__clzsi2+0x3c>
   208f8:	5ec010ef          	jal	21ee4 <_ZN9SerialOut7printlnEPKcz>
   208fc:	00812683          	lw	a3,8(sp)
   20900:	00c12703          	lw	a4,12(sp)
   20904:	0c0a0a63          	beqz	s4,209d8 <_Z10packetLoopR4GPIOR8EthernetNS1_9macAddr_sEtb+0x174>
   20908:	00412783          	lw	a5,4(sp)
   2090c:	01c10813          	add	a6,sp,28
   20910:	14500613          	li	a2,325
   20914:	bfcc8593          	add	a1,s9,-1028 # 23bfc <TX_payload>
   20918:	00048513          	mv	a0,s1
   2091c:	661010ef          	jal	2277c <_ZN8Ethernet9sendFrameEPKhmNS_9macAddr_sEtPNS_10ethError_eE>
   20920:	01c12783          	lw	a5,28(sp)
   20924:	0c079863          	bnez	a5,209f4 <_Z10packetLoopR4GPIOR8EthernetNS1_9macAddr_sEtb+0x190>
   20928:	01914783          	lbu	a5,25(sp)
   2092c:	00400593          	li	a1,4
   20930:	00090513          	mv	a0,s2
   20934:	0ff7f793          	zext.b	a5,a5
   20938:	00f10c23          	sb	a5,24(sp)
   2093c:	6ec010ef          	jal	22028 <_ZN4GPIO11getPinValueEm>
   20940:	f80508e3          	beqz	a0,208d0 <_Z10packetLoopR4GPIOR8EthernetNS1_9macAddr_sEtb+0x6c>
   20944:	06c12083          	lw	ra,108(sp)
   20948:	06812403          	lw	s0,104(sp)
   2094c:	06412483          	lw	s1,100(sp)
   20950:	06012903          	lw	s2,96(sp)
   20954:	05812a03          	lw	s4,88(sp)
   20958:	04c12b83          	lw	s7,76(sp)
   2095c:	04812c03          	lw	s8,72(sp)
   20960:	04412c83          	lw	s9,68(sp)
   20964:	04012d03          	lw	s10,64(sp)
   20968:	07010113          	add	sp,sp,112
   2096c:	00008067          	ret
   20970:	01814703          	lbu	a4,24(sp)
   20974:	01914783          	lbu	a5,25(sp)
   20978:	0ff77713          	zext.b	a4,a4
   2097c:	0017c793          	xor	a5,a5,1
   20980:	fa0784e3          	beqz	a5,20928 <_Z10packetLoopR4GPIOR8EthernetNS1_9macAddr_sEtb+0xc4>
   20984:	fa0702e3          	beqz	a4,20928 <_Z10packetLoopR4GPIOR8EthernetNS1_9macAddr_sEtb+0xc4>
   20988:	5a8d0513          	add	a0,s10,1448 # 235a8 <__clzsi2+0x68>
   2098c:	558010ef          	jal	21ee4 <_ZN9SerialOut7printlnEPKcz>
   20990:	00048513          	mv	a0,s1
   20994:	000020ef          	jal	22994 <_ZN8Ethernet15getRxDescriptorEv>
   20998:	02a12023          	sw	a0,32(sp)
   2099c:	02b12223          	sw	a1,36(sp)
   209a0:	02015603          	lhu	a2,32(sp)
   209a4:	00024437          	lui	s0,0x24
   209a8:	040a0e63          	beqz	s4,20a04 <_Z10packetLoopR4GPIOR8EthernetNS1_9macAddr_sEtb+0x1a0>
   209ac:	01c10713          	add	a4,sp,28
   209b0:	01a10693          	add	a3,sp,26
   209b4:	d4440593          	add	a1,s0,-700 # 23d44 <RX_payload>
   209b8:	00048513          	mv	a0,s1
   209bc:	759010ef          	jal	22914 <_ZN8Ethernet12receiveFrameEPhmPtPNS_10ethError_eE>
   209c0:	01c12783          	lw	a5,28(sp)
   209c4:	04078c63          	beqz	a5,20a1c <_Z10packetLoopR4GPIOR8EthernetNS1_9macAddr_sEtb+0x1b8>
   209c8:	000237b7          	lui	a5,0x23
   209cc:	5b878513          	add	a0,a5,1464 # 235b8 <__clzsi2+0x78>
   209d0:	514010ef          	jal	21ee4 <_ZN9SerialOut7printlnEPKcz>
   209d4:	eedff06f          	j	208c0 <_Z10packetLoopR4GPIOR8EthernetNS1_9macAddr_sEtb+0x5c>
   209d8:	01c10793          	add	a5,sp,28
   209dc:	14500613          	li	a2,325
   209e0:	bfcc8593          	add	a1,s9,-1028
   209e4:	00048513          	mv	a0,s1
   209e8:	47d010ef          	jal	22664 <_ZN8Ethernet9sendFrameEPKhmNS_9macAddr_sEPNS_10ethError_eE>
   209ec:	01c12783          	lw	a5,28(sp)
   209f0:	f2078ce3          	beqz	a5,20928 <_Z10packetLoopR4GPIOR8EthernetNS1_9macAddr_sEtb+0xc4>
   209f4:	00023537          	lui	a0,0x23
   209f8:	59450513          	add	a0,a0,1428 # 23594 <__clzsi2+0x54>
   209fc:	4e8010ef          	jal	21ee4 <_ZN9SerialOut7printlnEPKcz>
   20a00:	ec1ff06f          	j	208c0 <_Z10packetLoopR4GPIOR8EthernetNS1_9macAddr_sEtb+0x5c>
   20a04:	01c10693          	add	a3,sp,28
   20a08:	d4440593          	add	a1,s0,-700
   20a0c:	00048513          	mv	a0,s1
   20a10:	69d010ef          	jal	228ac <_ZN8Ethernet12receiveFrameEPhmPNS_10ethError_eE>
   20a14:	01c12783          	lw	a5,28(sp)
   20a18:	fa0798e3          	bnez	a5,209c8 <_Z10packetLoopR4GPIOR8EthernetNS1_9macAddr_sEtb+0x164>
   20a1c:	00023537          	lui	a0,0x23
   20a20:	5cc50513          	add	a0,a0,1484 # 235cc <__clzsi2+0x8c>
   20a24:	05312e23          	sw	s3,92(sp)
   20a28:	05512a23          	sw	s5,84(sp)
   20a2c:	05612823          	sw	s6,80(sp)
   20a30:	03b12e23          	sw	s11,60(sp)
   20a34:	00900993          	li	s3,9
   20a38:	4f8010ef          	jal	21f30 <_ZN9SerialOut6printfEPKcz>
   20a3c:	00500d93          	li	s11,5
   20a40:	fff00b13          	li	s6,-1
   20a44:	00023ab7          	lui	s5,0x23
   20a48:	030d8793          	add	a5,s11,48
   20a4c:	002787b3          	add	a5,a5,sp
   20a50:	ff27c783          	lbu	a5,-14(a5)
   20a54:	00200593          	li	a1,2
   20a58:	02810513          	add	a0,sp,40
   20a5c:	00f7f693          	and	a3,a5,15
   20a60:	03068713          	add	a4,a3,48
   20a64:	0047d793          	srl	a5,a5,0x4
   20a68:	00d9f463          	bgeu	s3,a3,20a70 <_Z10packetLoopR4GPIOR8EthernetNS1_9macAddr_sEtb+0x20c>
   20a6c:	03768713          	add	a4,a3,55
   20a70:	00871693          	sll	a3,a4,0x8
   20a74:	03078713          	add	a4,a5,48
   20a78:	00f9f463          	bgeu	s3,a5,20a80 <_Z10packetLoopR4GPIOR8EthernetNS1_9macAddr_sEtb+0x21c>
   20a7c:	03778713          	add	a4,a5,55
   20a80:	00d76733          	or	a4,a4,a3
   20a84:	02e11423          	sh	a4,40(sp)
   20a88:	3c9000ef          	jal	21650 <_ZN9SerialOut5writeEPKcm>
   20a8c:	00000513          	li	a0,0
   20a90:	39d000ef          	jal	2162c <_ZN9SerialOut5writeEc>
   20a94:	fffd8d93          	add	s11,s11,-1
   20a98:	5fca8513          	add	a0,s5,1532 # 235fc <__clzsi2+0xbc>
   20a9c:	016d8663          	beq	s11,s6,20aa8 <_Z10packetLoopR4GPIOR8EthernetNS1_9macAddr_sEtb+0x244>
   20aa0:	490010ef          	jal	21f30 <_ZN9SerialOut6printfEPKcz>
   20aa4:	fa5ff06f          	j	20a48 <_Z10packetLoopR4GPIOR8EthernetNS1_9macAddr_sEtb+0x1e4>
   20aa8:	000237b7          	lui	a5,0x23
   20aac:	5f078513          	add	a0,a5,1520 # 235f0 <__clzsi2+0xb0>
   20ab0:	480010ef          	jal	21f30 <_ZN9SerialOut6printfEPKcz>
   20ab4:	02015783          	lhu	a5,32(sp)
   20ab8:	02810613          	add	a2,sp,40
   20abc:	0087d713          	srl	a4,a5,0x8
   20ac0:	00c7d693          	srl	a3,a5,0xc
   20ac4:	00f77713          	and	a4,a4,15
   20ac8:	00068793          	mv	a5,a3
   20acc:	3aebf863          	bgeu	s7,a4,20e7c <_Z10packetLoopR4GPIOR8EthernetNS1_9macAddr_sEtb+0x618>
   20ad0:	03770713          	add	a4,a4,55
   20ad4:	22dbdc63          	bge	s7,a3,20d0c <_Z10packetLoopR4GPIOR8EthernetNS1_9macAddr_sEtb+0x4a8>
   20ad8:	03778793          	add	a5,a5,55
   20adc:	00879793          	sll	a5,a5,0x8
   20ae0:	00f76733          	or	a4,a4,a5
   20ae4:	02810693          	add	a3,sp,40
   20ae8:	00e69023          	sh	a4,0(a3)
   20aec:	03010593          	add	a1,sp,48
   20af0:	00268693          	add	a3,a3,2
   20af4:	03000713          	li	a4,48
   20af8:	00000793          	li	a5,0
   20afc:	02d58463          	beq	a1,a3,20b24 <_Z10packetLoopR4GPIOR8EthernetNS1_9macAddr_sEtb+0x2c0>
   20b00:	03078793          	add	a5,a5,48
   20b04:	00879793          	sll	a5,a5,0x8
   20b08:	00f76733          	or	a4,a4,a5
   20b0c:	00e69023          	sh	a4,0(a3)
   20b10:	03010593          	add	a1,sp,48
   20b14:	00268693          	add	a3,a3,2
   20b18:	03000713          	li	a4,48
   20b1c:	00000793          	li	a5,0
   20b20:	fed590e3          	bne	a1,a3,20b00 <_Z10packetLoopR4GPIOR8EthernetNS1_9macAddr_sEtb+0x29c>
   20b24:	02810793          	add	a5,sp,40
   20b28:	02c10593          	add	a1,sp,44
   20b2c:	0007c683          	lbu	a3,0(a5)
   20b30:	00764703          	lbu	a4,7(a2)
   20b34:	00178793          	add	a5,a5,1
   20b38:	00d603a3          	sb	a3,7(a2)
   20b3c:	fee78fa3          	sb	a4,-1(a5)
   20b40:	fff60613          	add	a2,a2,-1
   20b44:	feb794e3          	bne	a5,a1,20b2c <_Z10packetLoopR4GPIOR8EthernetNS1_9macAddr_sEtb+0x2c8>
   20b48:	00800593          	li	a1,8
   20b4c:	02810513          	add	a0,sp,40
   20b50:	301000ef          	jal	21650 <_ZN9SerialOut5writeEPKcm>
   20b54:	00000513          	li	a0,0
   20b58:	2d5000ef          	jal	2162c <_ZN9SerialOut5writeEc>
   20b5c:	02015703          	lhu	a4,32(sp)
   20b60:	02810593          	add	a1,sp,40
   20b64:	03010893          	add	a7,sp,48
   20b68:	01071713          	sll	a4,a4,0x10
   20b6c:	01075713          	srl	a4,a4,0x10
   20b70:	00058513          	mv	a0,a1
   20b74:	00900813          	li	a6,9
   20b78:	00f77613          	and	a2,a4,15
   20b7c:	00475793          	srl	a5,a4,0x4
   20b80:	00f7f793          	and	a5,a5,15
   20b84:	03060693          	add	a3,a2,48
   20b88:	00c87463          	bgeu	a6,a2,20b90 <_Z10packetLoopR4GPIOR8EthernetNS1_9macAddr_sEtb+0x32c>
   20b8c:	03760693          	add	a3,a2,55
   20b90:	03078613          	add	a2,a5,48
   20b94:	00f87463          	bgeu	a6,a5,20b9c <_Z10packetLoopR4GPIOR8EthernetNS1_9macAddr_sEtb+0x338>
   20b98:	03778613          	add	a2,a5,55
   20b9c:	00861613          	sll	a2,a2,0x8
   20ba0:	00c6e6b3          	or	a3,a3,a2
   20ba4:	00d51023          	sh	a3,0(a0)
   20ba8:	00250513          	add	a0,a0,2
   20bac:	00875713          	srl	a4,a4,0x8
   20bb0:	fd1514e3          	bne	a0,a7,20b78 <_Z10packetLoopR4GPIOR8EthernetNS1_9macAddr_sEtb+0x314>
   20bb4:	02810793          	add	a5,sp,40
   20bb8:	02c10613          	add	a2,sp,44
   20bbc:	0007c683          	lbu	a3,0(a5)
   20bc0:	0075c703          	lbu	a4,7(a1)
   20bc4:	00178793          	add	a5,a5,1
   20bc8:	00d583a3          	sb	a3,7(a1)
   20bcc:	fee78fa3          	sb	a4,-1(a5)
   20bd0:	fff58593          	add	a1,a1,-1
   20bd4:	fec794e3          	bne	a5,a2,20bbc <_Z10packetLoopR4GPIOR8EthernetNS1_9macAddr_sEtb+0x358>
   20bd8:	02810513          	add	a0,sp,40
   20bdc:	00800593          	li	a1,8
   20be0:	271000ef          	jal	21650 <_ZN9SerialOut5writeEPKcm>
   20be4:	00000513          	li	a0,0
   20be8:	245000ef          	jal	2162c <_ZN9SerialOut5writeEc>
   20bec:	120a1663          	bnez	s4,20d18 <_Z10packetLoopR4GPIOR8EthernetNS1_9macAddr_sEtb+0x4b4>
   20bf0:	00023537          	lui	a0,0x23
   20bf4:	61050513          	add	a0,a0,1552 # 23610 <__clzsi2+0xd0>
   20bf8:	338010ef          	jal	21f30 <_ZN9SerialOut6printfEPKcz>
   20bfc:	02015783          	lhu	a5,32(sp)
   20c00:	d4440413          	add	s0,s0,-700
   20c04:	00000993          	li	s3,0
   20c08:	00900a93          	li	s5,9
   20c0c:	04078c63          	beqz	a5,20c64 <_Z10packetLoopR4GPIOR8EthernetNS1_9macAddr_sEtb+0x400>
   20c10:	00044783          	lbu	a5,0(s0)
   20c14:	00200593          	li	a1,2
   20c18:	02810513          	add	a0,sp,40
   20c1c:	00f7f693          	and	a3,a5,15
   20c20:	03068713          	add	a4,a3,48
   20c24:	0047d793          	srl	a5,a5,0x4
   20c28:	00daf463          	bgeu	s5,a3,20c30 <_Z10packetLoopR4GPIOR8EthernetNS1_9macAddr_sEtb+0x3cc>
   20c2c:	03768713          	add	a4,a3,55
   20c30:	00871693          	sll	a3,a4,0x8
   20c34:	03078713          	add	a4,a5,48
   20c38:	00faf463          	bgeu	s5,a5,20c40 <_Z10packetLoopR4GPIOR8EthernetNS1_9macAddr_sEtb+0x3dc>
   20c3c:	03778713          	add	a4,a5,55
   20c40:	00d76733          	or	a4,a4,a3
   20c44:	02e11423          	sh	a4,40(sp)
   20c48:	209000ef          	jal	21650 <_ZN9SerialOut5writeEPKcm>
   20c4c:	00000513          	li	a0,0
   20c50:	1dd000ef          	jal	2162c <_ZN9SerialOut5writeEc>
   20c54:	02015783          	lhu	a5,32(sp)
   20c58:	00198993          	add	s3,s3,1
   20c5c:	00140413          	add	s0,s0,1
   20c60:	faf9c8e3          	blt	s3,a5,20c10 <_Z10packetLoopR4GPIOR8EthernetNS1_9macAddr_sEtb+0x3ac>
   20c64:	00023537          	lui	a0,0x23
   20c68:	61c50513          	add	a0,a0,1564 # 2361c <__clzsi2+0xdc>
   20c6c:	2c4010ef          	jal	21f30 <_ZN9SerialOut6printfEPKcz>
   20c70:	02015703          	lhu	a4,32(sp)
   20c74:	02015783          	lhu	a5,32(sp)
   20c78:	00024437          	lui	s0,0x24
   20c7c:	01071993          	sll	s3,a4,0x10
   20c80:	00378793          	add	a5,a5,3
   20c84:	0109d993          	srl	s3,s3,0x10
   20c88:	d4440413          	add	s0,s0,-700 # 23d44 <RX_payload>
   20c8c:	00900a93          	li	s5,9
   20c90:	04e7ce63          	blt	a5,a4,20cec <_Z10packetLoopR4GPIOR8EthernetNS1_9macAddr_sEtb+0x488>
   20c94:	013407b3          	add	a5,s0,s3
   20c98:	0007c783          	lbu	a5,0(a5)
   20c9c:	00200593          	li	a1,2
   20ca0:	02810513          	add	a0,sp,40
   20ca4:	00f7f693          	and	a3,a5,15
   20ca8:	03068713          	add	a4,a3,48
   20cac:	0047d793          	srl	a5,a5,0x4
   20cb0:	00daf463          	bgeu	s5,a3,20cb8 <_Z10packetLoopR4GPIOR8EthernetNS1_9macAddr_sEtb+0x454>
   20cb4:	03768713          	add	a4,a3,55
   20cb8:	00871693          	sll	a3,a4,0x8
   20cbc:	03078713          	add	a4,a5,48
   20cc0:	00faf463          	bgeu	s5,a5,20cc8 <_Z10packetLoopR4GPIOR8EthernetNS1_9macAddr_sEtb+0x464>
   20cc4:	03778713          	add	a4,a5,55
   20cc8:	00d76733          	or	a4,a4,a3
   20ccc:	02e11423          	sh	a4,40(sp)
   20cd0:	181000ef          	jal	21650 <_ZN9SerialOut5writeEPKcm>
   20cd4:	00000513          	li	a0,0
   20cd8:	155000ef          	jal	2162c <_ZN9SerialOut5writeEc>
   20cdc:	02015783          	lhu	a5,32(sp)
   20ce0:	00198993          	add	s3,s3,1
   20ce4:	00378793          	add	a5,a5,3
   20ce8:	fb37d6e3          	bge	a5,s3,20c94 <_Z10packetLoopR4GPIOR8EthernetNS1_9macAddr_sEtb+0x430>
   20cec:	00023537          	lui	a0,0x23
   20cf0:	5a450513          	add	a0,a0,1444 # 235a4 <__clzsi2+0x64>
   20cf4:	23c010ef          	jal	21f30 <_ZN9SerialOut6printfEPKcz>
   20cf8:	05c12983          	lw	s3,92(sp)
   20cfc:	05412a83          	lw	s5,84(sp)
   20d00:	05012b03          	lw	s6,80(sp)
   20d04:	03c12d83          	lw	s11,60(sp)
   20d08:	c21ff06f          	j	20928 <_Z10packetLoopR4GPIOR8EthernetNS1_9macAddr_sEtb+0xc4>
   20d0c:	02810693          	add	a3,sp,40
   20d10:	03078793          	add	a5,a5,48
   20d14:	df1ff06f          	j	20b04 <_Z10packetLoopR4GPIOR8EthernetNS1_9macAddr_sEtb+0x2a0>
   20d18:	00023537          	lui	a0,0x23
   20d1c:	60050513          	add	a0,a0,1536 # 23600 <__clzsi2+0xc0>
   20d20:	210010ef          	jal	21f30 <_ZN9SerialOut6printfEPKcz>
   20d24:	01a15783          	lhu	a5,26(sp)
   20d28:	00900693          	li	a3,9
   20d2c:	02810613          	add	a2,sp,40
   20d30:	0087d713          	srl	a4,a5,0x8
   20d34:	00c7d513          	srl	a0,a5,0xc
   20d38:	00f77713          	and	a4,a4,15
   20d3c:	03010593          	add	a1,sp,48
   20d40:	00050793          	mv	a5,a0
   20d44:	12e6f863          	bgeu	a3,a4,20e74 <_Z10packetLoopR4GPIOR8EthernetNS1_9macAddr_sEtb+0x610>
   20d48:	03770713          	add	a4,a4,55
   20d4c:	00900693          	li	a3,9
   20d50:	10a6dc63          	bge	a3,a0,20e68 <_Z10packetLoopR4GPIOR8EthernetNS1_9macAddr_sEtb+0x604>
   20d54:	03778793          	add	a5,a5,55
   20d58:	00879793          	sll	a5,a5,0x8
   20d5c:	00f76733          	or	a4,a4,a5
   20d60:	02810693          	add	a3,sp,40
   20d64:	00e69023          	sh	a4,0(a3)
   20d68:	00268693          	add	a3,a3,2
   20d6c:	00000793          	li	a5,0
   20d70:	03000713          	li	a4,48
   20d74:	02d58263          	beq	a1,a3,20d98 <_Z10packetLoopR4GPIOR8EthernetNS1_9macAddr_sEtb+0x534>
   20d78:	03078793          	add	a5,a5,48
   20d7c:	00879793          	sll	a5,a5,0x8
   20d80:	00f76733          	or	a4,a4,a5
   20d84:	00e69023          	sh	a4,0(a3)
   20d88:	00268693          	add	a3,a3,2
   20d8c:	00000793          	li	a5,0
   20d90:	03000713          	li	a4,48
   20d94:	fed592e3          	bne	a1,a3,20d78 <_Z10packetLoopR4GPIOR8EthernetNS1_9macAddr_sEtb+0x514>
   20d98:	02810793          	add	a5,sp,40
   20d9c:	02c10593          	add	a1,sp,44
   20da0:	0007c683          	lbu	a3,0(a5)
   20da4:	00764703          	lbu	a4,7(a2)
   20da8:	00178793          	add	a5,a5,1
   20dac:	00d603a3          	sb	a3,7(a2)
   20db0:	fee78fa3          	sb	a4,-1(a5)
   20db4:	fff60613          	add	a2,a2,-1
   20db8:	feb794e3          	bne	a5,a1,20da0 <_Z10packetLoopR4GPIOR8EthernetNS1_9macAddr_sEtb+0x53c>
   20dbc:	00800593          	li	a1,8
   20dc0:	02810513          	add	a0,sp,40
   20dc4:	08d000ef          	jal	21650 <_ZN9SerialOut5writeEPKcm>
   20dc8:	00000513          	li	a0,0
   20dcc:	061000ef          	jal	2162c <_ZN9SerialOut5writeEc>
   20dd0:	01a15783          	lhu	a5,26(sp)
   20dd4:	00900613          	li	a2,9
   20dd8:	0047d713          	srl	a4,a5,0x4
   20ddc:	00f7f693          	and	a3,a5,15
   20de0:	00f77713          	and	a4,a4,15
   20de4:	03768813          	add	a6,a3,55
   20de8:	00d66463          	bltu	a2,a3,20df0 <_Z10packetLoopR4GPIOR8EthernetNS1_9macAddr_sEtb+0x58c>
   20dec:	03068813          	add	a6,a3,48
   20df0:	00900693          	li	a3,9
   20df4:	03770613          	add	a2,a4,55
   20df8:	00e6e463          	bltu	a3,a4,20e00 <_Z10packetLoopR4GPIOR8EthernetNS1_9macAddr_sEtb+0x59c>
   20dfc:	03070613          	add	a2,a4,48
   20e00:	0087d713          	srl	a4,a5,0x8
   20e04:	00f77713          	and	a4,a4,15
   20e08:	00900593          	li	a1,9
   20e0c:	00c7d793          	srl	a5,a5,0xc
   20e10:	03070693          	add	a3,a4,48
   20e14:	04e5e063          	bltu	a1,a4,20e54 <_Z10packetLoopR4GPIOR8EthernetNS1_9macAddr_sEtb+0x5f0>
   20e18:	00900593          	li	a1,9
   20e1c:	03078713          	add	a4,a5,48
   20e20:	02f5e663          	bltu	a1,a5,20e4c <_Z10packetLoopR4GPIOR8EthernetNS1_9macAddr_sEtb+0x5e8>
   20e24:	02810513          	add	a0,sp,40
   20e28:	00400593          	li	a1,4
   20e2c:	030105a3          	sb	a6,43(sp)
   20e30:	02e10423          	sb	a4,40(sp)
   20e34:	02c10523          	sb	a2,42(sp)
   20e38:	02d104a3          	sb	a3,41(sp)
   20e3c:	015000ef          	jal	21650 <_ZN9SerialOut5writeEPKcm>
   20e40:	00000513          	li	a0,0
   20e44:	7e8000ef          	jal	2162c <_ZN9SerialOut5writeEc>
   20e48:	da9ff06f          	j	20bf0 <_Z10packetLoopR4GPIOR8EthernetNS1_9macAddr_sEtb+0x38c>
   20e4c:	03778713          	add	a4,a5,55
   20e50:	fd5ff06f          	j	20e24 <_Z10packetLoopR4GPIOR8EthernetNS1_9macAddr_sEtb+0x5c0>
   20e54:	00900593          	li	a1,9
   20e58:	03770693          	add	a3,a4,55
   20e5c:	03078713          	add	a4,a5,48
   20e60:	fcf5f2e3          	bgeu	a1,a5,20e24 <_Z10packetLoopR4GPIOR8EthernetNS1_9macAddr_sEtb+0x5c0>
   20e64:	fe9ff06f          	j	20e4c <_Z10packetLoopR4GPIOR8EthernetNS1_9macAddr_sEtb+0x5e8>
   20e68:	02810693          	add	a3,sp,40
   20e6c:	03078793          	add	a5,a5,48
   20e70:	f0dff06f          	j	20d7c <_Z10packetLoopR4GPIOR8EthernetNS1_9macAddr_sEtb+0x518>
   20e74:	03070713          	add	a4,a4,48
   20e78:	ed5ff06f          	j	20d4c <_Z10packetLoopR4GPIOR8EthernetNS1_9macAddr_sEtb+0x4e8>
   20e7c:	03070713          	add	a4,a4,48
   20e80:	c55ff06f          	j	20ad4 <_Z10packetLoopR4GPIOR8EthernetNS1_9macAddr_sEtb+0x270>

00020e84 <ethernet>:
   20e84:	f9010113          	add	sp,sp,-112
   20e88:	00000593          	li	a1,0
   20e8c:	03010513          	add	a0,sp,48
   20e90:	06112623          	sw	ra,108(sp)
   20e94:	06812423          	sw	s0,104(sp)
   20e98:	06912223          	sw	s1,100(sp)
   20e9c:	0d8010ef          	jal	21f74 <_ZN4GPIOC1Em>
   20ea0:	00000593          	li	a1,0
   20ea4:	00c10513          	add	a0,sp,12
   20ea8:	260010ef          	jal	22108 <_ZN5TimerC1Em>
   20eac:	04410513          	add	a0,sp,68
   20eb0:	445010ef          	jal	22af4 <_ZN8EthernetC1Ev>
   20eb4:	00000713          	li	a4,0
   20eb8:	00000693          	li	a3,0
   20ebc:	0f000613          	li	a2,240
   20ec0:	00000593          	li	a1,0
   20ec4:	03010513          	add	a0,sp,48
   20ec8:	114010ef          	jal	21fdc <_ZN4GPIO4initEhhhh>
   20ecc:	00100693          	li	a3,1
   20ed0:	fff00613          	li	a2,-1
   20ed4:	fff00593          	li	a1,-1
   20ed8:	00c10513          	add	a0,sp,12
   20edc:	300010ef          	jal	221dc <_ZN5Timer4initEyNS_11timerMode_eE>
   20ee0:	00000593          	li	a1,0
   20ee4:	34c010ef          	jal	22230 <_ZN5Timer12setInterruptEb>
   20ee8:	00023537          	lui	a0,0x23
   20eec:	62450513          	add	a0,a0,1572 # 23624 <__clzsi2+0xe4>
   20ef0:	040010ef          	jal	21f30 <_ZN9SerialOut6printfEPKcz>
   20ef4:	00a00593          	li	a1,10
   20ef8:	00000613          	li	a2,0
   20efc:	00c10513          	add	a0,sp,12
   20f00:	3dc010ef          	jal	222dc <_ZN5Timer5delayEy>
   20f04:	00000693          	li	a3,0
   20f08:	00000713          	li	a4,0
   20f0c:	00100613          	li	a2,1
   20f10:	00100593          	li	a1,1
   20f14:	04410513          	add	a0,sp,68
   20f18:	5dd010ef          	jal	22cf4 <_ZN8Ethernet4initENS_10ethSpeed_eENS_11ethDuplex_eEbNS_9ethMode_eE>
   20f1c:	c157b737          	lui	a4,0xc157b
   20f20:	ffffe7b7          	lui	a5,0xffffe
   20f24:	000025b7          	lui	a1,0x2
   20f28:	a1670713          	add	a4,a4,-1514 # c157aa16 <_ZN9SerialOut6statusE+0xc15566f2>
   20f2c:	8bb78793          	add	a5,a5,-1861 # ffffd8bb <_ZN9SerialOut6statusE+0xfffd9597>
   20f30:	71058593          	add	a1,a1,1808 # 2710 <boot_program+0x2710>
   20f34:	00000613          	li	a2,0
   20f38:	00c10513          	add	a0,sp,12
   20f3c:	00e12223          	sw	a4,4(sp)
   20f40:	00f11423          	sh	a5,8(sp)
   20f44:	398010ef          	jal	222dc <_ZN5Timer5delayEy>
   20f48:	04412783          	lw	a5,68(sp)
   20f4c:	00023537          	lui	a0,0x23
   20f50:	68050513          	add	a0,a0,1664 # 23680 <__clzsi2+0x140>
   20f54:	0007a483          	lw	s1,0(a5)
   20f58:	7d9000ef          	jal	21f30 <_ZN9SerialOut6printfEPKcz>
   20f5c:	01c10413          	add	s0,sp,28
   20f60:	01049493          	sll	s1,s1,0x10
   20f64:	0104d493          	srl	s1,s1,0x10
   20f68:	02010623          	sb	zero,44(sp)
   20f6c:	02b10793          	add	a5,sp,43
   20f70:	0014f713          	and	a4,s1,1
   20f74:	03070713          	add	a4,a4,48
   20f78:	00e78023          	sb	a4,0(a5)
   20f7c:	00078713          	mv	a4,a5
   20f80:	0014d493          	srl	s1,s1,0x1
   20f84:	fff78793          	add	a5,a5,-1
   20f88:	fee414e3          	bne	s0,a4,20f70 <ethernet+0xec>
   20f8c:	00040513          	mv	a0,s0
   20f90:	755000ef          	jal	21ee4 <_ZN9SerialOut7printlnEPKcz>
   20f94:	04412783          	lw	a5,68(sp)
   20f98:	00023537          	lui	a0,0x23
   20f9c:	6a050513          	add	a0,a0,1696 # 236a0 <__clzsi2+0x160>
   20fa0:	0047a483          	lw	s1,4(a5)
   20fa4:	78d000ef          	jal	21f30 <_ZN9SerialOut6printfEPKcz>
   20fa8:	02b10793          	add	a5,sp,43
   20fac:	01049493          	sll	s1,s1,0x10
   20fb0:	0104d493          	srl	s1,s1,0x10
   20fb4:	02010623          	sb	zero,44(sp)
   20fb8:	0014f713          	and	a4,s1,1
   20fbc:	03070713          	add	a4,a4,48
   20fc0:	00e78023          	sb	a4,0(a5)
   20fc4:	00078713          	mv	a4,a5
   20fc8:	0014d493          	srl	s1,s1,0x1
   20fcc:	fff78793          	add	a5,a5,-1
   20fd0:	fee414e3          	bne	s0,a4,20fb8 <ethernet+0x134>
   20fd4:	00040513          	mv	a0,s0
   20fd8:	70d000ef          	jal	21ee4 <_ZN9SerialOut7printlnEPKcz>
   20fdc:	04412783          	lw	a5,68(sp)
   20fe0:	00023537          	lui	a0,0x23
   20fe4:	6c050513          	add	a0,a0,1728 # 236c0 <__clzsi2+0x180>
   20fe8:	0087a483          	lw	s1,8(a5)
   20fec:	745000ef          	jal	21f30 <_ZN9SerialOut6printfEPKcz>
   20ff0:	02b10793          	add	a5,sp,43
   20ff4:	01049493          	sll	s1,s1,0x10
   20ff8:	0104d493          	srl	s1,s1,0x10
   20ffc:	02010623          	sb	zero,44(sp)
   21000:	0014f713          	and	a4,s1,1
   21004:	03070713          	add	a4,a4,48
   21008:	00e78023          	sb	a4,0(a5)
   2100c:	00078713          	mv	a4,a5
   21010:	0014d493          	srl	s1,s1,0x1
   21014:	fff78793          	add	a5,a5,-1
   21018:	fee414e3          	bne	s0,a4,21000 <ethernet+0x17c>
   2101c:	00040513          	mv	a0,s0
   21020:	6c5000ef          	jal	21ee4 <_ZN9SerialOut7printlnEPKcz>
   21024:	04412783          	lw	a5,68(sp)
   21028:	00023537          	lui	a0,0x23
   2102c:	6e450513          	add	a0,a0,1764 # 236e4 <__clzsi2+0x1a4>
   21030:	00c7a483          	lw	s1,12(a5)
   21034:	6fd000ef          	jal	21f30 <_ZN9SerialOut6printfEPKcz>
   21038:	02b10793          	add	a5,sp,43
   2103c:	01049493          	sll	s1,s1,0x10
   21040:	0104d493          	srl	s1,s1,0x10
   21044:	02010623          	sb	zero,44(sp)
   21048:	0014f713          	and	a4,s1,1
   2104c:	03070713          	add	a4,a4,48
   21050:	00e78023          	sb	a4,0(a5)
   21054:	00078713          	mv	a4,a5
   21058:	0014d493          	srl	s1,s1,0x1
   2105c:	fff78793          	add	a5,a5,-1
   21060:	fee414e3          	bne	s0,a4,21048 <ethernet+0x1c4>
   21064:	00040513          	mv	a0,s0
   21068:	67d000ef          	jal	21ee4 <_ZN9SerialOut7printlnEPKcz>
   2106c:	04412783          	lw	a5,68(sp)
   21070:	00023537          	lui	a0,0x23
   21074:	70850513          	add	a0,a0,1800 # 23708 <__clzsi2+0x1c8>
   21078:	0107a483          	lw	s1,16(a5)
   2107c:	6b5000ef          	jal	21f30 <_ZN9SerialOut6printfEPKcz>
   21080:	02b10793          	add	a5,sp,43
   21084:	01049493          	sll	s1,s1,0x10
   21088:	0104d493          	srl	s1,s1,0x10
   2108c:	02010623          	sb	zero,44(sp)
   21090:	0014f713          	and	a4,s1,1
   21094:	03070713          	add	a4,a4,48
   21098:	00e78023          	sb	a4,0(a5)
   2109c:	00078713          	mv	a4,a5
   210a0:	0014d493          	srl	s1,s1,0x1
   210a4:	fff78793          	add	a5,a5,-1
   210a8:	fee414e3          	bne	s0,a4,21090 <ethernet+0x20c>
   210ac:	00040513          	mv	a0,s0
   210b0:	635000ef          	jal	21ee4 <_ZN9SerialOut7printlnEPKcz>
   210b4:	04412783          	lw	a5,68(sp)
   210b8:	00023537          	lui	a0,0x23
   210bc:	73850513          	add	a0,a0,1848 # 23738 <__clzsi2+0x1f8>
   210c0:	0147a483          	lw	s1,20(a5)
   210c4:	66d000ef          	jal	21f30 <_ZN9SerialOut6printfEPKcz>
   210c8:	02b10793          	add	a5,sp,43
   210cc:	01049493          	sll	s1,s1,0x10
   210d0:	0104d493          	srl	s1,s1,0x10
   210d4:	02010623          	sb	zero,44(sp)
   210d8:	0014f713          	and	a4,s1,1
   210dc:	03070713          	add	a4,a4,48
   210e0:	00e78023          	sb	a4,0(a5)
   210e4:	00078713          	mv	a4,a5
   210e8:	0014d493          	srl	s1,s1,0x1
   210ec:	fff78793          	add	a5,a5,-1
   210f0:	fee414e3          	bne	s0,a4,210d8 <ethernet+0x254>
   210f4:	00040513          	mv	a0,s0
   210f8:	5ed000ef          	jal	21ee4 <_ZN9SerialOut7printlnEPKcz>
   210fc:	04412783          	lw	a5,68(sp)
   21100:	00023537          	lui	a0,0x23
   21104:	76850513          	add	a0,a0,1896 # 23768 <__clzsi2+0x228>
   21108:	0187a483          	lw	s1,24(a5)
   2110c:	625000ef          	jal	21f30 <_ZN9SerialOut6printfEPKcz>
   21110:	02b10793          	add	a5,sp,43
   21114:	01049493          	sll	s1,s1,0x10
   21118:	0104d493          	srl	s1,s1,0x10
   2111c:	02010623          	sb	zero,44(sp)
   21120:	0014f713          	and	a4,s1,1
   21124:	03070713          	add	a4,a4,48
   21128:	00e78023          	sb	a4,0(a5)
   2112c:	00078713          	mv	a4,a5
   21130:	0014d493          	srl	s1,s1,0x1
   21134:	fff78793          	add	a5,a5,-1
   21138:	fee414e3          	bne	s0,a4,21120 <ethernet+0x29c>
   2113c:	00040513          	mv	a0,s0
   21140:	5a5000ef          	jal	21ee4 <_ZN9SerialOut7printlnEPKcz>
   21144:	04412783          	lw	a5,68(sp)
   21148:	00023537          	lui	a0,0x23
   2114c:	79450513          	add	a0,a0,1940 # 23794 <__clzsi2+0x254>
   21150:	0447a483          	lw	s1,68(a5)
   21154:	5dd000ef          	jal	21f30 <_ZN9SerialOut6printfEPKcz>
   21158:	02b10793          	add	a5,sp,43
   2115c:	01049493          	sll	s1,s1,0x10
   21160:	0104d493          	srl	s1,s1,0x10
   21164:	02010623          	sb	zero,44(sp)
   21168:	0014f713          	and	a4,s1,1
   2116c:	03070713          	add	a4,a4,48
   21170:	00e78023          	sb	a4,0(a5)
   21174:	00078713          	mv	a4,a5
   21178:	0014d493          	srl	s1,s1,0x1
   2117c:	fff78793          	add	a5,a5,-1
   21180:	fee414e3          	bne	s0,a4,21168 <ethernet+0x2e4>
   21184:	00040513          	mv	a0,s0
   21188:	55d000ef          	jal	21ee4 <_ZN9SerialOut7printlnEPKcz>
   2118c:	04412783          	lw	a5,68(sp)
   21190:	00023537          	lui	a0,0x23
   21194:	7bc50513          	add	a0,a0,1980 # 237bc <__clzsi2+0x27c>
   21198:	0487a483          	lw	s1,72(a5)
   2119c:	595000ef          	jal	21f30 <_ZN9SerialOut6printfEPKcz>
   211a0:	02b10793          	add	a5,sp,43
   211a4:	01049493          	sll	s1,s1,0x10
   211a8:	0104d493          	srl	s1,s1,0x10
   211ac:	02010623          	sb	zero,44(sp)
   211b0:	0014f713          	and	a4,s1,1
   211b4:	03070713          	add	a4,a4,48
   211b8:	00e78023          	sb	a4,0(a5)
   211bc:	00078713          	mv	a4,a5
   211c0:	0014d493          	srl	s1,s1,0x1
   211c4:	fff78793          	add	a5,a5,-1
   211c8:	fee414e3          	bne	s0,a4,211b0 <ethernet+0x32c>
   211cc:	00040513          	mv	a0,s0
   211d0:	515000ef          	jal	21ee4 <_ZN9SerialOut7printlnEPKcz>
   211d4:	04412783          	lw	a5,68(sp)
   211d8:	00023537          	lui	a0,0x23
   211dc:	7dc50513          	add	a0,a0,2012 # 237dc <__clzsi2+0x29c>
   211e0:	0687a483          	lw	s1,104(a5)
   211e4:	54d000ef          	jal	21f30 <_ZN9SerialOut6printfEPKcz>
   211e8:	02b10793          	add	a5,sp,43
   211ec:	01049493          	sll	s1,s1,0x10
   211f0:	0104d493          	srl	s1,s1,0x10
   211f4:	02010623          	sb	zero,44(sp)
   211f8:	0014f713          	and	a4,s1,1
   211fc:	03070713          	add	a4,a4,48
   21200:	00e78023          	sb	a4,0(a5)
   21204:	00078713          	mv	a4,a5
   21208:	0014d493          	srl	s1,s1,0x1
   2120c:	fff78793          	add	a5,a5,-1
   21210:	fee414e3          	bne	s0,a4,211f8 <ethernet+0x374>
   21214:	00040513          	mv	a0,s0
   21218:	4cd000ef          	jal	21ee4 <_ZN9SerialOut7printlnEPKcz>
   2121c:	04412783          	lw	a5,68(sp)
   21220:	00024537          	lui	a0,0x24
   21224:	80450513          	add	a0,a0,-2044 # 23804 <__clzsi2+0x2c4>
   21228:	06c7a483          	lw	s1,108(a5)
   2122c:	505000ef          	jal	21f30 <_ZN9SerialOut6printfEPKcz>
   21230:	02b10793          	add	a5,sp,43
   21234:	01049493          	sll	s1,s1,0x10
   21238:	0104d493          	srl	s1,s1,0x10
   2123c:	02010623          	sb	zero,44(sp)
   21240:	0014f713          	and	a4,s1,1
   21244:	03070713          	add	a4,a4,48
   21248:	00e78023          	sb	a4,0(a5)
   2124c:	00078713          	mv	a4,a5
   21250:	0014d493          	srl	s1,s1,0x1
   21254:	fff78793          	add	a5,a5,-1
   21258:	fee414e3          	bne	s0,a4,21240 <ethernet+0x3bc>
   2125c:	00040513          	mv	a0,s0
   21260:	485000ef          	jal	21ee4 <_ZN9SerialOut7printlnEPKcz>
   21264:	04412783          	lw	a5,68(sp)
   21268:	00024537          	lui	a0,0x24
   2126c:	83850513          	add	a0,a0,-1992 # 23838 <__clzsi2+0x2f8>
   21270:	0747a483          	lw	s1,116(a5)
   21274:	4bd000ef          	jal	21f30 <_ZN9SerialOut6printfEPKcz>
   21278:	02b10793          	add	a5,sp,43
   2127c:	01049493          	sll	s1,s1,0x10
   21280:	0104d493          	srl	s1,s1,0x10
   21284:	02010623          	sb	zero,44(sp)
   21288:	0014f713          	and	a4,s1,1
   2128c:	03070713          	add	a4,a4,48
   21290:	00e78023          	sb	a4,0(a5)
   21294:	00078713          	mv	a4,a5
   21298:	0014d493          	srl	s1,s1,0x1
   2129c:	fff78793          	add	a5,a5,-1
   212a0:	fee414e3          	bne	s0,a4,21288 <ethernet+0x404>
   212a4:	00040513          	mv	a0,s0
   212a8:	43d000ef          	jal	21ee4 <_ZN9SerialOut7printlnEPKcz>
   212ac:	04412783          	lw	a5,68(sp)
   212b0:	00024537          	lui	a0,0x24
   212b4:	85c50513          	add	a0,a0,-1956 # 2385c <__clzsi2+0x31c>
   212b8:	0787a483          	lw	s1,120(a5)
   212bc:	475000ef          	jal	21f30 <_ZN9SerialOut6printfEPKcz>
   212c0:	02b10793          	add	a5,sp,43
   212c4:	01049493          	sll	s1,s1,0x10
   212c8:	0104d493          	srl	s1,s1,0x10
   212cc:	02010623          	sb	zero,44(sp)
   212d0:	0014f713          	and	a4,s1,1
   212d4:	03070713          	add	a4,a4,48
   212d8:	00e78023          	sb	a4,0(a5)
   212dc:	00078713          	mv	a4,a5
   212e0:	0014d493          	srl	s1,s1,0x1
   212e4:	fff78793          	add	a5,a5,-1
   212e8:	fee414e3          	bne	s0,a4,212d0 <ethernet+0x44c>
   212ec:	00040513          	mv	a0,s0
   212f0:	3f5000ef          	jal	21ee4 <_ZN9SerialOut7printlnEPKcz>
   212f4:	04412783          	lw	a5,68(sp)
   212f8:	00024537          	lui	a0,0x24
   212fc:	87c50513          	add	a0,a0,-1924 # 2387c <__clzsi2+0x33c>
   21300:	07c7a483          	lw	s1,124(a5)
   21304:	42d000ef          	jal	21f30 <_ZN9SerialOut6printfEPKcz>
   21308:	02b10793          	add	a5,sp,43
   2130c:	01049493          	sll	s1,s1,0x10
   21310:	0104d493          	srl	s1,s1,0x10
   21314:	02010623          	sb	zero,44(sp)
   21318:	0014f713          	and	a4,s1,1
   2131c:	03070713          	add	a4,a4,48
   21320:	00e78023          	sb	a4,0(a5)
   21324:	00078713          	mv	a4,a5
   21328:	0014d493          	srl	s1,s1,0x1
   2132c:	fff78793          	add	a5,a5,-1
   21330:	fee414e3          	bne	s0,a4,21318 <ethernet+0x494>
   21334:	00040513          	mv	a0,s0
   21338:	3ad000ef          	jal	21ee4 <_ZN9SerialOut7printlnEPKcz>
   2133c:	00024537          	lui	a0,0x24
   21340:	8a850513          	add	a0,a0,-1880 # 238a8 <__clzsi2+0x368>
   21344:	3ed000ef          	jal	21f30 <_ZN9SerialOut6printfEPKcz>
   21348:	3e800593          	li	a1,1000
   2134c:	00000613          	li	a2,0
   21350:	00c10513          	add	a0,sp,12
   21354:	789000ef          	jal	222dc <_ZN5Timer5delayEy>
   21358:	000244b7          	lui	s1,0x24
   2135c:	8f048513          	add	a0,s1,-1808 # 238f0 <__clzsi2+0x3b0>
   21360:	385000ef          	jal	21ee4 <_ZN9SerialOut7printlnEPKcz>
   21364:	04410513          	add	a0,sp,68
   21368:	2b8010ef          	jal	22620 <_ZN8Ethernet8isLinkedEv>
   2136c:	fe050ce3          	beqz	a0,21364 <ethernet+0x4e0>
   21370:	00024437          	lui	s0,0x24
   21374:	90c40513          	add	a0,s0,-1780 # 2390c <__clzsi2+0x3cc>
   21378:	36d000ef          	jal	21ee4 <_ZN9SerialOut7printlnEPKcz>
   2137c:	3e800593          	li	a1,1000
   21380:	00000613          	li	a2,0
   21384:	00c10513          	add	a0,sp,12
   21388:	755000ef          	jal	222dc <_ZN5Timer5delayEy>
   2138c:	00412603          	lw	a2,4(sp)
   21390:	00812683          	lw	a3,8(sp)
   21394:	00000793          	li	a5,0
   21398:	64000713          	li	a4,1600
   2139c:	04410593          	add	a1,sp,68
   213a0:	03010513          	add	a0,sp,48
   213a4:	cc0ff0ef          	jal	20864 <_Z10packetLoopR4GPIOR8EthernetNS1_9macAddr_sEtb>
   213a8:	00024537          	lui	a0,0x24
   213ac:	92c50513          	add	a0,a0,-1748 # 2392c <__clzsi2+0x3ec>
   213b0:	381000ef          	jal	21f30 <_ZN9SerialOut6printfEPKcz>
   213b4:	00000713          	li	a4,0
   213b8:	00000693          	li	a3,0
   213bc:	00100613          	li	a2,1
   213c0:	00000593          	li	a1,0
   213c4:	04410513          	add	a0,sp,68
   213c8:	12d010ef          	jal	22cf4 <_ZN8Ethernet4initENS_10ethSpeed_eENS_11ethDuplex_eEbNS_9ethMode_eE>
   213cc:	3e800593          	li	a1,1000
   213d0:	00000613          	li	a2,0
   213d4:	00c10513          	add	a0,sp,12
   213d8:	705000ef          	jal	222dc <_ZN5Timer5delayEy>
   213dc:	8f048513          	add	a0,s1,-1808
   213e0:	305000ef          	jal	21ee4 <_ZN9SerialOut7printlnEPKcz>
   213e4:	04410513          	add	a0,sp,68
   213e8:	238010ef          	jal	22620 <_ZN8Ethernet8isLinkedEv>
   213ec:	fe050ce3          	beqz	a0,213e4 <ethernet+0x560>
   213f0:	90c40513          	add	a0,s0,-1780
   213f4:	2f1000ef          	jal	21ee4 <_ZN9SerialOut7printlnEPKcz>
   213f8:	3e800593          	li	a1,1000
   213fc:	00000613          	li	a2,0
   21400:	00c10513          	add	a0,sp,12
   21404:	6d9000ef          	jal	222dc <_ZN5Timer5delayEy>
   21408:	00412603          	lw	a2,4(sp)
   2140c:	00812683          	lw	a3,8(sp)
   21410:	00000793          	li	a5,0
   21414:	64000713          	li	a4,1600
   21418:	04410593          	add	a1,sp,68
   2141c:	03010513          	add	a0,sp,48
   21420:	c44ff0ef          	jal	20864 <_Z10packetLoopR4GPIOR8EthernetNS1_9macAddr_sEtb>
   21424:	00024537          	lui	a0,0x24
   21428:	97450513          	add	a0,a0,-1676 # 23974 <__clzsi2+0x434>
   2142c:	305000ef          	jal	21f30 <_ZN9SerialOut6printfEPKcz>
   21430:	00100713          	li	a4,1
   21434:	00000693          	li	a3,0
   21438:	00100613          	li	a2,1
   2143c:	00100593          	li	a1,1
   21440:	04410513          	add	a0,sp,68
   21444:	0b1010ef          	jal	22cf4 <_ZN8Ethernet4initENS_10ethSpeed_eENS_11ethDuplex_eEbNS_9ethMode_eE>
   21448:	3e800593          	li	a1,1000
   2144c:	00000613          	li	a2,0
   21450:	00c10513          	add	a0,sp,12
   21454:	689000ef          	jal	222dc <_ZN5Timer5delayEy>
   21458:	8f048513          	add	a0,s1,-1808
   2145c:	289000ef          	jal	21ee4 <_ZN9SerialOut7printlnEPKcz>
   21460:	04410513          	add	a0,sp,68
   21464:	1bc010ef          	jal	22620 <_ZN8Ethernet8isLinkedEv>
   21468:	fe050ce3          	beqz	a0,21460 <ethernet+0x5dc>
   2146c:	90c40513          	add	a0,s0,-1780
   21470:	275000ef          	jal	21ee4 <_ZN9SerialOut7printlnEPKcz>
   21474:	3e800593          	li	a1,1000
   21478:	00000613          	li	a2,0
   2147c:	00c10513          	add	a0,sp,12
   21480:	65d000ef          	jal	222dc <_ZN5Timer5delayEy>
   21484:	00412603          	lw	a2,4(sp)
   21488:	00812683          	lw	a3,8(sp)
   2148c:	00100793          	li	a5,1
   21490:	64000713          	li	a4,1600
   21494:	04410593          	add	a1,sp,68
   21498:	03010513          	add	a0,sp,48
   2149c:	bc8ff0ef          	jal	20864 <_Z10packetLoopR4GPIOR8EthernetNS1_9macAddr_sEtb>
   214a0:	00024537          	lui	a0,0x24
   214a4:	9bc50513          	add	a0,a0,-1604 # 239bc <__clzsi2+0x47c>
   214a8:	289000ef          	jal	21f30 <_ZN9SerialOut6printfEPKcz>
   214ac:	00100713          	li	a4,1
   214b0:	00000693          	li	a3,0
   214b4:	00100613          	li	a2,1
   214b8:	00000593          	li	a1,0
   214bc:	04410513          	add	a0,sp,68
   214c0:	035010ef          	jal	22cf4 <_ZN8Ethernet4initENS_10ethSpeed_eENS_11ethDuplex_eEbNS_9ethMode_eE>
   214c4:	3e800593          	li	a1,1000
   214c8:	00000613          	li	a2,0
   214cc:	00c10513          	add	a0,sp,12
   214d0:	60d000ef          	jal	222dc <_ZN5Timer5delayEy>
   214d4:	8f048513          	add	a0,s1,-1808
   214d8:	20d000ef          	jal	21ee4 <_ZN9SerialOut7printlnEPKcz>
   214dc:	04410513          	add	a0,sp,68
   214e0:	140010ef          	jal	22620 <_ZN8Ethernet8isLinkedEv>
   214e4:	fe050ce3          	beqz	a0,214dc <ethernet+0x658>
   214e8:	90c40513          	add	a0,s0,-1780
   214ec:	1f9000ef          	jal	21ee4 <_ZN9SerialOut7printlnEPKcz>
   214f0:	3e800593          	li	a1,1000
   214f4:	00000613          	li	a2,0
   214f8:	00c10513          	add	a0,sp,12
   214fc:	5e1000ef          	jal	222dc <_ZN5Timer5delayEy>
   21500:	00412603          	lw	a2,4(sp)
   21504:	00812683          	lw	a3,8(sp)
   21508:	04410593          	add	a1,sp,68
   2150c:	00100793          	li	a5,1
   21510:	64000713          	li	a4,1600
   21514:	03010513          	add	a0,sp,48
   21518:	b4cff0ef          	jal	20864 <_Z10packetLoopR4GPIOR8EthernetNS1_9macAddr_sEtb>
   2151c:	04410513          	add	a0,sp,68
   21520:	548010ef          	jal	22a68 <_ZN8EthernetD1Ev>
   21524:	00c10513          	add	a0,sp,12
   21528:	459000ef          	jal	22180 <_ZN5TimerD1Ev>
   2152c:	03010513          	add	a0,sp,48
   21530:	289000ef          	jal	21fb8 <_ZN4GPIOD1Ev>
   21534:	06c12083          	lw	ra,108(sp)
   21538:	06812403          	lw	s0,104(sp)
   2153c:	06412483          	lw	s1,100(sp)
   21540:	07010113          	add	sp,sp,112
   21544:	00008067          	ret

00021548 <_ZN9SerialOut4initEmbN4UART12parityMode_eENS0_10stopBits_eENS0_12dataLenght_eE>:
   21548:	000247b7          	lui	a5,0x24
   2154c:	28b01813          	bset	a6,zero,0xb
   21550:	3307a223          	sw	a6,804(a5) # 24324 <_ZN9SerialOut6statusE>
   21554:	3247a803          	lw	a6,804(a5)
   21558:	00480813          	add	a6,a6,4
   2155c:	000248b7          	lui	a7,0x24
   21560:	3308a023          	sw	a6,800(a7) # 24320 <_ZN9SerialOut8bufferTXE>
   21564:	3247a883          	lw	a7,804(a5)
   21568:	0015f593          	and	a1,a1,1
   2156c:	00b59813          	sll	a6,a1,0xb
   21570:	0008a583          	lw	a1,0(a7)
   21574:	48b59593          	bclr	a1,a1,0xb
   21578:	0105e5b3          	or	a1,a1,a6
   2157c:	00b8a023          	sw	a1,0(a7)
   21580:	3247a803          	lw	a6,804(a5)
   21584:	00377713          	and	a4,a4,3
   21588:	00e71593          	sll	a1,a4,0xe
   2158c:	00082703          	lw	a4,0(a6)
   21590:	48e71713          	bclr	a4,a4,0xe
   21594:	48f71713          	bclr	a4,a4,0xf
   21598:	00b76733          	or	a4,a4,a1
   2159c:	00e82023          	sw	a4,0(a6)
   215a0:	3247a583          	lw	a1,804(a5)
   215a4:	0016f693          	and	a3,a3,1
   215a8:	00d69693          	sll	a3,a3,0xd
   215ac:	0005a703          	lw	a4,0(a1)
   215b0:	48d71713          	bclr	a4,a4,0xd
   215b4:	00d76733          	or	a4,a4,a3
   215b8:	00e5a023          	sw	a4,0(a1)
   215bc:	3247a683          	lw	a3,804(a5)
   215c0:	00167613          	and	a2,a2,1
   215c4:	00c61713          	sll	a4,a2,0xc
   215c8:	0006a603          	lw	a2,0(a3)
   215cc:	48c61613          	bclr	a2,a2,0xc
   215d0:	00e66633          	or	a2,a2,a4
   215d4:	00c6a023          	sw	a2,0(a3)
   215d8:	00451513          	sll	a0,a0,0x4
   215dc:	05f5e737          	lui	a4,0x5f5e
   215e0:	10070713          	add	a4,a4,256 # 5f5e100 <_ZN9SerialOut6statusE+0x5f39ddc>
   215e4:	02a75733          	divu	a4,a4,a0
   215e8:	fff70713          	add	a4,a4,-1
   215ec:	3247a603          	lw	a2,804(a5)
   215f0:	01171713          	sll	a4,a4,0x11
   215f4:	00062683          	lw	a3,0(a2)
   215f8:	00f69693          	sll	a3,a3,0xf
   215fc:	00f6d693          	srl	a3,a3,0xf
   21600:	00e6e733          	or	a4,a3,a4
   21604:	00e62023          	sw	a4,0(a2)
   21608:	3247a683          	lw	a3,804(a5)
   2160c:	0006a703          	lw	a4,0(a3)
   21610:	dff77713          	and	a4,a4,-513
   21614:	00e6a023          	sw	a4,0(a3)
   21618:	3247a703          	lw	a4,804(a5)
   2161c:	00072783          	lw	a5,0(a4)
   21620:	4007e793          	or	a5,a5,1024
   21624:	00f72023          	sw	a5,0(a4)
   21628:	00008067          	ret

0002162c <_ZN9SerialOut5writeEc>:
   2162c:	00024737          	lui	a4,0x24
   21630:	32472783          	lw	a5,804(a4) # 24324 <_ZN9SerialOut6statusE>
   21634:	0007a783          	lw	a5,0(a5)
   21638:	4837d793          	bext	a5,a5,0x3
   2163c:	fe079ae3          	bnez	a5,21630 <_ZN9SerialOut5writeEc+0x4>
   21640:	000247b7          	lui	a5,0x24
   21644:	3207a783          	lw	a5,800(a5) # 24320 <_ZN9SerialOut8bufferTXE>
   21648:	00a78023          	sb	a0,0(a5)
   2164c:	00008067          	ret

00021650 <_ZN9SerialOut5writeEPKcm>:
   21650:	02058c63          	beqz	a1,21688 <_ZN9SerialOut5writeEPKcm+0x38>
   21654:	00050693          	mv	a3,a0
   21658:	00b505b3          	add	a1,a0,a1
   2165c:	00024737          	lui	a4,0x24
   21660:	00024537          	lui	a0,0x24
   21664:	32472783          	lw	a5,804(a4) # 24324 <_ZN9SerialOut6statusE>
   21668:	0007a783          	lw	a5,0(a5)
   2166c:	4837d793          	bext	a5,a5,0x3
   21670:	fe079ae3          	bnez	a5,21664 <_ZN9SerialOut5writeEPKcm+0x14>
   21674:	32052783          	lw	a5,800(a0) # 24320 <_ZN9SerialOut8bufferTXE>
   21678:	0006c603          	lbu	a2,0(a3)
   2167c:	00c78023          	sb	a2,0(a5)
   21680:	00168693          	add	a3,a3,1
   21684:	feb690e3          	bne	a3,a1,21664 <_ZN9SerialOut5writeEPKcm+0x14>
   21688:	00008067          	ret

0002168c <_ZN9SerialOut5writeEPKc>:
   2168c:	ff010113          	add	sp,sp,-16
   21690:	00112623          	sw	ra,12(sp)
   21694:	00054783          	lbu	a5,0(a0)
   21698:	02078463          	beqz	a5,216c0 <_ZN9SerialOut5writeEPKc+0x34>
   2169c:	00000593          	li	a1,0
   216a0:	00158593          	add	a1,a1,1
   216a4:	00b507b3          	add	a5,a0,a1
   216a8:	0007c783          	lbu	a5,0(a5)
   216ac:	fe079ae3          	bnez	a5,216a0 <_ZN9SerialOut5writeEPKc+0x14>
   216b0:	fa1ff0ef          	jal	21650 <_ZN9SerialOut5writeEPKcm>
   216b4:	00c12083          	lw	ra,12(sp)
   216b8:	01010113          	add	sp,sp,16
   216bc:	00008067          	ret
   216c0:	00000593          	li	a1,0
   216c4:	fedff06f          	j	216b0 <_ZN9SerialOut5writeEPKc+0x24>

000216c8 <_ZN9SerialOut7vprintfEPKcPv>:
   216c8:	f9010113          	add	sp,sp,-112
   216cc:	06112623          	sw	ra,108(sp)
   216d0:	06812423          	sw	s0,104(sp)
   216d4:	00050413          	mv	s0,a0
   216d8:	00054503          	lbu	a0,0(a0)
   216dc:	7e050c63          	beqz	a0,21ed4 <_ZN9SerialOut7vprintfEPKcPv+0x80c>
   216e0:	06912223          	sw	s1,100(sp)
   216e4:	07212023          	sw	s2,96(sp)
   216e8:	05312e23          	sw	s3,92(sp)
   216ec:	05412c23          	sw	s4,88(sp)
   216f0:	05512a23          	sw	s5,84(sp)
   216f4:	05612823          	sw	s6,80(sp)
   216f8:	05712623          	sw	s7,76(sp)
   216fc:	00058b13          	mv	s6,a1
   21700:	00000a93          	li	s5,0
   21704:	02500913          	li	s2,37
   21708:	01600a13          	li	s4,22
   2170c:	000249b7          	lui	s3,0x24
   21710:	a1898993          	add	s3,s3,-1512 # 23a18 <__clzsi2+0x4d8>
   21714:	77c0006f          	j	21e90 <_ZN9SerialOut7vprintfEPKcPv+0x7c8>
   21718:	004b0b93          	add	s7,s6,4
   2171c:	000b2a83          	lw	s5,0(s6)
   21720:	41fadb13          	sra	s6,s5,0x1f
   21724:	100ac463          	bltz	s5,2182c <_ZN9SerialOut7vprintfEPKcPv+0x164>
   21728:	00000593          	li	a1,0
   2172c:	00500613          	li	a2,5
   21730:	ccccd6b7          	lui	a3,0xccccd
   21734:	ccd68693          	add	a3,a3,-819 # cccccccd <_ZN9SerialOut6statusE+0xccca89a9>
   21738:	ccccd537          	lui	a0,0xccccd
   2173c:	ccc50513          	add	a0,a0,-820 # cccccccc <_ZN9SerialOut6statusE+0xccca89a8>
   21740:	016a87b3          	add	a5,s5,s6
   21744:	0157b733          	sltu	a4,a5,s5
   21748:	00e787b3          	add	a5,a5,a4
   2174c:	02c7f7b3          	remu	a5,a5,a2
   21750:	40fa87b3          	sub	a5,s5,a5
   21754:	02d787b3          	mul	a5,a5,a3
   21758:	0017d793          	srl	a5,a5,0x1
   2175c:	20f7c7b3          	sh2add	a5,a5,a5
   21760:	00179793          	sll	a5,a5,0x1
   21764:	40fa87b3          	sub	a5,s5,a5
   21768:	03078793          	add	a5,a5,48
   2176c:	000a8e13          	mv	t3,s5
   21770:	000b0313          	mv	t1,s6
   21774:	016a8733          	add	a4,s5,s6
   21778:	01573833          	sltu	a6,a4,s5
   2177c:	01070733          	add	a4,a4,a6
   21780:	02c77733          	remu	a4,a4,a2
   21784:	40ea8733          	sub	a4,s5,a4
   21788:	00eab833          	sltu	a6,s5,a4
   2178c:	410b0833          	sub	a6,s6,a6
   21790:	02d80833          	mul	a6,a6,a3
   21794:	02a708b3          	mul	a7,a4,a0
   21798:	01180833          	add	a6,a6,a7
   2179c:	02d708b3          	mul	a7,a4,a3
   217a0:	02d73733          	mulhu	a4,a4,a3
   217a4:	00e80733          	add	a4,a6,a4
   217a8:	01f71a93          	sll	s5,a4,0x1f
   217ac:	0018d813          	srl	a6,a7,0x1
   217b0:	010aeab3          	or	s5,s5,a6
   217b4:	00175b13          	srl	s6,a4,0x1
   217b8:	00058813          	mv	a6,a1
   217bc:	00158593          	add	a1,a1,1
   217c0:	00b10733          	add	a4,sp,a1
   217c4:	fef70fa3          	sb	a5,-1(a4)
   217c8:	f6031ce3          	bnez	t1,21740 <_ZN9SerialOut7vprintfEPKcPv+0x78>
   217cc:	00031663          	bnez	t1,217d8 <_ZN9SerialOut7vprintfEPKcPv+0x110>
   217d0:	00900793          	li	a5,9
   217d4:	f7c7e6e3          	bltu	a5,t3,21740 <_ZN9SerialOut7vprintfEPKcPv+0x78>
   217d8:	0015d893          	srl	a7,a1,0x1
   217dc:	00100793          	li	a5,1
   217e0:	02b7f863          	bgeu	a5,a1,21810 <_ZN9SerialOut7vprintfEPKcPv+0x148>
   217e4:	010107b3          	add	a5,sp,a6
   217e8:	00010713          	mv	a4,sp
   217ec:	00078513          	mv	a0,a5
   217f0:	0007c683          	lbu	a3,0(a5)
   217f4:	00074603          	lbu	a2,0(a4)
   217f8:	00c78023          	sb	a2,0(a5)
   217fc:	00d70023          	sb	a3,0(a4)
   21800:	fff78793          	add	a5,a5,-1
   21804:	00170713          	add	a4,a4,1
   21808:	40f506b3          	sub	a3,a0,a5
   2180c:	ff16e2e3          	bltu	a3,a7,217f0 <_ZN9SerialOut7vprintfEPKcPv+0x128>
   21810:	00010513          	mv	a0,sp
   21814:	e3dff0ef          	jal	21650 <_ZN9SerialOut5writeEPKcm>
   21818:	00000513          	li	a0,0
   2181c:	e11ff0ef          	jal	2162c <_ZN9SerialOut5writeEc>
   21820:	000b8b13          	mv	s6,s7
   21824:	00048a93          	mv	s5,s1
   21828:	6580006f          	j	21e80 <_ZN9SerialOut7vprintfEPKcPv+0x7b8>
   2182c:	015037b3          	snez	a5,s5
   21830:	41600b33          	neg	s6,s6
   21834:	40fb0b33          	sub	s6,s6,a5
   21838:	41500ab3          	neg	s5,s5
   2183c:	02d00513          	li	a0,45
   21840:	dedff0ef          	jal	2162c <_ZN9SerialOut5writeEc>
   21844:	ee5ff06f          	j	21728 <_ZN9SerialOut7vprintfEPKcPv+0x60>
   21848:	007b0793          	add	a5,s6,7
   2184c:	ff87f793          	and	a5,a5,-8
   21850:	00878b13          	add	s6,a5,8
   21854:	0007aa83          	lw	s5,0(a5)
   21858:	0047ab83          	lw	s7,4(a5)
   2185c:	100bc263          	bltz	s7,21960 <_ZN9SerialOut7vprintfEPKcPv+0x298>
   21860:	00000593          	li	a1,0
   21864:	00500613          	li	a2,5
   21868:	ccccd6b7          	lui	a3,0xccccd
   2186c:	ccd68693          	add	a3,a3,-819 # cccccccd <_ZN9SerialOut6statusE+0xccca89a9>
   21870:	ccccd537          	lui	a0,0xccccd
   21874:	ccc50513          	add	a0,a0,-820 # cccccccc <_ZN9SerialOut6statusE+0xccca89a8>
   21878:	017a87b3          	add	a5,s5,s7
   2187c:	0157b733          	sltu	a4,a5,s5
   21880:	00e787b3          	add	a5,a5,a4
   21884:	02c7f7b3          	remu	a5,a5,a2
   21888:	40fa87b3          	sub	a5,s5,a5
   2188c:	02d787b3          	mul	a5,a5,a3
   21890:	0017d793          	srl	a5,a5,0x1
   21894:	20f7c7b3          	sh2add	a5,a5,a5
   21898:	00179793          	sll	a5,a5,0x1
   2189c:	40fa87b3          	sub	a5,s5,a5
   218a0:	03078793          	add	a5,a5,48
   218a4:	000a8e13          	mv	t3,s5
   218a8:	000b8313          	mv	t1,s7
   218ac:	017a8733          	add	a4,s5,s7
   218b0:	01573833          	sltu	a6,a4,s5
   218b4:	01070733          	add	a4,a4,a6
   218b8:	02c77733          	remu	a4,a4,a2
   218bc:	40ea8733          	sub	a4,s5,a4
   218c0:	00eab833          	sltu	a6,s5,a4
   218c4:	410b8833          	sub	a6,s7,a6
   218c8:	02d80833          	mul	a6,a6,a3
   218cc:	02a708b3          	mul	a7,a4,a0
   218d0:	01180833          	add	a6,a6,a7
   218d4:	02d708b3          	mul	a7,a4,a3
   218d8:	02d73733          	mulhu	a4,a4,a3
   218dc:	00e80733          	add	a4,a6,a4
   218e0:	01f71a93          	sll	s5,a4,0x1f
   218e4:	0018d813          	srl	a6,a7,0x1
   218e8:	010aeab3          	or	s5,s5,a6
   218ec:	00175b93          	srl	s7,a4,0x1
   218f0:	00058813          	mv	a6,a1
   218f4:	00158593          	add	a1,a1,1
   218f8:	00b10733          	add	a4,sp,a1
   218fc:	fef70fa3          	sb	a5,-1(a4)
   21900:	f6031ce3          	bnez	t1,21878 <_ZN9SerialOut7vprintfEPKcPv+0x1b0>
   21904:	00031663          	bnez	t1,21910 <_ZN9SerialOut7vprintfEPKcPv+0x248>
   21908:	00900793          	li	a5,9
   2190c:	f7c7e6e3          	bltu	a5,t3,21878 <_ZN9SerialOut7vprintfEPKcPv+0x1b0>
   21910:	0015d893          	srl	a7,a1,0x1
   21914:	00100793          	li	a5,1
   21918:	02b7f863          	bgeu	a5,a1,21948 <_ZN9SerialOut7vprintfEPKcPv+0x280>
   2191c:	010107b3          	add	a5,sp,a6
   21920:	00010713          	mv	a4,sp
   21924:	00078513          	mv	a0,a5
   21928:	0007c683          	lbu	a3,0(a5)
   2192c:	00074603          	lbu	a2,0(a4)
   21930:	00c78023          	sb	a2,0(a5)
   21934:	00d70023          	sb	a3,0(a4)
   21938:	fff78793          	add	a5,a5,-1
   2193c:	00170713          	add	a4,a4,1
   21940:	40f506b3          	sub	a3,a0,a5
   21944:	ff16e2e3          	bltu	a3,a7,21928 <_ZN9SerialOut7vprintfEPKcPv+0x260>
   21948:	00010513          	mv	a0,sp
   2194c:	d05ff0ef          	jal	21650 <_ZN9SerialOut5writeEPKcm>
   21950:	00000513          	li	a0,0
   21954:	cd9ff0ef          	jal	2162c <_ZN9SerialOut5writeEc>
   21958:	00048a93          	mv	s5,s1
   2195c:	5240006f          	j	21e80 <_ZN9SerialOut7vprintfEPKcPv+0x7b8>
   21960:	015037b3          	snez	a5,s5
   21964:	41700bb3          	neg	s7,s7
   21968:	40fb8bb3          	sub	s7,s7,a5
   2196c:	41500ab3          	neg	s5,s5
   21970:	02d00513          	li	a0,45
   21974:	cb9ff0ef          	jal	2162c <_ZN9SerialOut5writeEc>
   21978:	ee9ff06f          	j	21860 <_ZN9SerialOut7vprintfEPKcPv+0x198>
   2197c:	004b0a93          	add	s5,s6,4
   21980:	000b2683          	lw	a3,0(s6)
   21984:	00000893          	li	a7,0
   21988:	00000593          	li	a1,0
   2198c:	00500513          	li	a0,5
   21990:	ccccd637          	lui	a2,0xccccd
   21994:	ccd60613          	add	a2,a2,-819 # cccccccd <_ZN9SerialOut6statusE+0xccca89a9>
   21998:	ccccd837          	lui	a6,0xccccd
   2199c:	ccc80813          	add	a6,a6,-820 # cccccccc <_ZN9SerialOut6statusE+0xccca89a8>
   219a0:	011687b3          	add	a5,a3,a7
   219a4:	00d7b733          	sltu	a4,a5,a3
   219a8:	00e787b3          	add	a5,a5,a4
   219ac:	02a7f7b3          	remu	a5,a5,a0
   219b0:	40f687b3          	sub	a5,a3,a5
   219b4:	02c787b3          	mul	a5,a5,a2
   219b8:	0017d793          	srl	a5,a5,0x1
   219bc:	20f7c7b3          	sh2add	a5,a5,a5
   219c0:	00179793          	sll	a5,a5,0x1
   219c4:	40f687b3          	sub	a5,a3,a5
   219c8:	03078793          	add	a5,a5,48
   219cc:	00068e13          	mv	t3,a3
   219d0:	00088313          	mv	t1,a7
   219d4:	01168733          	add	a4,a3,a7
   219d8:	00d73eb3          	sltu	t4,a4,a3
   219dc:	01d70733          	add	a4,a4,t4
   219e0:	02a77733          	remu	a4,a4,a0
   219e4:	40e68733          	sub	a4,a3,a4
   219e8:	00e6b6b3          	sltu	a3,a3,a4
   219ec:	40d886b3          	sub	a3,a7,a3
   219f0:	02c686b3          	mul	a3,a3,a2
   219f4:	030708b3          	mul	a7,a4,a6
   219f8:	011686b3          	add	a3,a3,a7
   219fc:	02c708b3          	mul	a7,a4,a2
   21a00:	02c73733          	mulhu	a4,a4,a2
   21a04:	00e68733          	add	a4,a3,a4
   21a08:	01f71693          	sll	a3,a4,0x1f
   21a0c:	0018d893          	srl	a7,a7,0x1
   21a10:	0116e6b3          	or	a3,a3,a7
   21a14:	00175893          	srl	a7,a4,0x1
   21a18:	00058e93          	mv	t4,a1
   21a1c:	00158593          	add	a1,a1,1
   21a20:	00b10733          	add	a4,sp,a1
   21a24:	fef70fa3          	sb	a5,-1(a4)
   21a28:	f6031ce3          	bnez	t1,219a0 <_ZN9SerialOut7vprintfEPKcPv+0x2d8>
   21a2c:	00031663          	bnez	t1,21a38 <_ZN9SerialOut7vprintfEPKcPv+0x370>
   21a30:	00900793          	li	a5,9
   21a34:	f7c7e6e3          	bltu	a5,t3,219a0 <_ZN9SerialOut7vprintfEPKcPv+0x2d8>
   21a38:	0015d813          	srl	a6,a1,0x1
   21a3c:	00100793          	li	a5,1
   21a40:	02b7f863          	bgeu	a5,a1,21a70 <_ZN9SerialOut7vprintfEPKcPv+0x3a8>
   21a44:	01d107b3          	add	a5,sp,t4
   21a48:	00010713          	mv	a4,sp
   21a4c:	00078513          	mv	a0,a5
   21a50:	0007c683          	lbu	a3,0(a5)
   21a54:	00074603          	lbu	a2,0(a4)
   21a58:	00c78023          	sb	a2,0(a5)
   21a5c:	00d70023          	sb	a3,0(a4)
   21a60:	fff78793          	add	a5,a5,-1
   21a64:	00170713          	add	a4,a4,1
   21a68:	40f506b3          	sub	a3,a0,a5
   21a6c:	ff06e2e3          	bltu	a3,a6,21a50 <_ZN9SerialOut7vprintfEPKcPv+0x388>
   21a70:	00010513          	mv	a0,sp
   21a74:	bddff0ef          	jal	21650 <_ZN9SerialOut5writeEPKcm>
   21a78:	00000513          	li	a0,0
   21a7c:	bb1ff0ef          	jal	2162c <_ZN9SerialOut5writeEc>
   21a80:	000a8b13          	mv	s6,s5
   21a84:	00048a93          	mv	s5,s1
   21a88:	3f80006f          	j	21e80 <_ZN9SerialOut7vprintfEPKcPv+0x7b8>
   21a8c:	002a8a93          	add	s5,s5,2
   21a90:	015407b3          	add	a5,s0,s5
   21a94:	0007c783          	lbu	a5,0(a5)
   21a98:	06400713          	li	a4,100
   21a9c:	10e78a63          	beq	a5,a4,21bb0 <_ZN9SerialOut7vprintfEPKcPv+0x4e8>
   21aa0:	06800713          	li	a4,104
   21aa4:	06e78063          	beq	a5,a4,21b04 <_ZN9SerialOut7vprintfEPKcPv+0x43c>
   21aa8:	06200713          	li	a4,98
   21aac:	1ae79e63          	bne	a5,a4,21c68 <_ZN9SerialOut7vprintfEPKcPv+0x5a0>
   21ab0:	004b0493          	add	s1,s6,4
   21ab4:	000b4783          	lbu	a5,0(s6)
   21ab8:	0047d713          	srl	a4,a5,0x4
   21abc:	00f7f793          	and	a5,a5,15
   21ac0:	00900613          	li	a2,9
   21ac4:	03078693          	add	a3,a5,48
   21ac8:	00f67463          	bgeu	a2,a5,21ad0 <_ZN9SerialOut7vprintfEPKcPv+0x408>
   21acc:	03778693          	add	a3,a5,55
   21ad0:	00900613          	li	a2,9
   21ad4:	03770793          	add	a5,a4,55
   21ad8:	00e66463          	bltu	a2,a4,21ae0 <_ZN9SerialOut7vprintfEPKcPv+0x418>
   21adc:	03070793          	add	a5,a4,48
   21ae0:	00d100a3          	sb	a3,1(sp)
   21ae4:	00f10023          	sb	a5,0(sp)
   21ae8:	00200593          	li	a1,2
   21aec:	00010513          	mv	a0,sp
   21af0:	b61ff0ef          	jal	21650 <_ZN9SerialOut5writeEPKcm>
   21af4:	00000513          	li	a0,0
   21af8:	b35ff0ef          	jal	2162c <_ZN9SerialOut5writeEc>
   21afc:	00048b13          	mv	s6,s1
   21b00:	3800006f          	j	21e80 <_ZN9SerialOut7vprintfEPKcPv+0x7b8>
   21b04:	004b0493          	add	s1,s6,4
   21b08:	000b2703          	lw	a4,0(s6)
   21b0c:	01071793          	sll	a5,a4,0x10
   21b10:	0107d793          	srl	a5,a5,0x10
   21b14:	0047d693          	srl	a3,a5,0x4
   21b18:	00f6f693          	and	a3,a3,15
   21b1c:	00f77713          	and	a4,a4,15
   21b20:	00900593          	li	a1,9
   21b24:	03070613          	add	a2,a4,48
   21b28:	00e5f463          	bgeu	a1,a4,21b30 <_ZN9SerialOut7vprintfEPKcPv+0x468>
   21b2c:	03770613          	add	a2,a4,55
   21b30:	00c10023          	sb	a2,0(sp)
   21b34:	00900613          	li	a2,9
   21b38:	03768713          	add	a4,a3,55
   21b3c:	00d66463          	bltu	a2,a3,21b44 <_ZN9SerialOut7vprintfEPKcPv+0x47c>
   21b40:	03068713          	add	a4,a3,48
   21b44:	00e100a3          	sb	a4,1(sp)
   21b48:	00c7d713          	srl	a4,a5,0xc
   21b4c:	0087d793          	srl	a5,a5,0x8
   21b50:	00f7f793          	and	a5,a5,15
   21b54:	00900613          	li	a2,9
   21b58:	03078693          	add	a3,a5,48
   21b5c:	00f67463          	bgeu	a2,a5,21b64 <_ZN9SerialOut7vprintfEPKcPv+0x49c>
   21b60:	03778693          	add	a3,a5,55
   21b64:	00d10123          	sb	a3,2(sp)
   21b68:	00900693          	li	a3,9
   21b6c:	03770793          	add	a5,a4,55
   21b70:	00e6e463          	bltu	a3,a4,21b78 <_ZN9SerialOut7vprintfEPKcPv+0x4b0>
   21b74:	03070793          	add	a5,a4,48
   21b78:	00014703          	lbu	a4,0(sp)
   21b7c:	00e101a3          	sb	a4,3(sp)
   21b80:	00f10023          	sb	a5,0(sp)
   21b84:	00214783          	lbu	a5,2(sp)
   21b88:	00114703          	lbu	a4,1(sp)
   21b8c:	00e10123          	sb	a4,2(sp)
   21b90:	00f100a3          	sb	a5,1(sp)
   21b94:	00400593          	li	a1,4
   21b98:	00010513          	mv	a0,sp
   21b9c:	ab5ff0ef          	jal	21650 <_ZN9SerialOut5writeEPKcm>
   21ba0:	00000513          	li	a0,0
   21ba4:	a89ff0ef          	jal	2162c <_ZN9SerialOut5writeEc>
   21ba8:	00048b13          	mv	s6,s1
   21bac:	2d40006f          	j	21e80 <_ZN9SerialOut7vprintfEPKcPv+0x7b8>
   21bb0:	007b0793          	add	a5,s6,7
   21bb4:	ff87f793          	and	a5,a5,-8
   21bb8:	00878b13          	add	s6,a5,8
   21bbc:	0007a703          	lw	a4,0(a5)
   21bc0:	0047a503          	lw	a0,4(a5)
   21bc4:	00010593          	mv	a1,sp
   21bc8:	01010893          	add	a7,sp,16
   21bcc:	00058693          	mv	a3,a1
   21bd0:	00900813          	li	a6,9
   21bd4:	0300006f          	j	21c04 <_ZN9SerialOut7vprintfEPKcPv+0x53c>
   21bd8:	03060613          	add	a2,a2,48
   21bdc:	00c68023          	sb	a2,0(a3)
   21be0:	03c0006f          	j	21c1c <_ZN9SerialOut7vprintfEPKcPv+0x554>
   21be4:	03778793          	add	a5,a5,55
   21be8:	00f680a3          	sb	a5,1(a3)
   21bec:	01851793          	sll	a5,a0,0x18
   21bf0:	00875713          	srl	a4,a4,0x8
   21bf4:	00e7e733          	or	a4,a5,a4
   21bf8:	00855513          	srl	a0,a0,0x8
   21bfc:	00268693          	add	a3,a3,2
   21c00:	03168663          	beq	a3,a7,21c2c <_ZN9SerialOut7vprintfEPKcPv+0x564>
   21c04:	00475793          	srl	a5,a4,0x4
   21c08:	00f7f793          	and	a5,a5,15
   21c0c:	00f77613          	and	a2,a4,15
   21c10:	fcc874e3          	bgeu	a6,a2,21bd8 <_ZN9SerialOut7vprintfEPKcPv+0x510>
   21c14:	03760613          	add	a2,a2,55
   21c18:	00c68023          	sb	a2,0(a3)
   21c1c:	fcf864e3          	bltu	a6,a5,21be4 <_ZN9SerialOut7vprintfEPKcPv+0x51c>
   21c20:	03078793          	add	a5,a5,48
   21c24:	00f680a3          	sb	a5,1(a3)
   21c28:	fc5ff06f          	j	21bec <_ZN9SerialOut7vprintfEPKcPv+0x524>
   21c2c:	00858613          	add	a2,a1,8
   21c30:	00058793          	mv	a5,a1
   21c34:	00f5c703          	lbu	a4,15(a1)
   21c38:	0007c683          	lbu	a3,0(a5)
   21c3c:	00d587a3          	sb	a3,15(a1)
   21c40:	00e78023          	sb	a4,0(a5)
   21c44:	fff58593          	add	a1,a1,-1
   21c48:	00178793          	add	a5,a5,1
   21c4c:	fec794e3          	bne	a5,a2,21c34 <_ZN9SerialOut7vprintfEPKcPv+0x56c>
   21c50:	01000593          	li	a1,16
   21c54:	00010513          	mv	a0,sp
   21c58:	9f9ff0ef          	jal	21650 <_ZN9SerialOut5writeEPKcm>
   21c5c:	00000513          	li	a0,0
   21c60:	9cdff0ef          	jal	2162c <_ZN9SerialOut5writeEc>
   21c64:	21c0006f          	j	21e80 <_ZN9SerialOut7vprintfEPKcPv+0x7b8>
   21c68:	004b0a93          	add	s5,s6,4
   21c6c:	000b2583          	lw	a1,0(s6)
   21c70:	00010613          	mv	a2,sp
   21c74:	00810813          	add	a6,sp,8
   21c78:	00060713          	mv	a4,a2
   21c7c:	00900513          	li	a0,9
   21c80:	0240006f          	j	21ca4 <_ZN9SerialOut7vprintfEPKcPv+0x5dc>
   21c84:	03068693          	add	a3,a3,48
   21c88:	00d70023          	sb	a3,0(a4)
   21c8c:	0300006f          	j	21cbc <_ZN9SerialOut7vprintfEPKcPv+0x5f4>
   21c90:	03778793          	add	a5,a5,55
   21c94:	00f700a3          	sb	a5,1(a4)
   21c98:	0085d593          	srl	a1,a1,0x8
   21c9c:	00270713          	add	a4,a4,2
   21ca0:	03070663          	beq	a4,a6,21ccc <_ZN9SerialOut7vprintfEPKcPv+0x604>
   21ca4:	0045d793          	srl	a5,a1,0x4
   21ca8:	00f7f793          	and	a5,a5,15
   21cac:	00f5f693          	and	a3,a1,15
   21cb0:	fcd57ae3          	bgeu	a0,a3,21c84 <_ZN9SerialOut7vprintfEPKcPv+0x5bc>
   21cb4:	03768693          	add	a3,a3,55
   21cb8:	00d70023          	sb	a3,0(a4)
   21cbc:	fcf56ae3          	bltu	a0,a5,21c90 <_ZN9SerialOut7vprintfEPKcPv+0x5c8>
   21cc0:	03078793          	add	a5,a5,48
   21cc4:	00f700a3          	sb	a5,1(a4)
   21cc8:	fd1ff06f          	j	21c98 <_ZN9SerialOut7vprintfEPKcPv+0x5d0>
   21ccc:	00460593          	add	a1,a2,4
   21cd0:	00060793          	mv	a5,a2
   21cd4:	00764703          	lbu	a4,7(a2)
   21cd8:	0007c683          	lbu	a3,0(a5)
   21cdc:	00d603a3          	sb	a3,7(a2)
   21ce0:	00e78023          	sb	a4,0(a5)
   21ce4:	fff60613          	add	a2,a2,-1
   21ce8:	00178793          	add	a5,a5,1
   21cec:	fef594e3          	bne	a1,a5,21cd4 <_ZN9SerialOut7vprintfEPKcPv+0x60c>
   21cf0:	00800593          	li	a1,8
   21cf4:	00010513          	mv	a0,sp
   21cf8:	959ff0ef          	jal	21650 <_ZN9SerialOut5writeEPKcm>
   21cfc:	00000513          	li	a0,0
   21d00:	92dff0ef          	jal	2162c <_ZN9SerialOut5writeEc>
   21d04:	000a8b13          	mv	s6,s5
   21d08:	00048a93          	mv	s5,s1
   21d0c:	1740006f          	j	21e80 <_ZN9SerialOut7vprintfEPKcPv+0x7b8>
   21d10:	002a8a93          	add	s5,s5,2
   21d14:	015407b3          	add	a5,s0,s5
   21d18:	0007c783          	lbu	a5,0(a5)
   21d1c:	06400713          	li	a4,100
   21d20:	0ae78063          	beq	a5,a4,21dc0 <_ZN9SerialOut7vprintfEPKcPv+0x6f8>
   21d24:	06800713          	li	a4,104
   21d28:	04e78863          	beq	a5,a4,21d78 <_ZN9SerialOut7vprintfEPKcPv+0x6b0>
   21d2c:	06200713          	li	a4,98
   21d30:	0ee79663          	bne	a5,a4,21e1c <_ZN9SerialOut7vprintfEPKcPv+0x754>
   21d34:	004b0493          	add	s1,s6,4
   21d38:	000b4683          	lbu	a3,0(s6)
   21d3c:	00010793          	mv	a5,sp
   21d40:	ff810613          	add	a2,sp,-8
   21d44:	0016f713          	and	a4,a3,1
   21d48:	03070713          	add	a4,a4,48
   21d4c:	00e783a3          	sb	a4,7(a5)
   21d50:	0016d693          	srl	a3,a3,0x1
   21d54:	fff78793          	add	a5,a5,-1
   21d58:	fec796e3          	bne	a5,a2,21d44 <_ZN9SerialOut7vprintfEPKcPv+0x67c>
   21d5c:	00800593          	li	a1,8
   21d60:	00010513          	mv	a0,sp
   21d64:	8edff0ef          	jal	21650 <_ZN9SerialOut5writeEPKcm>
   21d68:	00000513          	li	a0,0
   21d6c:	8c1ff0ef          	jal	2162c <_ZN9SerialOut5writeEc>
   21d70:	00048b13          	mv	s6,s1
   21d74:	10c0006f          	j	21e80 <_ZN9SerialOut7vprintfEPKcPv+0x7b8>
   21d78:	004b0493          	add	s1,s6,4
   21d7c:	000b5683          	lhu	a3,0(s6)
   21d80:	00f10793          	add	a5,sp,15
   21d84:	00010613          	mv	a2,sp
   21d88:	0016f713          	and	a4,a3,1
   21d8c:	03070713          	add	a4,a4,48
   21d90:	00e78023          	sb	a4,0(a5)
   21d94:	0016d693          	srl	a3,a3,0x1
   21d98:	00078713          	mv	a4,a5
   21d9c:	fff78793          	add	a5,a5,-1
   21da0:	fec714e3          	bne	a4,a2,21d88 <_ZN9SerialOut7vprintfEPKcPv+0x6c0>
   21da4:	01000593          	li	a1,16
   21da8:	00010513          	mv	a0,sp
   21dac:	8a5ff0ef          	jal	21650 <_ZN9SerialOut5writeEPKcm>
   21db0:	00000513          	li	a0,0
   21db4:	879ff0ef          	jal	2162c <_ZN9SerialOut5writeEc>
   21db8:	00048b13          	mv	s6,s1
   21dbc:	0c40006f          	j	21e80 <_ZN9SerialOut7vprintfEPKcPv+0x7b8>
   21dc0:	007b0713          	add	a4,s6,7
   21dc4:	ff877713          	and	a4,a4,-8
   21dc8:	00870b13          	add	s6,a4,8
   21dcc:	00072783          	lw	a5,0(a4)
   21dd0:	00472603          	lw	a2,4(a4)
   21dd4:	03f10713          	add	a4,sp,63
   21dd8:	00010593          	mv	a1,sp
   21ddc:	0017f693          	and	a3,a5,1
   21de0:	03068693          	add	a3,a3,48
   21de4:	00d70023          	sb	a3,0(a4)
   21de8:	01f61693          	sll	a3,a2,0x1f
   21dec:	0017d793          	srl	a5,a5,0x1
   21df0:	00f6e7b3          	or	a5,a3,a5
   21df4:	00165613          	srl	a2,a2,0x1
   21df8:	00070693          	mv	a3,a4
   21dfc:	fff70713          	add	a4,a4,-1
   21e00:	fcd59ee3          	bne	a1,a3,21ddc <_ZN9SerialOut7vprintfEPKcPv+0x714>
   21e04:	04000593          	li	a1,64
   21e08:	00010513          	mv	a0,sp
   21e0c:	845ff0ef          	jal	21650 <_ZN9SerialOut5writeEPKcm>
   21e10:	00000513          	li	a0,0
   21e14:	819ff0ef          	jal	2162c <_ZN9SerialOut5writeEc>
   21e18:	0680006f          	j	21e80 <_ZN9SerialOut7vprintfEPKcPv+0x7b8>
   21e1c:	004b0a93          	add	s5,s6,4
   21e20:	000b2683          	lw	a3,0(s6)
   21e24:	01f10793          	add	a5,sp,31
   21e28:	00010613          	mv	a2,sp
   21e2c:	0016f713          	and	a4,a3,1
   21e30:	03070713          	add	a4,a4,48
   21e34:	00e78023          	sb	a4,0(a5)
   21e38:	0016d693          	srl	a3,a3,0x1
   21e3c:	00078713          	mv	a4,a5
   21e40:	fff78793          	add	a5,a5,-1
   21e44:	fee614e3          	bne	a2,a4,21e2c <_ZN9SerialOut7vprintfEPKcPv+0x764>
   21e48:	02000593          	li	a1,32
   21e4c:	00010513          	mv	a0,sp
   21e50:	801ff0ef          	jal	21650 <_ZN9SerialOut5writeEPKcm>
   21e54:	00000513          	li	a0,0
   21e58:	fd4ff0ef          	jal	2162c <_ZN9SerialOut5writeEc>
   21e5c:	000a8b13          	mv	s6,s5
   21e60:	00048a93          	mv	s5,s1
   21e64:	01c0006f          	j	21e80 <_ZN9SerialOut7vprintfEPKcPv+0x7b8>
   21e68:	00024537          	lui	a0,0x24
   21e6c:	a0450513          	add	a0,a0,-1532 # 23a04 <__clzsi2+0x4c4>
   21e70:	81dff0ef          	jal	2168c <_ZN9SerialOut5writeEPKc>
   21e74:	00048a93          	mv	s5,s1
   21e78:	0080006f          	j	21e80 <_ZN9SerialOut7vprintfEPKcPv+0x7b8>
   21e7c:	fb0ff0ef          	jal	2162c <_ZN9SerialOut5writeEc>
   21e80:	001a8a93          	add	s5,s5,1
   21e84:	015407b3          	add	a5,s0,s5
   21e88:	0007c503          	lbu	a0,0(a5)
   21e8c:	02050663          	beqz	a0,21eb8 <_ZN9SerialOut7vprintfEPKcPv+0x7f0>
   21e90:	ff2516e3          	bne	a0,s2,21e7c <_ZN9SerialOut7vprintfEPKcPv+0x7b4>
   21e94:	001a8493          	add	s1,s5,1
   21e98:	009407b3          	add	a5,s0,s1
   21e9c:	0007c783          	lbu	a5,0(a5)
   21ea0:	f9e78793          	add	a5,a5,-98
   21ea4:	0ff7f713          	zext.b	a4,a5
   21ea8:	fcea60e3          	bltu	s4,a4,21e68 <_ZN9SerialOut7vprintfEPKcPv+0x7a0>
   21eac:	213747b3          	sh2add	a5,a4,s3
   21eb0:	0007a783          	lw	a5,0(a5)
   21eb4:	00078067          	jr	a5
   21eb8:	06412483          	lw	s1,100(sp)
   21ebc:	06012903          	lw	s2,96(sp)
   21ec0:	05c12983          	lw	s3,92(sp)
   21ec4:	05812a03          	lw	s4,88(sp)
   21ec8:	05412a83          	lw	s5,84(sp)
   21ecc:	05012b03          	lw	s6,80(sp)
   21ed0:	04c12b83          	lw	s7,76(sp)
   21ed4:	06c12083          	lw	ra,108(sp)
   21ed8:	06812403          	lw	s0,104(sp)
   21edc:	07010113          	add	sp,sp,112
   21ee0:	00008067          	ret

00021ee4 <_ZN9SerialOut7printlnEPKcz>:
   21ee4:	fc010113          	add	sp,sp,-64
   21ee8:	00112e23          	sw	ra,28(sp)
   21eec:	02b12223          	sw	a1,36(sp)
   21ef0:	02c12423          	sw	a2,40(sp)
   21ef4:	02d12623          	sw	a3,44(sp)
   21ef8:	02e12823          	sw	a4,48(sp)
   21efc:	02f12a23          	sw	a5,52(sp)
   21f00:	03012c23          	sw	a6,56(sp)
   21f04:	03112e23          	sw	a7,60(sp)
   21f08:	02410593          	add	a1,sp,36
   21f0c:	00b12623          	sw	a1,12(sp)
   21f10:	fb8ff0ef          	jal	216c8 <_ZN9SerialOut7vprintfEPKcPv>
   21f14:	00a00513          	li	a0,10
   21f18:	f14ff0ef          	jal	2162c <_ZN9SerialOut5writeEc>
   21f1c:	00000513          	li	a0,0
   21f20:	f0cff0ef          	jal	2162c <_ZN9SerialOut5writeEc>
   21f24:	01c12083          	lw	ra,28(sp)
   21f28:	04010113          	add	sp,sp,64
   21f2c:	00008067          	ret

00021f30 <_ZN9SerialOut6printfEPKcz>:
   21f30:	fc010113          	add	sp,sp,-64
   21f34:	00112e23          	sw	ra,28(sp)
   21f38:	02b12223          	sw	a1,36(sp)
   21f3c:	02c12423          	sw	a2,40(sp)
   21f40:	02d12623          	sw	a3,44(sp)
   21f44:	02e12823          	sw	a4,48(sp)
   21f48:	02f12a23          	sw	a5,52(sp)
   21f4c:	03012c23          	sw	a6,56(sp)
   21f50:	03112e23          	sw	a7,60(sp)
   21f54:	02410593          	add	a1,sp,36
   21f58:	00b12623          	sw	a1,12(sp)
   21f5c:	f6cff0ef          	jal	216c8 <_ZN9SerialOut7vprintfEPKcPv>
   21f60:	00000513          	li	a0,0
   21f64:	ec8ff0ef          	jal	2162c <_ZN9SerialOut5writeEc>
   21f68:	01c12083          	lw	ra,28(sp)
   21f6c:	04010113          	add	sp,sp,64
   21f70:	00008067          	ret

00021f74 <_ZN4GPIOC1Em>:
   21f74:	000017b7          	lui	a5,0x1
   21f78:	90078793          	add	a5,a5,-1792 # 900 <boot_program+0x900>
   21f7c:	00f585b3          	add	a1,a1,a5
   21f80:	00b52023          	sw	a1,0(a0)
   21f84:	00b52223          	sw	a1,4(a0)
   21f88:	00458793          	add	a5,a1,4
   21f8c:	00f52423          	sw	a5,8(a0)
   21f90:	00858793          	add	a5,a1,8
   21f94:	00f52623          	sw	a5,12(a0)
   21f98:	00c58793          	add	a5,a1,12
   21f9c:	00f52823          	sw	a5,16(a0)
   21fa0:	00058423          	sb	zero,8(a1)
   21fa4:	00058223          	sb	zero,4(a1)
   21fa8:	00058023          	sb	zero,0(a1)
   21fac:	00100793          	li	a5,1
   21fb0:	00f58623          	sb	a5,12(a1)
   21fb4:	00008067          	ret

00021fb8 <_ZN4GPIOD1Ev>:
   21fb8:	00c52783          	lw	a5,12(a0)
   21fbc:	00078023          	sb	zero,0(a5)
   21fc0:	00852783          	lw	a5,8(a0)
   21fc4:	00078023          	sb	zero,0(a5)
   21fc8:	00452783          	lw	a5,4(a0)
   21fcc:	00078023          	sb	zero,0(a5)
   21fd0:	01052783          	lw	a5,16(a0)
   21fd4:	00078023          	sb	zero,0(a5)
   21fd8:	00008067          	ret

00021fdc <_ZN4GPIO4initEhhhh>:
   21fdc:	00c52803          	lw	a6,12(a0)
   21fe0:	00080023          	sb	zero,0(a6)
   21fe4:	00852803          	lw	a6,8(a0)
   21fe8:	00c80023          	sb	a2,0(a6)
   21fec:	00452603          	lw	a2,4(a0)
   21ff0:	00b60023          	sb	a1,0(a2)
   21ff4:	00c52603          	lw	a2,12(a0)
   21ff8:	00d60023          	sb	a3,0(a2)
   21ffc:	01052783          	lw	a5,16(a0)
   22000:	00e78023          	sb	a4,0(a5)
   22004:	00008067          	ret

00022008 <_ZN4GPIO11setPinValueEmb>:
   22008:	00452703          	lw	a4,4(a0)
   2200c:	00074783          	lbu	a5,0(a4)
   22010:	48b797b3          	bclr	a5,a5,a1
   22014:	00b61633          	sll	a2,a2,a1
   22018:	00c7e7b3          	or	a5,a5,a2
   2201c:	0ff7f793          	zext.b	a5,a5
   22020:	00f70023          	sb	a5,0(a4)
   22024:	00008067          	ret

00022028 <_ZN4GPIO11getPinValueEm>:
   22028:	00452783          	lw	a5,4(a0)
   2202c:	0007c503          	lbu	a0,0(a5)
   22030:	28b017b3          	bset	a5,zero,a1
   22034:	00f57533          	and	a0,a0,a5
   22038:	40b55533          	sra	a0,a0,a1
   2203c:	00a03533          	snez	a0,a0
   22040:	00008067          	ret

00022044 <_ZN4GPIO15setPinDirectionEmNS_14pinDirection_eE>:
   22044:	00852703          	lw	a4,8(a0)
   22048:	00074783          	lbu	a5,0(a4)
   2204c:	48b797b3          	bclr	a5,a5,a1
   22050:	00b61633          	sll	a2,a2,a1
   22054:	00c7e7b3          	or	a5,a5,a2
   22058:	0ff7f793          	zext.b	a5,a5
   2205c:	00f70023          	sb	a5,0(a4)
   22060:	00008067          	ret

00022064 <_ZN4GPIO15getPinDirectionEm>:
   22064:	00852783          	lw	a5,8(a0)
   22068:	0007c503          	lbu	a0,0(a5)
   2206c:	28b017b3          	bset	a5,zero,a1
   22070:	0ff7f793          	zext.b	a5,a5
   22074:	fff7c793          	not	a5,a5
   22078:	00f57533          	and	a0,a0,a5
   2207c:	40b55533          	sra	a0,a0,a1
   22080:	00008067          	ret

00022084 <_ZN4GPIO18setInterruptEnableEmb>:
   22084:	00c52703          	lw	a4,12(a0)
   22088:	00074783          	lbu	a5,0(a4)
   2208c:	48b797b3          	bclr	a5,a5,a1
   22090:	00b61633          	sll	a2,a2,a1
   22094:	00c7e7b3          	or	a5,a5,a2
   22098:	0ff7f793          	zext.b	a5,a5
   2209c:	00f70023          	sb	a5,0(a4)
   220a0:	00008067          	ret

000220a4 <_ZN4GPIO18getInterruptEnableEm>:
   220a4:	00c52783          	lw	a5,12(a0)
   220a8:	0007c503          	lbu	a0,0(a5)
   220ac:	28b017b3          	bset	a5,zero,a1
   220b0:	0ff7f793          	zext.b	a5,a5
   220b4:	fff7c793          	not	a5,a5
   220b8:	00f57533          	and	a0,a0,a5
   220bc:	40b55533          	sra	a0,a0,a1
   220c0:	00a03533          	snez	a0,a0
   220c4:	00008067          	ret

000220c8 <_ZN4GPIO15setTriggerLevelEmNS_14triggerLevel_eE>:
   220c8:	01052703          	lw	a4,16(a0)
   220cc:	00074783          	lbu	a5,0(a4)
   220d0:	48b797b3          	bclr	a5,a5,a1
   220d4:	00b61633          	sll	a2,a2,a1
   220d8:	00c7e7b3          	or	a5,a5,a2
   220dc:	0ff7f793          	zext.b	a5,a5
   220e0:	00f70023          	sb	a5,0(a4)
   220e4:	00008067          	ret

000220e8 <_ZN4GPIO15getTriggerLevelEm>:
   220e8:	01052783          	lw	a5,16(a0)
   220ec:	0007c503          	lbu	a0,0(a5)
   220f0:	28b017b3          	bset	a5,zero,a1
   220f4:	0ff7f793          	zext.b	a5,a5
   220f8:	fff7c793          	not	a5,a5
   220fc:	00f57533          	and	a0,a0,a5
   22100:	40b55533          	sra	a0,a0,a1
   22104:	00008067          	ret

00022108 <_ZN5TimerC1Em>:
   22108:	11058593          	add	a1,a1,272
   2210c:	00359593          	sll	a1,a1,0x3
   22110:	00b52023          	sw	a1,0(a0)
   22114:	00858793          	add	a5,a1,8
   22118:	00f52223          	sw	a5,4(a0)
   2211c:	00b52423          	sw	a1,8(a0)
   22120:	01058793          	add	a5,a1,16
   22124:	00f52623          	sw	a5,12(a0)
   22128:	00c52703          	lw	a4,12(a0)
   2212c:	00072783          	lw	a5,0(a4)
   22130:	ffe7f793          	and	a5,a5,-2
   22134:	00f72023          	sw	a5,0(a4)
   22138:	00c52703          	lw	a4,12(a0)
   2213c:	00072783          	lw	a5,0(a4)
   22140:	ffb7f793          	and	a5,a5,-5
   22144:	00f72023          	sw	a5,0(a4)
   22148:	00000793          	li	a5,0
   2214c:	00000813          	li	a6,0
   22150:	00f5a423          	sw	a5,8(a1)
   22154:	0105a623          	sw	a6,12(a1)
   22158:	00852783          	lw	a5,8(a0)
   2215c:	fff00613          	li	a2,-1
   22160:	fff00693          	li	a3,-1
   22164:	00c7a023          	sw	a2,0(a5)
   22168:	00d7a223          	sw	a3,4(a5)
   2216c:	00c52703          	lw	a4,12(a0)
   22170:	00072783          	lw	a5,0(a4)
   22174:	ffd7f793          	and	a5,a5,-3
   22178:	00f72023          	sw	a5,0(a4)
   2217c:	00008067          	ret

00022180 <_ZN5TimerD1Ev>:
   22180:	00c52703          	lw	a4,12(a0)
   22184:	00072783          	lw	a5,0(a4)
   22188:	ffe7f793          	and	a5,a5,-2
   2218c:	00f72023          	sw	a5,0(a4)
   22190:	00c52703          	lw	a4,12(a0)
   22194:	00072783          	lw	a5,0(a4)
   22198:	ffb7f793          	and	a5,a5,-5
   2219c:	00f72023          	sw	a5,0(a4)
   221a0:	00452783          	lw	a5,4(a0)
   221a4:	00000693          	li	a3,0
   221a8:	00000713          	li	a4,0
   221ac:	00d7a023          	sw	a3,0(a5)
   221b0:	00e7a223          	sw	a4,4(a5)
   221b4:	00852783          	lw	a5,8(a0)
   221b8:	fff00613          	li	a2,-1
   221bc:	fff00693          	li	a3,-1
   221c0:	00c7a023          	sw	a2,0(a5)
   221c4:	00d7a223          	sw	a3,4(a5)
   221c8:	00c52703          	lw	a4,12(a0)
   221cc:	00072783          	lw	a5,0(a4)
   221d0:	ffd7f793          	and	a5,a5,-3
   221d4:	00f72023          	sw	a5,0(a4)
   221d8:	00008067          	ret

000221dc <_ZN5Timer4initEyNS_11timerMode_eE>:
   221dc:	00060893          	mv	a7,a2
   221e0:	00c52603          	lw	a2,12(a0)
   221e4:	00062703          	lw	a4,0(a2)
   221e8:	ffb77713          	and	a4,a4,-5
   221ec:	00e62023          	sw	a4,0(a2)
   221f0:	00852703          	lw	a4,8(a0)
   221f4:	00b72023          	sw	a1,0(a4)
   221f8:	01172223          	sw	a7,4(a4)
   221fc:	00c52603          	lw	a2,12(a0)
   22200:	0016f693          	and	a3,a3,1
   22204:	00169693          	sll	a3,a3,0x1
   22208:	00062703          	lw	a4,0(a2)
   2220c:	ffd77713          	and	a4,a4,-3
   22210:	00d76733          	or	a4,a4,a3
   22214:	00e62023          	sw	a4,0(a2)
   22218:	00452783          	lw	a5,4(a0)
   2221c:	00000693          	li	a3,0
   22220:	00000713          	li	a4,0
   22224:	00d7a023          	sw	a3,0(a5)
   22228:	00e7a223          	sw	a4,4(a5)
   2222c:	00008067          	ret

00022230 <_ZN5Timer12setInterruptEb>:
   22230:	00c52703          	lw	a4,12(a0)
   22234:	0015f593          	and	a1,a1,1
   22238:	00259593          	sll	a1,a1,0x2
   2223c:	00072783          	lw	a5,0(a4)
   22240:	ffb7f793          	and	a5,a5,-5
   22244:	00b7e7b3          	or	a5,a5,a1
   22248:	00f72023          	sw	a5,0(a4)
   2224c:	00008067          	ret

00022250 <_ZN5Timer12setTimerModeENS_11timerMode_eE>:
   22250:	00c52703          	lw	a4,12(a0)
   22254:	0015f593          	and	a1,a1,1
   22258:	00159593          	sll	a1,a1,0x1
   2225c:	00072783          	lw	a5,0(a4)
   22260:	ffd7f793          	and	a5,a5,-3
   22264:	00b7e7b3          	or	a5,a5,a1
   22268:	00f72023          	sw	a5,0(a4)
   2226c:	00008067          	ret

00022270 <_ZNK5Timer16getConfigurationEv>:
   22270:	00c52503          	lw	a0,12(a0)
   22274:	00008067          	ret

00022278 <_ZN5Timer7setTimeEy>:
   22278:	00452683          	lw	a3,4(a0)
   2227c:	00b6a023          	sw	a1,0(a3)
   22280:	00c6a223          	sw	a2,4(a3)
   22284:	00008067          	ret

00022288 <_ZNK5Timer7getTimeEv>:
   22288:	00452783          	lw	a5,4(a0)
   2228c:	0007a503          	lw	a0,0(a5)
   22290:	0047a583          	lw	a1,4(a5)
   22294:	00008067          	ret

00022298 <_ZN5Timer12setThresholdEy>:
   22298:	00852683          	lw	a3,8(a0)
   2229c:	00b6a023          	sw	a1,0(a3)
   222a0:	00c6a223          	sw	a2,4(a3)
   222a4:	00008067          	ret

000222a8 <_ZNK5Timer12getThresholdEv>:
   222a8:	00852783          	lw	a5,8(a0)
   222ac:	0007a503          	lw	a0,0(a5)
   222b0:	0047a583          	lw	a1,4(a5)
   222b4:	00008067          	ret

000222b8 <_ZN5Timer5startEv>:
   222b8:	00c52683          	lw	a3,12(a0)
   222bc:	0006a703          	lw	a4,0(a3)
   222c0:	00176713          	or	a4,a4,1
   222c4:	00e6a023          	sw	a4,0(a3)
   222c8:	00c52703          	lw	a4,12(a0)
   222cc:	00072783          	lw	a5,0(a4)
   222d0:	ff77f793          	and	a5,a5,-9
   222d4:	00f72023          	sw	a5,0(a4)
   222d8:	00008067          	ret

000222dc <_ZN5Timer5delayEy>:
   222dc:	ff010113          	add	sp,sp,-16
   222e0:	00112623          	sw	ra,12(sp)
   222e4:	00812423          	sw	s0,8(sp)
   222e8:	00050413          	mv	s0,a0
   222ec:	00c52703          	lw	a4,12(a0)
   222f0:	00072783          	lw	a5,0(a4)
   222f4:	ffe7f793          	and	a5,a5,-2
   222f8:	00f72023          	sw	a5,0(a4)
   222fc:	00452783          	lw	a5,4(a0)
   22300:	00000693          	li	a3,0
   22304:	00000713          	li	a4,0
   22308:	00d7a023          	sw	a3,0(a5)
   2230c:	00e7a223          	sw	a4,4(a5)
   22310:	000186b7          	lui	a3,0x18
   22314:	6a068693          	add	a3,a3,1696 # 186a0 <boot_program+0x186a0>
   22318:	02d60633          	mul	a2,a2,a3
   2231c:	02d5b7b3          	mulhu	a5,a1,a3
   22320:	02d58733          	mul	a4,a1,a3
   22324:	00f607b3          	add	a5,a2,a5
   22328:	00852683          	lw	a3,8(a0)
   2232c:	00e6a023          	sw	a4,0(a3)
   22330:	00f6a223          	sw	a5,4(a3)
   22334:	f85ff0ef          	jal	222b8 <_ZN5Timer5startEv>
   22338:	00c42783          	lw	a5,12(s0)
   2233c:	0007a783          	lw	a5,0(a5)
   22340:	4837d793          	bext	a5,a5,0x3
   22344:	fe078ae3          	beqz	a5,22338 <_ZN5Timer5delayEy+0x5c>
   22348:	00040513          	mv	a0,s0
   2234c:	00c12083          	lw	ra,12(sp)
   22350:	00812403          	lw	s0,8(sp)
   22354:	01010113          	add	sp,sp,16
   22358:	00008067          	ret

0002235c <_ZN5Timer4stopEv>:
   2235c:	00c52703          	lw	a4,12(a0)
   22360:	00072783          	lw	a5,0(a4)
   22364:	ffe7f793          	and	a5,a5,-2
   22368:	00f72023          	sw	a5,0(a4)
   2236c:	00008067          	ret

00022370 <_ZN5Timer7restartEv>:
   22370:	00452703          	lw	a4,4(a0)
   22374:	00000613          	li	a2,0
   22378:	00000693          	li	a3,0
   2237c:	00c72023          	sw	a2,0(a4)
   22380:	00d72223          	sw	a3,4(a4)
   22384:	00c52703          	lw	a4,12(a0)
   22388:	00072783          	lw	a5,0(a4)
   2238c:	ff77f793          	and	a5,a5,-9
   22390:	00f72023          	sw	a5,0(a4)
   22394:	00008067          	ret

00022398 <_ZNK5Timer9getMillisEv>:
   22398:	ff010113          	add	sp,sp,-16
   2239c:	00112623          	sw	ra,12(sp)
   223a0:	00452783          	lw	a5,4(a0)
   223a4:	0007a503          	lw	a0,0(a5)
   223a8:	0047a583          	lw	a1,4(a5)
   223ac:	00018637          	lui	a2,0x18
   223b0:	6a060613          	add	a2,a2,1696 # 186a0 <boot_program+0x186a0>
   223b4:	00000693          	li	a3,0
   223b8:	2a9000ef          	jal	22e60 <__udivdi3>
   223bc:	00c12083          	lw	ra,12(sp)
   223c0:	01010113          	add	sp,sp,16
   223c4:	00008067          	ret

000223c8 <_ZNK5Timer11timeElapsedENS_12timeFormat_eE>:
   223c8:	ff010113          	add	sp,sp,-16
   223cc:	00112623          	sw	ra,12(sp)
   223d0:	00812423          	sw	s0,8(sp)
   223d4:	00058413          	mv	s0,a1
   223d8:	00452783          	lw	a5,4(a0)
   223dc:	0007a503          	lw	a0,0(a5)
   223e0:	0047a583          	lw	a1,4(a5)
   223e4:	022010ef          	jal	23406 <__floatundisf>
   223e8:	00400793          	li	a5,4
   223ec:	0687ee63          	bltu	a5,s0,22468 <_ZNK5Timer11timeElapsedENS_12timeFormat_eE+0xa0>
   223f0:	000247b7          	lui	a5,0x24
   223f4:	a7478793          	add	a5,a5,-1420 # 23a74 <__clzsi2+0x534>
   223f8:	20f44433          	sh2add	s0,s0,a5
   223fc:	00042783          	lw	a5,0(s0)
   22400:	00078067          	jr	a5
   22404:	000247b7          	lui	a5,0x24
   22408:	bc47a583          	lw	a1,-1084(a5) # 23bc4 <__clz_tab+0x100>
   2240c:	5b3000ef          	jal	231be <__divsf3>
   22410:	00c12083          	lw	ra,12(sp)
   22414:	00812403          	lw	s0,8(sp)
   22418:	01010113          	add	sp,sp,16
   2241c:	00008067          	ret
   22420:	000247b7          	lui	a5,0x24
   22424:	bc87a583          	lw	a1,-1080(a5) # 23bc8 <__clz_tab+0x104>
   22428:	597000ef          	jal	231be <__divsf3>
   2242c:	fe5ff06f          	j	22410 <_ZNK5Timer11timeElapsedENS_12timeFormat_eE+0x48>
   22430:	000247b7          	lui	a5,0x24
   22434:	bc87a583          	lw	a1,-1080(a5) # 23bc8 <__clz_tab+0x104>
   22438:	587000ef          	jal	231be <__divsf3>
   2243c:	000247b7          	lui	a5,0x24
   22440:	bcc7a583          	lw	a1,-1076(a5) # 23bcc <__clz_tab+0x108>
   22444:	57b000ef          	jal	231be <__divsf3>
   22448:	fc9ff06f          	j	22410 <_ZNK5Timer11timeElapsedENS_12timeFormat_eE+0x48>
   2244c:	000247b7          	lui	a5,0x24
   22450:	bc87a583          	lw	a1,-1080(a5) # 23bc8 <__clz_tab+0x104>
   22454:	56b000ef          	jal	231be <__divsf3>
   22458:	000247b7          	lui	a5,0x24
   2245c:	bd07a583          	lw	a1,-1072(a5) # 23bd0 <__clz_tab+0x10c>
   22460:	55f000ef          	jal	231be <__divsf3>
   22464:	fadff06f          	j	22410 <_ZNK5Timer11timeElapsedENS_12timeFormat_eE+0x48>
   22468:	00000513          	li	a0,0
   2246c:	fa5ff06f          	j	22410 <_ZNK5Timer11timeElapsedENS_12timeFormat_eE+0x48>

00022470 <_ZN8Ethernet15setMacInterruptEhbPNS_10ethError_eE>:
   22470:	00300793          	li	a5,3
   22474:	04b7e063          	bltu	a5,a1,224b4 <_ZN8Ethernet15setMacInterruptEhbPNS_10ethError_eE+0x44>
   22478:	04060463          	beqz	a2,224c0 <_ZN8Ethernet15setMacInterruptEhbPNS_10ethError_eE+0x50>
   2247c:	00452683          	lw	a3,4(a0)
   22480:	0006a783          	lw	a5,0(a3)
   22484:	00d7d793          	srl	a5,a5,0xd
   22488:	00f7f793          	and	a5,a5,15
   2248c:	28b797b3          	bset	a5,a5,a1
   22490:	00f7f793          	and	a5,a5,15
   22494:	00d79793          	sll	a5,a5,0xd
   22498:	0006a703          	lw	a4,0(a3)
   2249c:	fffe2637          	lui	a2,0xfffe2
   224a0:	fff60613          	add	a2,a2,-1 # fffe1fff <_ZN9SerialOut6statusE+0xfffbdcdb>
   224a4:	00c77733          	and	a4,a4,a2
   224a8:	00f767b3          	or	a5,a4,a5
   224ac:	00f6a023          	sw	a5,0(a3)
   224b0:	00008067          	ret
   224b4:	00500793          	li	a5,5
   224b8:	00f6a023          	sw	a5,0(a3)
   224bc:	00008067          	ret
   224c0:	00452683          	lw	a3,4(a0)
   224c4:	0006a783          	lw	a5,0(a3)
   224c8:	00d7d793          	srl	a5,a5,0xd
   224cc:	00f7f793          	and	a5,a5,15
   224d0:	48b797b3          	bclr	a5,a5,a1
   224d4:	00d79793          	sll	a5,a5,0xd
   224d8:	0006a703          	lw	a4,0(a3)
   224dc:	fffe2637          	lui	a2,0xfffe2
   224e0:	fff60613          	add	a2,a2,-1 # fffe1fff <_ZN9SerialOut6statusE+0xfffbdcdb>
   224e4:	00c77733          	and	a4,a4,a2
   224e8:	00f767b3          	or	a5,a4,a5
   224ec:	00f6a023          	sw	a5,0(a3)
   224f0:	00008067          	ret

000224f4 <_ZN8Ethernet15setEthernetModeENS_9ethMode_eE>:
   224f4:	00452703          	lw	a4,4(a0)
   224f8:	0015f593          	and	a1,a1,1
   224fc:	00c59593          	sll	a1,a1,0xc
   22500:	00072783          	lw	a5,0(a4)
   22504:	48c79793          	bclr	a5,a5,0xc
   22508:	00b7e7b3          	or	a5,a5,a1
   2250c:	00f72023          	sw	a5,0(a4)
   22510:	00008067          	ret

00022514 <_ZN8Ethernet8enableTXEb>:
   22514:	00452703          	lw	a4,4(a0)
   22518:	0015f593          	and	a1,a1,1
   2251c:	00b59593          	sll	a1,a1,0xb
   22520:	00072783          	lw	a5,0(a4)
   22524:	48b79793          	bclr	a5,a5,0xb
   22528:	00b7e7b3          	or	a5,a5,a1
   2252c:	00f72023          	sw	a5,0(a4)
   22530:	00008067          	ret

00022534 <_ZN8Ethernet8enableRXEb>:
   22534:	00452703          	lw	a4,4(a0)
   22538:	0015f593          	and	a1,a1,1
   2253c:	00a59593          	sll	a1,a1,0xa
   22540:	00072783          	lw	a5,0(a4)
   22544:	bff7f793          	and	a5,a5,-1025
   22548:	00b7e7b3          	or	a5,a5,a1
   2254c:	00f72023          	sw	a5,0(a4)
   22550:	00008067          	ret

00022554 <_ZN8Ethernet9isSendingEv>:
   22554:	00452783          	lw	a5,4(a0)
   22558:	0007a503          	lw	a0,0(a5)
   2255c:	48955513          	bext	a0,a0,0x9
   22560:	00154513          	xor	a0,a0,1
   22564:	00008067          	ret

00022568 <_ZN8Ethernet11isReceivingEv>:
   22568:	00452783          	lw	a5,4(a0)
   2256c:	0007a503          	lw	a0,0(a5)
   22570:	48855513          	bext	a0,a0,0x8
   22574:	00154513          	xor	a0,a0,1
   22578:	00008067          	ret

0002257c <_ZN8Ethernet16isEmptyPayloadTXEv>:
   2257c:	00452783          	lw	a5,4(a0)
   22580:	0007a503          	lw	a0,0(a5)
   22584:	48255513          	bext	a0,a0,0x2
   22588:	00008067          	ret

0002258c <_ZN8Ethernet15isFullPayloadTXEv>:
   2258c:	00452783          	lw	a5,4(a0)
   22590:	0007a503          	lw	a0,0(a5)
   22594:	48355513          	bext	a0,a0,0x3
   22598:	00008067          	ret

0002259c <_ZN8Ethernet16isEmptyPayloadRXEv>:
   2259c:	00452783          	lw	a5,4(a0)
   225a0:	0007a503          	lw	a0,0(a5)
   225a4:	00157513          	and	a0,a0,1
   225a8:	00008067          	ret

000225ac <_ZN8Ethernet15isFullPayloadRXEv>:
   225ac:	00452783          	lw	a5,4(a0)
   225b0:	0007a503          	lw	a0,0(a5)
   225b4:	48155513          	bext	a0,a0,0x1
   225b8:	00008067          	ret

000225bc <_ZN8Ethernet15isEmptyPacketTXEv>:
   225bc:	00452783          	lw	a5,4(a0)
   225c0:	0007a503          	lw	a0,0(a5)
   225c4:	48655513          	bext	a0,a0,0x6
   225c8:	00008067          	ret

000225cc <_ZN8Ethernet14isFullPacketTXEv>:
   225cc:	00452783          	lw	a5,4(a0)
   225d0:	0007a503          	lw	a0,0(a5)
   225d4:	48755513          	bext	a0,a0,0x7
   225d8:	00008067          	ret

000225dc <_ZN8Ethernet15isEmptyPacketRXEv>:
   225dc:	00452783          	lw	a5,4(a0)
   225e0:	0007a503          	lw	a0,0(a5)
   225e4:	48455513          	bext	a0,a0,0x4
   225e8:	00008067          	ret

000225ec <_ZN8Ethernet14isFullPacketRXEv>:
   225ec:	00452783          	lw	a5,4(a0)
   225f0:	0007a503          	lw	a0,0(a5)
   225f4:	48555513          	bext	a0,a0,0x5
   225f8:	00008067          	ret

000225fc <_ZN8Ethernet12getInterruptEv>:
   225fc:	ff010113          	add	sp,sp,-16
   22600:	00052783          	lw	a5,0(a0)
   22604:	0747a783          	lw	a5,116(a5)
   22608:	01852703          	lw	a4,24(a0)
   2260c:	00072583          	lw	a1,0(a4)
   22610:	00f11423          	sh	a5,8(sp)
   22614:	00812503          	lw	a0,8(sp)
   22618:	01010113          	add	sp,sp,16
   2261c:	00008067          	ret

00022620 <_ZN8Ethernet8isLinkedEv>:
   22620:	00052783          	lw	a5,0(a0)
   22624:	0047a503          	lw	a0,4(a5)
   22628:	48255513          	bext	a0,a0,0x2
   2262c:	00008067          	ret

00022630 <_ZN8Ethernet8energyOnEv>:
   22630:	00052783          	lw	a5,0(a0)
   22634:	0447a503          	lw	a0,68(a5)
   22638:	48155513          	bext	a0,a0,0x1
   2263c:	00008067          	ret

00022640 <_ZN8Ethernet10getChannelEv>:
   22640:	00052783          	lw	a5,0(a0)
   22644:	06c7a503          	lw	a0,108(a5)
   22648:	48d55513          	bext	a0,a0,0xd
   2264c:	00008067          	ret

00022650 <_ZN8Ethernet13getErrorCountEv>:
   22650:	00052783          	lw	a5,0(a0)
   22654:	0687a503          	lw	a0,104(a5)
   22658:	01051513          	sll	a0,a0,0x10
   2265c:	01055513          	srl	a0,a0,0x10
   22660:	00008067          	ret

00022664 <_ZN8Ethernet9sendFrameEPKhmNS_9macAddr_sEPNS_10ethError_eE>:
   22664:	ff010113          	add	sp,sp,-16
   22668:	00d12423          	sw	a3,8(sp)
   2266c:	00e12623          	sw	a4,12(sp)
   22670:	00452703          	lw	a4,4(a0)
   22674:	00072703          	lw	a4,0(a4)
   22678:	01371693          	sll	a3,a4,0x13
   2267c:	0006d663          	bgez	a3,22688 <_ZN8Ethernet9sendFrameEPKhmNS_9macAddr_sEPNS_10ethError_eE+0x24>
   22680:	00600713          	li	a4,6
   22684:	00e7a023          	sw	a4,0(a5)
   22688:	5dc00713          	li	a4,1500
   2268c:	0ac76863          	bltu	a4,a2,2273c <_ZN8Ethernet9sendFrameEPKhmNS_9macAddr_sEPNS_10ethError_eE+0xd8>
   22690:	00452783          	lw	a5,4(a0)
   22694:	0007a783          	lw	a5,0(a5)
   22698:	4877d793          	bext	a5,a5,0x7
   2269c:	fe079ae3          	bnez	a5,22690 <_ZN8Ethernet9sendFrameEPKhmNS_9macAddr_sEPNS_10ethError_eE+0x2c>
   226a0:	0a060463          	beqz	a2,22748 <_ZN8Ethernet9sendFrameEPKhmNS_9macAddr_sEPNS_10ethError_eE+0xe4>
   226a4:	00058793          	mv	a5,a1
   226a8:	00c585b3          	add	a1,a1,a2
   226ac:	00c52703          	lw	a4,12(a0)
   226b0:	0007c683          	lbu	a3,0(a5)
   226b4:	00d70023          	sb	a3,0(a4)
   226b8:	00178793          	add	a5,a5,1
   226bc:	feb798e3          	bne	a5,a1,226ac <_ZN8Ethernet9sendFrameEPKhmNS_9macAddr_sEPNS_10ethError_eE+0x48>
   226c0:	02900793          	li	a5,41
   226c4:	00000693          	li	a3,0
   226c8:	08c7f063          	bgeu	a5,a2,22748 <_ZN8Ethernet9sendFrameEPKhmNS_9macAddr_sEPNS_10ethError_eE+0xe4>
   226cc:	00d607b3          	add	a5,a2,a3
   226d0:	00814703          	lbu	a4,8(sp)
   226d4:	01071713          	sll	a4,a4,0x10
   226d8:	01079793          	sll	a5,a5,0x10
   226dc:	0107d793          	srl	a5,a5,0x10
   226e0:	00e7e7b3          	or	a5,a5,a4
   226e4:	00914803          	lbu	a6,9(sp)
   226e8:	01881813          	sll	a6,a6,0x18
   226ec:	010006b7          	lui	a3,0x1000
   226f0:	fff68693          	add	a3,a3,-1 # ffffff <_ZN9SerialOut6statusE+0xfdbcdb>
   226f4:	00d7f7b3          	and	a5,a5,a3
   226f8:	00b14583          	lbu	a1,11(sp)
   226fc:	00859593          	sll	a1,a1,0x8
   22700:	00a14703          	lbu	a4,10(sp)
   22704:	00c14603          	lbu	a2,12(sp)
   22708:	01061613          	sll	a2,a2,0x10
   2270c:	00b76733          	or	a4,a4,a1
   22710:	00c76733          	or	a4,a4,a2
   22714:	00d14583          	lbu	a1,13(sp)
   22718:	01859593          	sll	a1,a1,0x18
   2271c:	00d77733          	and	a4,a4,a3
   22720:	00852883          	lw	a7,8(a0)
   22724:	0107e633          	or	a2,a5,a6
   22728:	00b766b3          	or	a3,a4,a1
   2272c:	00c8a023          	sw	a2,0(a7)
   22730:	00d8a223          	sw	a3,4(a7)
   22734:	01010113          	add	sp,sp,16
   22738:	00008067          	ret
   2273c:	00300713          	li	a4,3
   22740:	00e7a023          	sw	a4,0(a5)
   22744:	ff1ff06f          	j	22734 <_ZN8Ethernet9sendFrameEPKhmNS_9macAddr_sEPNS_10ethError_eE+0xd0>
   22748:	02a00693          	li	a3,42
   2274c:	40c686b3          	sub	a3,a3,a2
   22750:	00068593          	mv	a1,a3
   22754:	00000713          	li	a4,0
   22758:	00452783          	lw	a5,4(a0)
   2275c:	0007a783          	lw	a5,0(a5)
   22760:	4837d793          	bext	a5,a5,0x3
   22764:	fe079ae3          	bnez	a5,22758 <_ZN8Ethernet9sendFrameEPKhmNS_9macAddr_sEPNS_10ethError_eE+0xf4>
   22768:	00c52783          	lw	a5,12(a0)
   2276c:	00078023          	sb	zero,0(a5)
   22770:	00170713          	add	a4,a4,1
   22774:	fee592e3          	bne	a1,a4,22758 <_ZN8Ethernet9sendFrameEPKhmNS_9macAddr_sEPNS_10ethError_eE+0xf4>
   22778:	f55ff06f          	j	226cc <_ZN8Ethernet9sendFrameEPKhmNS_9macAddr_sEPNS_10ethError_eE+0x68>

0002277c <_ZN8Ethernet9sendFrameEPKhmNS_9macAddr_sEtPNS_10ethError_eE>:
   2277c:	ff010113          	add	sp,sp,-16
   22780:	00d12423          	sw	a3,8(sp)
   22784:	00e12623          	sw	a4,12(sp)
   22788:	00452703          	lw	a4,4(a0)
   2278c:	00072703          	lw	a4,0(a4)
   22790:	01371693          	sll	a3,a4,0x13
   22794:	0006c663          	bltz	a3,227a0 <_ZN8Ethernet9sendFrameEPKhmNS_9macAddr_sEtPNS_10ethError_eE+0x24>
   22798:	00600713          	li	a4,6
   2279c:	00e82023          	sw	a4,0(a6)
   227a0:	5dc00713          	li	a4,1500
   227a4:	0cc76463          	bltu	a4,a2,2286c <_ZN8Ethernet9sendFrameEPKhmNS_9macAddr_sEtPNS_10ethError_eE+0xf0>
   227a8:	00452703          	lw	a4,4(a0)
   227ac:	00072703          	lw	a4,0(a4)
   227b0:	48775713          	bext	a4,a4,0x7
   227b4:	fe071ae3          	bnez	a4,227a8 <_ZN8Ethernet9sendFrameEPKhmNS_9macAddr_sEtPNS_10ethError_eE+0x2c>
   227b8:	00c52703          	lw	a4,12(a0)
   227bc:	0087d693          	srl	a3,a5,0x8
   227c0:	00d70023          	sb	a3,0(a4)
   227c4:	00c52703          	lw	a4,12(a0)
   227c8:	0ff7f793          	zext.b	a5,a5
   227cc:	00f70023          	sb	a5,0(a4)
   227d0:	0a060463          	beqz	a2,22878 <_ZN8Ethernet9sendFrameEPKhmNS_9macAddr_sEtPNS_10ethError_eE+0xfc>
   227d4:	00058793          	mv	a5,a1
   227d8:	00c585b3          	add	a1,a1,a2
   227dc:	00c52703          	lw	a4,12(a0)
   227e0:	0007c683          	lbu	a3,0(a5)
   227e4:	00d70023          	sb	a3,0(a4)
   227e8:	00178793          	add	a5,a5,1
   227ec:	feb798e3          	bne	a5,a1,227dc <_ZN8Ethernet9sendFrameEPKhmNS_9macAddr_sEtPNS_10ethError_eE+0x60>
   227f0:	02900793          	li	a5,41
   227f4:	00000693          	li	a3,0
   227f8:	08c7f063          	bgeu	a5,a2,22878 <_ZN8Ethernet9sendFrameEPKhmNS_9macAddr_sEtPNS_10ethError_eE+0xfc>
   227fc:	00d607b3          	add	a5,a2,a3
   22800:	00814703          	lbu	a4,8(sp)
   22804:	01071713          	sll	a4,a4,0x10
   22808:	01079793          	sll	a5,a5,0x10
   2280c:	0107d793          	srl	a5,a5,0x10
   22810:	00e7e7b3          	or	a5,a5,a4
   22814:	00914803          	lbu	a6,9(sp)
   22818:	01881813          	sll	a6,a6,0x18
   2281c:	010006b7          	lui	a3,0x1000
   22820:	fff68693          	add	a3,a3,-1 # ffffff <_ZN9SerialOut6statusE+0xfdbcdb>
   22824:	00d7f7b3          	and	a5,a5,a3
   22828:	00b14583          	lbu	a1,11(sp)
   2282c:	00859593          	sll	a1,a1,0x8
   22830:	00a14703          	lbu	a4,10(sp)
   22834:	00c14603          	lbu	a2,12(sp)
   22838:	01061613          	sll	a2,a2,0x10
   2283c:	00b76733          	or	a4,a4,a1
   22840:	00c76733          	or	a4,a4,a2
   22844:	00d14583          	lbu	a1,13(sp)
   22848:	01859593          	sll	a1,a1,0x18
   2284c:	00d77733          	and	a4,a4,a3
   22850:	00852883          	lw	a7,8(a0)
   22854:	0107e633          	or	a2,a5,a6
   22858:	00b766b3          	or	a3,a4,a1
   2285c:	00c8a023          	sw	a2,0(a7)
   22860:	00d8a223          	sw	a3,4(a7)
   22864:	01010113          	add	sp,sp,16
   22868:	00008067          	ret
   2286c:	00300793          	li	a5,3
   22870:	00f82023          	sw	a5,0(a6)
   22874:	ff1ff06f          	j	22864 <_ZN8Ethernet9sendFrameEPKhmNS_9macAddr_sEtPNS_10ethError_eE+0xe8>
   22878:	02a00693          	li	a3,42
   2287c:	40c686b3          	sub	a3,a3,a2
   22880:	00068593          	mv	a1,a3
   22884:	00000713          	li	a4,0
   22888:	00452783          	lw	a5,4(a0)
   2288c:	0007a783          	lw	a5,0(a5)
   22890:	4837d793          	bext	a5,a5,0x3
   22894:	fe079ae3          	bnez	a5,22888 <_ZN8Ethernet9sendFrameEPKhmNS_9macAddr_sEtPNS_10ethError_eE+0x10c>
   22898:	00c52783          	lw	a5,12(a0)
   2289c:	00078023          	sb	zero,0(a5)
   228a0:	00170713          	add	a4,a4,1
   228a4:	fee592e3          	bne	a1,a4,22888 <_ZN8Ethernet9sendFrameEPKhmNS_9macAddr_sEtPNS_10ethError_eE+0x10c>
   228a8:	f55ff06f          	j	227fc <_ZN8Ethernet9sendFrameEPKhmNS_9macAddr_sEtPNS_10ethError_eE+0x80>

000228ac <_ZN8Ethernet12receiveFrameEPhmPNS_10ethError_eE>:
   228ac:	00452783          	lw	a5,4(a0)
   228b0:	0007a783          	lw	a5,0(a5)
   228b4:	01379713          	sll	a4,a5,0x13
   228b8:	02074c63          	bltz	a4,228f0 <_ZN8Ethernet12receiveFrameEPhmPNS_10ethError_eE+0x44>
   228bc:	5dc00793          	li	a5,1500
   228c0:	02c7ee63          	bltu	a5,a2,228fc <_ZN8Ethernet12receiveFrameEPhmPNS_10ethError_eE+0x50>
   228c4:	02900793          	li	a5,41
   228c8:	04c7f063          	bgeu	a5,a2,22908 <_ZN8Ethernet12receiveFrameEPhmPNS_10ethError_eE+0x5c>
   228cc:	00058793          	mv	a5,a1
   228d0:	00c585b3          	add	a1,a1,a2
   228d4:	00458713          	add	a4,a1,4
   228d8:	01452683          	lw	a3,20(a0)
   228dc:	0006c683          	lbu	a3,0(a3)
   228e0:	00d78023          	sb	a3,0(a5)
   228e4:	00178793          	add	a5,a5,1
   228e8:	fee798e3          	bne	a5,a4,228d8 <_ZN8Ethernet12receiveFrameEPhmPNS_10ethError_eE+0x2c>
   228ec:	00008067          	ret
   228f0:	00600793          	li	a5,6
   228f4:	00f6a023          	sw	a5,0(a3)
   228f8:	00008067          	ret
   228fc:	00300793          	li	a5,3
   22900:	00f6a023          	sw	a5,0(a3)
   22904:	00008067          	ret
   22908:	00400793          	li	a5,4
   2290c:	00f6a023          	sw	a5,0(a3)
   22910:	00008067          	ret

00022914 <_ZN8Ethernet12receiveFrameEPhmPtPNS_10ethError_eE>:
   22914:	00452783          	lw	a5,4(a0)
   22918:	0007a783          	lw	a5,0(a5)
   2291c:	01379813          	sll	a6,a5,0x13
   22920:	04085863          	bgez	a6,22970 <_ZN8Ethernet12receiveFrameEPhmPtPNS_10ethError_eE+0x5c>
   22924:	5dc00793          	li	a5,1500
   22928:	04c7ea63          	bltu	a5,a2,2297c <_ZN8Ethernet12receiveFrameEPhmPtPNS_10ethError_eE+0x68>
   2292c:	02900793          	li	a5,41
   22930:	04c7fc63          	bgeu	a5,a2,22988 <_ZN8Ethernet12receiveFrameEPhmPtPNS_10ethError_eE+0x74>
   22934:	01452783          	lw	a5,20(a0)
   22938:	0007c703          	lbu	a4,0(a5)
   2293c:	0007c783          	lbu	a5,0(a5)
   22940:	00871713          	sll	a4,a4,0x8
   22944:	00e7e7b3          	or	a5,a5,a4
   22948:	00f69023          	sh	a5,0(a3)
   2294c:	00058793          	mv	a5,a1
   22950:	00458593          	add	a1,a1,4
   22954:	00c58733          	add	a4,a1,a2
   22958:	01452683          	lw	a3,20(a0)
   2295c:	0006c683          	lbu	a3,0(a3)
   22960:	00d78023          	sb	a3,0(a5)
   22964:	00178793          	add	a5,a5,1
   22968:	fee798e3          	bne	a5,a4,22958 <_ZN8Ethernet12receiveFrameEPhmPtPNS_10ethError_eE+0x44>
   2296c:	00008067          	ret
   22970:	00600793          	li	a5,6
   22974:	00f72023          	sw	a5,0(a4)
   22978:	00008067          	ret
   2297c:	00300793          	li	a5,3
   22980:	00f72023          	sw	a5,0(a4)
   22984:	00008067          	ret
   22988:	00400793          	li	a5,4
   2298c:	00f72023          	sw	a5,0(a4)
   22990:	00008067          	ret

00022994 <_ZN8Ethernet15getRxDescriptorEv>:
   22994:	ff010113          	add	sp,sp,-16
   22998:	01052783          	lw	a5,16(a0)
   2299c:	0007a703          	lw	a4,0(a5)
   229a0:	0047a783          	lw	a5,4(a5)
   229a4:	00070513          	mv	a0,a4
   229a8:	00078593          	mv	a1,a5
   229ac:	01010113          	add	sp,sp,16
   229b0:	00008067          	ret

000229b4 <_ZN8Ethernet5resetEv>:
   229b4:	ff010113          	add	sp,sp,-16
   229b8:	00011623          	sh	zero,12(sp)
   229bc:	00052703          	lw	a4,0(a0)
   229c0:	00072783          	lw	a5,0(a4)
   229c4:	01079793          	sll	a5,a5,0x10
   229c8:	0107d793          	srl	a5,a5,0x10
   229cc:	00f11623          	sh	a5,12(sp)
   229d0:	00c15783          	lhu	a5,12(sp)
   229d4:	ffff86b7          	lui	a3,0xffff8
   229d8:	00d7e7b3          	or	a5,a5,a3
   229dc:	00f11623          	sh	a5,12(sp)
   229e0:	00c15783          	lhu	a5,12(sp)
   229e4:	01079793          	sll	a5,a5,0x10
   229e8:	0107d793          	srl	a5,a5,0x10
   229ec:	00f72023          	sw	a5,0(a4)
   229f0:	01010113          	add	sp,sp,16
   229f4:	00008067          	ret

000229f8 <_ZN8Ethernet9powerDownEv>:
   229f8:	ff010113          	add	sp,sp,-16
   229fc:	00011623          	sh	zero,12(sp)
   22a00:	00052683          	lw	a3,0(a0)
   22a04:	0006a703          	lw	a4,0(a3) # ffff8000 <_ZN9SerialOut6statusE+0xfffd3cdc>
   22a08:	01071713          	sll	a4,a4,0x10
   22a0c:	01075713          	srl	a4,a4,0x10
   22a10:	00e11623          	sh	a4,12(sp)
   22a14:	00c15703          	lhu	a4,12(sp)
   22a18:	48c71713          	bclr	a4,a4,0xc
   22a1c:	00e11623          	sh	a4,12(sp)
   22a20:	00c15703          	lhu	a4,12(sp)
   22a24:	01071713          	sll	a4,a4,0x10
   22a28:	01075713          	srl	a4,a4,0x10
   22a2c:	00e6a023          	sw	a4,0(a3)
   22a30:	00052703          	lw	a4,0(a0)
   22a34:	00072783          	lw	a5,0(a4)
   22a38:	01079793          	sll	a5,a5,0x10
   22a3c:	0107d793          	srl	a5,a5,0x10
   22a40:	00f11623          	sh	a5,12(sp)
   22a44:	00c15783          	lhu	a5,12(sp)
   22a48:	28b79793          	bset	a5,a5,0xb
   22a4c:	00f11623          	sh	a5,12(sp)
   22a50:	00c15783          	lhu	a5,12(sp)
   22a54:	01079793          	sll	a5,a5,0x10
   22a58:	0107d793          	srl	a5,a5,0x10
   22a5c:	00f72023          	sw	a5,0(a4)
   22a60:	01010113          	add	sp,sp,16
   22a64:	00008067          	ret

00022a68 <_ZN8EthernetD1Ev>:
   22a68:	ff010113          	add	sp,sp,-16
   22a6c:	00112623          	sw	ra,12(sp)
   22a70:	00812423          	sw	s0,8(sp)
   22a74:	00050413          	mv	s0,a0
   22a78:	f3dff0ef          	jal	229b4 <_ZN8Ethernet5resetEv>
   22a7c:	00040513          	mv	a0,s0
   22a80:	f79ff0ef          	jal	229f8 <_ZN8Ethernet9powerDownEv>
   22a84:	00442683          	lw	a3,4(s0)
   22a88:	0006a783          	lw	a5,0(a3)
   22a8c:	fffe2737          	lui	a4,0xfffe2
   22a90:	fff70713          	add	a4,a4,-1 # fffe1fff <_ZN9SerialOut6statusE+0xfffbdcdb>
   22a94:	00e7f7b3          	and	a5,a5,a4
   22a98:	00f6a023          	sw	a5,0(a3)
   22a9c:	01842783          	lw	a5,24(s0)
   22aa0:	0007a023          	sw	zero,0(a5)
   22aa4:	00c12083          	lw	ra,12(sp)
   22aa8:	00812403          	lw	s0,8(sp)
   22aac:	01010113          	add	sp,sp,16
   22ab0:	00008067          	ret

00022ab4 <_ZN8Ethernet6wakeUpEv>:
   22ab4:	ff010113          	add	sp,sp,-16
   22ab8:	00011623          	sh	zero,12(sp)
   22abc:	00052703          	lw	a4,0(a0)
   22ac0:	00072783          	lw	a5,0(a4)
   22ac4:	01079793          	sll	a5,a5,0x10
   22ac8:	0107d793          	srl	a5,a5,0x10
   22acc:	00f11623          	sh	a5,12(sp)
   22ad0:	00c15783          	lhu	a5,12(sp)
   22ad4:	48b79793          	bclr	a5,a5,0xb
   22ad8:	00f11623          	sh	a5,12(sp)
   22adc:	00c15783          	lhu	a5,12(sp)
   22ae0:	01079793          	sll	a5,a5,0x10
   22ae4:	0107d793          	srl	a5,a5,0x10
   22ae8:	00f72023          	sw	a5,0(a4)
   22aec:	01010113          	add	sp,sp,16
   22af0:	00008067          	ret

00022af4 <_ZN8EthernetC1Ev>:
   22af4:	ff010113          	add	sp,sp,-16
   22af8:	00112623          	sw	ra,12(sp)
   22afc:	00812423          	sw	s0,8(sp)
   22b00:	00050413          	mv	s0,a0
   22b04:	000017b7          	lui	a5,0x1
   22b08:	a0078793          	add	a5,a5,-1536 # a00 <boot_program+0xa00>
   22b0c:	00f52023          	sw	a5,0(a0)
   22b10:	000017b7          	lui	a5,0x1
   22b14:	a8078793          	add	a5,a5,-1408 # a80 <boot_program+0xa80>
   22b18:	00f52223          	sw	a5,4(a0)
   22b1c:	000017b7          	lui	a5,0x1
   22b20:	a8478793          	add	a5,a5,-1404 # a84 <boot_program+0xa84>
   22b24:	00f52423          	sw	a5,8(a0)
   22b28:	000017b7          	lui	a5,0x1
   22b2c:	a8c78793          	add	a5,a5,-1396 # a8c <boot_program+0xa8c>
   22b30:	00f52623          	sw	a5,12(a0)
   22b34:	000017b7          	lui	a5,0x1
   22b38:	a9078793          	add	a5,a5,-1392 # a90 <boot_program+0xa90>
   22b3c:	00f52823          	sw	a5,16(a0)
   22b40:	000017b7          	lui	a5,0x1
   22b44:	a9878793          	add	a5,a5,-1384 # a98 <boot_program+0xa98>
   22b48:	00f52a23          	sw	a5,20(a0)
   22b4c:	000017b7          	lui	a5,0x1
   22b50:	a9c78793          	add	a5,a5,-1380 # a9c <boot_program+0xa9c>
   22b54:	00f52c23          	sw	a5,24(a0)
   22b58:	e5dff0ef          	jal	229b4 <_ZN8Ethernet5resetEv>
   22b5c:	00040513          	mv	a0,s0
   22b60:	f55ff0ef          	jal	22ab4 <_ZN8Ethernet6wakeUpEv>
   22b64:	00442683          	lw	a3,4(s0)
   22b68:	0006a783          	lw	a5,0(a3)
   22b6c:	fffe2737          	lui	a4,0xfffe2
   22b70:	fff70713          	add	a4,a4,-1 # fffe1fff <_ZN9SerialOut6statusE+0xfffbdcdb>
   22b74:	00e7f7b3          	and	a5,a5,a4
   22b78:	00f6a023          	sw	a5,0(a3)
   22b7c:	01842783          	lw	a5,24(s0)
   22b80:	0007a023          	sw	zero,0(a5)
   22b84:	00c12083          	lw	ra,12(sp)
   22b88:	00812403          	lw	s0,8(sp)
   22b8c:	01010113          	add	sp,sp,16
   22b90:	00008067          	ret

00022b94 <_ZN8Ethernet9configureENS_10ethSpeed_eENS_11ethDuplex_eE>:
   22b94:	ff010113          	add	sp,sp,-16
   22b98:	00011623          	sh	zero,12(sp)
   22b9c:	00052703          	lw	a4,0(a0)
   22ba0:	00072783          	lw	a5,0(a4)
   22ba4:	01079793          	sll	a5,a5,0x10
   22ba8:	0107d793          	srl	a5,a5,0x10
   22bac:	00f11623          	sh	a5,12(sp)
   22bb0:	0015f593          	and	a1,a1,1
   22bb4:	00d59593          	sll	a1,a1,0xd
   22bb8:	00c15783          	lhu	a5,12(sp)
   22bbc:	48d79793          	bclr	a5,a5,0xd
   22bc0:	00b7e7b3          	or	a5,a5,a1
   22bc4:	00f11623          	sh	a5,12(sp)
   22bc8:	00167613          	and	a2,a2,1
   22bcc:	00861613          	sll	a2,a2,0x8
   22bd0:	00c15783          	lhu	a5,12(sp)
   22bd4:	eff7f793          	and	a5,a5,-257
   22bd8:	00c7e7b3          	or	a5,a5,a2
   22bdc:	00f11623          	sh	a5,12(sp)
   22be0:	00c15783          	lhu	a5,12(sp)
   22be4:	01079793          	sll	a5,a5,0x10
   22be8:	0107d793          	srl	a5,a5,0x10
   22bec:	00f72023          	sw	a5,0(a4)
   22bf0:	01010113          	add	sp,sp,16
   22bf4:	00008067          	ret

00022bf8 <_ZN8Ethernet11setTestModeEb>:
   22bf8:	ff010113          	add	sp,sp,-16
   22bfc:	00011623          	sh	zero,12(sp)
   22c00:	00052703          	lw	a4,0(a0)
   22c04:	00072783          	lw	a5,0(a4)
   22c08:	01079793          	sll	a5,a5,0x10
   22c0c:	0107d793          	srl	a5,a5,0x10
   22c10:	00f11623          	sh	a5,12(sp)
   22c14:	0015f593          	and	a1,a1,1
   22c18:	00e59593          	sll	a1,a1,0xe
   22c1c:	00c15783          	lhu	a5,12(sp)
   22c20:	48e79793          	bclr	a5,a5,0xe
   22c24:	00b7e7b3          	or	a5,a5,a1
   22c28:	00f11623          	sh	a5,12(sp)
   22c2c:	00c15783          	lhu	a5,12(sp)
   22c30:	01079793          	sll	a5,a5,0x10
   22c34:	0107d793          	srl	a5,a5,0x10
   22c38:	00f72023          	sw	a5,0(a4)
   22c3c:	01010113          	add	sp,sp,16
   22c40:	00008067          	ret

00022c44 <_ZN8Ethernet16setHeartbeatTestEb>:
   22c44:	ff010113          	add	sp,sp,-16
   22c48:	00011623          	sh	zero,12(sp)
   22c4c:	00052703          	lw	a4,0(a0)
   22c50:	06c72783          	lw	a5,108(a4)
   22c54:	01079793          	sll	a5,a5,0x10
   22c58:	0107d793          	srl	a5,a5,0x10
   22c5c:	00f11623          	sh	a5,12(sp)
   22c60:	0015c593          	xor	a1,a1,1
   22c64:	0015f593          	and	a1,a1,1
   22c68:	00b59593          	sll	a1,a1,0xb
   22c6c:	00c15783          	lhu	a5,12(sp)
   22c70:	48b79793          	bclr	a5,a5,0xb
   22c74:	00b7e7b3          	or	a5,a5,a1
   22c78:	00f11623          	sh	a5,12(sp)
   22c7c:	00c15783          	lhu	a5,12(sp)
   22c80:	01079793          	sll	a5,a5,0x10
   22c84:	0107d793          	srl	a5,a5,0x10
   22c88:	06f72623          	sw	a5,108(a4)
   22c8c:	01010113          	add	sp,sp,16
   22c90:	00008067          	ret

00022c94 <_ZN8Ethernet18setAutoNegotiationEb>:
   22c94:	ff010113          	add	sp,sp,-16
   22c98:	00011623          	sh	zero,12(sp)
   22c9c:	00052703          	lw	a4,0(a0)
   22ca0:	00072783          	lw	a5,0(a4)
   22ca4:	01079793          	sll	a5,a5,0x10
   22ca8:	0107d793          	srl	a5,a5,0x10
   22cac:	00f11623          	sh	a5,12(sp)
   22cb0:	0015f593          	and	a1,a1,1
   22cb4:	00c59693          	sll	a3,a1,0xc
   22cb8:	00c15783          	lhu	a5,12(sp)
   22cbc:	48c79793          	bclr	a5,a5,0xc
   22cc0:	00d7e7b3          	or	a5,a5,a3
   22cc4:	00f11623          	sh	a5,12(sp)
   22cc8:	00959593          	sll	a1,a1,0x9
   22ccc:	00c15783          	lhu	a5,12(sp)
   22cd0:	dff7f793          	and	a5,a5,-513
   22cd4:	00b7e7b3          	or	a5,a5,a1
   22cd8:	00f11623          	sh	a5,12(sp)
   22cdc:	00c15783          	lhu	a5,12(sp)
   22ce0:	01079793          	sll	a5,a5,0x10
   22ce4:	0107d793          	srl	a5,a5,0x10
   22ce8:	00f72023          	sw	a5,0(a4)
   22cec:	01010113          	add	sp,sp,16
   22cf0:	00008067          	ret

00022cf4 <_ZN8Ethernet4initENS_10ethSpeed_eENS_11ethDuplex_eEbNS_9ethMode_eE>:
   22cf4:	ff010113          	add	sp,sp,-16
   22cf8:	00112623          	sw	ra,12(sp)
   22cfc:	00812423          	sw	s0,8(sp)
   22d00:	00912223          	sw	s1,4(sp)
   22d04:	01212023          	sw	s2,0(sp)
   22d08:	00050413          	mv	s0,a0
   22d0c:	00058493          	mv	s1,a1
   22d10:	00060913          	mv	s2,a2
   22d14:	00452803          	lw	a6,4(a0)
   22d18:	0015f613          	and	a2,a1,1
   22d1c:	01161613          	sll	a2,a2,0x11
   22d20:	00082783          	lw	a5,0(a6)
   22d24:	49179793          	bclr	a5,a5,0x11
   22d28:	00c7e7b3          	or	a5,a5,a2
   22d2c:	00f82023          	sw	a5,0(a6)
   22d30:	00452603          	lw	a2,4(a0)
   22d34:	00177713          	and	a4,a4,1
   22d38:	00c71713          	sll	a4,a4,0xc
   22d3c:	00062783          	lw	a5,0(a2)
   22d40:	48c79793          	bclr	a5,a5,0xc
   22d44:	00e7e7b3          	or	a5,a5,a4
   22d48:	00f62023          	sw	a5,0(a2)
   22d4c:	00452703          	lw	a4,4(a0)
   22d50:	00072783          	lw	a5,0(a4)
   22d54:	4007e793          	or	a5,a5,1024
   22d58:	00f72023          	sw	a5,0(a4)
   22d5c:	00452703          	lw	a4,4(a0)
   22d60:	00072783          	lw	a5,0(a4)
   22d64:	28b79793          	bset	a5,a5,0xb
   22d68:	00f72023          	sw	a5,0(a4)
   22d6c:	00068593          	mv	a1,a3
   22d70:	f25ff0ef          	jal	22c94 <_ZN8Ethernet18setAutoNegotiationEb>
   22d74:	00090613          	mv	a2,s2
   22d78:	00048593          	mv	a1,s1
   22d7c:	00040513          	mv	a0,s0
   22d80:	e15ff0ef          	jal	22b94 <_ZN8Ethernet9configureENS_10ethSpeed_eENS_11ethDuplex_eE>
   22d84:	00040513          	mv	a0,s0
   22d88:	00c12083          	lw	ra,12(sp)
   22d8c:	00812403          	lw	s0,8(sp)
   22d90:	00412483          	lw	s1,4(sp)
   22d94:	00012903          	lw	s2,0(sp)
   22d98:	01010113          	add	sp,sp,16
   22d9c:	00008067          	ret

00022da0 <_ZN8Ethernet10setChannelENS_12ethChannel_eE>:
   22da0:	ff010113          	add	sp,sp,-16
   22da4:	00011623          	sh	zero,12(sp)
   22da8:	00052703          	lw	a4,0(a0)
   22dac:	06c72783          	lw	a5,108(a4)
   22db0:	01079793          	sll	a5,a5,0x10
   22db4:	0107d793          	srl	a5,a5,0x10
   22db8:	00f11623          	sh	a5,12(sp)
   22dbc:	0015f593          	and	a1,a1,1
   22dc0:	00d59593          	sll	a1,a1,0xd
   22dc4:	00c15783          	lhu	a5,12(sp)
   22dc8:	48d79793          	bclr	a5,a5,0xd
   22dcc:	00b7e7b3          	or	a5,a5,a1
   22dd0:	00f11623          	sh	a5,12(sp)
   22dd4:	00c15783          	lhu	a5,12(sp)
   22dd8:	ffff86b7          	lui	a3,0xffff8
   22ddc:	00d7e7b3          	or	a5,a5,a3
   22de0:	00f11623          	sh	a5,12(sp)
   22de4:	00c15783          	lhu	a5,12(sp)
   22de8:	01079793          	sll	a5,a5,0x10
   22dec:	0107d793          	srl	a5,a5,0x10
   22df0:	06f72623          	sw	a5,108(a4)
   22df4:	01010113          	add	sp,sp,16
   22df8:	00008067          	ret

00022dfc <_ZN8Ethernet15setPhyInterruptEhbPNS_10ethError_eE>:
   22dfc:	00600793          	li	a5,6
   22e00:	04b7e263          	bltu	a5,a1,22e44 <_ZN8Ethernet15setPhyInterruptEhbPNS_10ethError_eE+0x48>
   22e04:	00052683          	lw	a3,0(a0)
   22e08:	0786a783          	lw	a5,120(a3) # ffff8078 <_ZN9SerialOut6statusE+0xfffd3d54>
   22e0c:	01079793          	sll	a5,a5,0x10
   22e10:	0107d793          	srl	a5,a5,0x10
   22e14:	02060e63          	beqz	a2,22e50 <_ZN8Ethernet15setPhyInterruptEhbPNS_10ethError_eE+0x54>
   22e18:	0017d713          	srl	a4,a5,0x1
   22e1c:	07f77713          	and	a4,a4,127
   22e20:	28b71733          	bset	a4,a4,a1
   22e24:	07f77713          	and	a4,a4,127
   22e28:	00171713          	sll	a4,a4,0x1
   22e2c:	f017f793          	and	a5,a5,-255
   22e30:	00e7e7b3          	or	a5,a5,a4
   22e34:	01079793          	sll	a5,a5,0x10
   22e38:	0107d793          	srl	a5,a5,0x10
   22e3c:	06f6ac23          	sw	a5,120(a3)
   22e40:	00008067          	ret
   22e44:	00500793          	li	a5,5
   22e48:	00f6a023          	sw	a5,0(a3)
   22e4c:	00008067          	ret
   22e50:	0017d713          	srl	a4,a5,0x1
   22e54:	07f77713          	and	a4,a4,127
   22e58:	48b71733          	bclr	a4,a4,a1
   22e5c:	fcdff06f          	j	22e28 <_ZN8Ethernet15setPhyInterruptEhbPNS_10ethError_eE+0x2c>

00022e60 <__udivdi3>:
   22e60:	88aa                	mv	a7,a0
   22e62:	832e                	mv	t1,a1
   22e64:	8732                	mv	a4,a2
   22e66:	882a                	mv	a6,a0
   22e68:	87ae                	mv	a5,a1
   22e6a:	20069663          	bnez	a3,23076 <__udivdi3+0x216>
   22e6e:	000245b7          	lui	a1,0x24
   22e72:	ac458593          	add	a1,a1,-1340 # 23ac4 <__clz_tab>
   22e76:	0cc37163          	bgeu	t1,a2,22f38 <__udivdi3+0xd8>
   22e7a:	66c1                	lui	a3,0x10
   22e7c:	0ad67763          	bgeu	a2,a3,22f2a <__udivdi3+0xca>
   22e80:	10063693          	sltiu	a3,a2,256
   22e84:	0016c693          	xor	a3,a3,1
   22e88:	068e                	sll	a3,a3,0x3
   22e8a:	00d65533          	srl	a0,a2,a3
   22e8e:	95aa                	add	a1,a1,a0
   22e90:	0005c583          	lbu	a1,0(a1)
   22e94:	02000513          	li	a0,32
   22e98:	96ae                	add	a3,a3,a1
   22e9a:	40d505b3          	sub	a1,a0,a3
   22e9e:	00d50b63          	beq	a0,a3,22eb4 <__udivdi3+0x54>
   22ea2:	00b317b3          	sll	a5,t1,a1
   22ea6:	00d8d6b3          	srl	a3,a7,a3
   22eaa:	00b61733          	sll	a4,a2,a1
   22eae:	8fd5                	or	a5,a5,a3
   22eb0:	00b89833          	sll	a6,a7,a1
   22eb4:	01075593          	srl	a1,a4,0x10
   22eb8:	02b7d333          	divu	t1,a5,a1
   22ebc:	01071613          	sll	a2,a4,0x10
   22ec0:	8241                	srl	a2,a2,0x10
   22ec2:	02b7f7b3          	remu	a5,a5,a1
   22ec6:	851a                	mv	a0,t1
   22ec8:	026608b3          	mul	a7,a2,t1
   22ecc:	01079693          	sll	a3,a5,0x10
   22ed0:	01085793          	srl	a5,a6,0x10
   22ed4:	8fd5                	or	a5,a5,a3
   22ed6:	0117fc63          	bgeu	a5,a7,22eee <__udivdi3+0x8e>
   22eda:	97ba                	add	a5,a5,a4
   22edc:	fff30513          	add	a0,t1,-1
   22ee0:	00e7e763          	bltu	a5,a4,22eee <__udivdi3+0x8e>
   22ee4:	0117f563          	bgeu	a5,a7,22eee <__udivdi3+0x8e>
   22ee8:	ffe30513          	add	a0,t1,-2
   22eec:	97ba                	add	a5,a5,a4
   22eee:	411787b3          	sub	a5,a5,a7
   22ef2:	02b7d8b3          	divu	a7,a5,a1
   22ef6:	0842                	sll	a6,a6,0x10
   22ef8:	01085813          	srl	a6,a6,0x10
   22efc:	02b7f7b3          	remu	a5,a5,a1
   22f00:	031606b3          	mul	a3,a2,a7
   22f04:	07c2                	sll	a5,a5,0x10
   22f06:	00f86833          	or	a6,a6,a5
   22f0a:	87c6                	mv	a5,a7
   22f0c:	00d87b63          	bgeu	a6,a3,22f22 <__udivdi3+0xc2>
   22f10:	983a                	add	a6,a6,a4
   22f12:	fff88793          	add	a5,a7,-1
   22f16:	00e86663          	bltu	a6,a4,22f22 <__udivdi3+0xc2>
   22f1a:	00d87463          	bgeu	a6,a3,22f22 <__udivdi3+0xc2>
   22f1e:	ffe88793          	add	a5,a7,-2
   22f22:	0542                	sll	a0,a0,0x10
   22f24:	8d5d                	or	a0,a0,a5
   22f26:	4581                	li	a1,0
   22f28:	8082                	ret
   22f2a:	01000537          	lui	a0,0x1000
   22f2e:	46c1                	li	a3,16
   22f30:	f4a66de3          	bltu	a2,a0,22e8a <__udivdi3+0x2a>
   22f34:	46e1                	li	a3,24
   22f36:	bf91                	j	22e8a <__udivdi3+0x2a>
   22f38:	4681                	li	a3,0
   22f3a:	ca09                	beqz	a2,22f4c <__udivdi3+0xec>
   22f3c:	67c1                	lui	a5,0x10
   22f3e:	08f67f63          	bgeu	a2,a5,22fdc <__udivdi3+0x17c>
   22f42:	10063693          	sltiu	a3,a2,256
   22f46:	0016c693          	xor	a3,a3,1
   22f4a:	068e                	sll	a3,a3,0x3
   22f4c:	00d657b3          	srl	a5,a2,a3
   22f50:	95be                	add	a1,a1,a5
   22f52:	0005c783          	lbu	a5,0(a1)
   22f56:	97b6                	add	a5,a5,a3
   22f58:	02000693          	li	a3,32
   22f5c:	40f685b3          	sub	a1,a3,a5
   22f60:	08f69563          	bne	a3,a5,22fea <__udivdi3+0x18a>
   22f64:	40c307b3          	sub	a5,t1,a2
   22f68:	4585                	li	a1,1
   22f6a:	01075893          	srl	a7,a4,0x10
   22f6e:	0317de33          	divu	t3,a5,a7
   22f72:	01071613          	sll	a2,a4,0x10
   22f76:	8241                	srl	a2,a2,0x10
   22f78:	01085693          	srl	a3,a6,0x10
   22f7c:	0317f7b3          	remu	a5,a5,a7
   22f80:	8572                	mv	a0,t3
   22f82:	03c60333          	mul	t1,a2,t3
   22f86:	07c2                	sll	a5,a5,0x10
   22f88:	8fd5                	or	a5,a5,a3
   22f8a:	0067fc63          	bgeu	a5,t1,22fa2 <__udivdi3+0x142>
   22f8e:	97ba                	add	a5,a5,a4
   22f90:	fffe0513          	add	a0,t3,-1
   22f94:	00e7e763          	bltu	a5,a4,22fa2 <__udivdi3+0x142>
   22f98:	0067f563          	bgeu	a5,t1,22fa2 <__udivdi3+0x142>
   22f9c:	ffee0513          	add	a0,t3,-2
   22fa0:	97ba                	add	a5,a5,a4
   22fa2:	406787b3          	sub	a5,a5,t1
   22fa6:	0317d333          	divu	t1,a5,a7
   22faa:	0842                	sll	a6,a6,0x10
   22fac:	01085813          	srl	a6,a6,0x10
   22fb0:	0317f7b3          	remu	a5,a5,a7
   22fb4:	026606b3          	mul	a3,a2,t1
   22fb8:	07c2                	sll	a5,a5,0x10
   22fba:	00f86833          	or	a6,a6,a5
   22fbe:	879a                	mv	a5,t1
   22fc0:	00d87b63          	bgeu	a6,a3,22fd6 <__udivdi3+0x176>
   22fc4:	983a                	add	a6,a6,a4
   22fc6:	fff30793          	add	a5,t1,-1
   22fca:	00e86663          	bltu	a6,a4,22fd6 <__udivdi3+0x176>
   22fce:	00d87463          	bgeu	a6,a3,22fd6 <__udivdi3+0x176>
   22fd2:	ffe30793          	add	a5,t1,-2
   22fd6:	0542                	sll	a0,a0,0x10
   22fd8:	8d5d                	or	a0,a0,a5
   22fda:	8082                	ret
   22fdc:	010007b7          	lui	a5,0x1000
   22fe0:	46c1                	li	a3,16
   22fe2:	f6f665e3          	bltu	a2,a5,22f4c <__udivdi3+0xec>
   22fe6:	46e1                	li	a3,24
   22fe8:	b795                	j	22f4c <__udivdi3+0xec>
   22fea:	00b61733          	sll	a4,a2,a1
   22fee:	00f356b3          	srl	a3,t1,a5
   22ff2:	01075513          	srl	a0,a4,0x10
   22ff6:	00b31333          	sll	t1,t1,a1
   22ffa:	00f8d7b3          	srl	a5,a7,a5
   22ffe:	0067e7b3          	or	a5,a5,t1
   23002:	02a6d333          	divu	t1,a3,a0
   23006:	01071613          	sll	a2,a4,0x10
   2300a:	8241                	srl	a2,a2,0x10
   2300c:	00b89833          	sll	a6,a7,a1
   23010:	02a6f6b3          	remu	a3,a3,a0
   23014:	026608b3          	mul	a7,a2,t1
   23018:	01069593          	sll	a1,a3,0x10
   2301c:	0107d693          	srl	a3,a5,0x10
   23020:	8ecd                	or	a3,a3,a1
   23022:	859a                	mv	a1,t1
   23024:	0116fc63          	bgeu	a3,a7,2303c <__udivdi3+0x1dc>
   23028:	96ba                	add	a3,a3,a4
   2302a:	fff30593          	add	a1,t1,-1
   2302e:	00e6e763          	bltu	a3,a4,2303c <__udivdi3+0x1dc>
   23032:	0116f563          	bgeu	a3,a7,2303c <__udivdi3+0x1dc>
   23036:	ffe30593          	add	a1,t1,-2
   2303a:	96ba                	add	a3,a3,a4
   2303c:	411686b3          	sub	a3,a3,a7
   23040:	02a6d8b3          	divu	a7,a3,a0
   23044:	07c2                	sll	a5,a5,0x10
   23046:	83c1                	srl	a5,a5,0x10
   23048:	02a6f6b3          	remu	a3,a3,a0
   2304c:	03160633          	mul	a2,a2,a7
   23050:	06c2                	sll	a3,a3,0x10
   23052:	8fd5                	or	a5,a5,a3
   23054:	86c6                	mv	a3,a7
   23056:	00c7fc63          	bgeu	a5,a2,2306e <__udivdi3+0x20e>
   2305a:	97ba                	add	a5,a5,a4
   2305c:	fff88693          	add	a3,a7,-1
   23060:	00e7e763          	bltu	a5,a4,2306e <__udivdi3+0x20e>
   23064:	00c7f563          	bgeu	a5,a2,2306e <__udivdi3+0x20e>
   23068:	ffe88693          	add	a3,a7,-2
   2306c:	97ba                	add	a5,a5,a4
   2306e:	05c2                	sll	a1,a1,0x10
   23070:	8f91                	sub	a5,a5,a2
   23072:	8dd5                	or	a1,a1,a3
   23074:	bddd                	j	22f6a <__udivdi3+0x10a>
   23076:	14d5e163          	bltu	a1,a3,231b8 <__udivdi3+0x358>
   2307a:	67c1                	lui	a5,0x10
   2307c:	02f6ff63          	bgeu	a3,a5,230ba <__udivdi3+0x25a>
   23080:	1006b713          	sltiu	a4,a3,256
   23084:	00174713          	xor	a4,a4,1
   23088:	070e                	sll	a4,a4,0x3
   2308a:	000247b7          	lui	a5,0x24
   2308e:	00e6d5b3          	srl	a1,a3,a4
   23092:	ac478793          	add	a5,a5,-1340 # 23ac4 <__clz_tab>
   23096:	97ae                	add	a5,a5,a1
   23098:	0007c783          	lbu	a5,0(a5)
   2309c:	97ba                	add	a5,a5,a4
   2309e:	02000713          	li	a4,32
   230a2:	40f705b3          	sub	a1,a4,a5
   230a6:	02f71163          	bne	a4,a5,230c8 <__udivdi3+0x268>
   230aa:	4505                	li	a0,1
   230ac:	e666eee3          	bltu	a3,t1,22f28 <__udivdi3+0xc8>
   230b0:	00c8b533          	sltu	a0,a7,a2
   230b4:	00154513          	xor	a0,a0,1
   230b8:	8082                	ret
   230ba:	010007b7          	lui	a5,0x1000
   230be:	4741                	li	a4,16
   230c0:	fcf6e5e3          	bltu	a3,a5,2308a <__udivdi3+0x22a>
   230c4:	4761                	li	a4,24
   230c6:	b7d1                	j	2308a <__udivdi3+0x22a>
   230c8:	00f65733          	srl	a4,a2,a5
   230cc:	00b696b3          	sll	a3,a3,a1
   230d0:	8ed9                	or	a3,a3,a4
   230d2:	00f35733          	srl	a4,t1,a5
   230d6:	00b31333          	sll	t1,t1,a1
   230da:	00f8d7b3          	srl	a5,a7,a5
   230de:	0067e7b3          	or	a5,a5,t1
   230e2:	0106d313          	srl	t1,a3,0x10
   230e6:	02675eb3          	divu	t4,a4,t1
   230ea:	01069813          	sll	a6,a3,0x10
   230ee:	01085813          	srl	a6,a6,0x10
   230f2:	00b61633          	sll	a2,a2,a1
   230f6:	02677733          	remu	a4,a4,t1
   230fa:	03d80e33          	mul	t3,a6,t4
   230fe:	01071513          	sll	a0,a4,0x10
   23102:	0107d713          	srl	a4,a5,0x10
   23106:	8f49                	or	a4,a4,a0
   23108:	8576                	mv	a0,t4
   2310a:	01c77c63          	bgeu	a4,t3,23122 <__udivdi3+0x2c2>
   2310e:	9736                	add	a4,a4,a3
   23110:	fffe8513          	add	a0,t4,-1
   23114:	00d76763          	bltu	a4,a3,23122 <__udivdi3+0x2c2>
   23118:	01c77563          	bgeu	a4,t3,23122 <__udivdi3+0x2c2>
   2311c:	ffee8513          	add	a0,t4,-2
   23120:	9736                	add	a4,a4,a3
   23122:	41c70733          	sub	a4,a4,t3
   23126:	02675e33          	divu	t3,a4,t1
   2312a:	07c2                	sll	a5,a5,0x10
   2312c:	83c1                	srl	a5,a5,0x10
   2312e:	02677733          	remu	a4,a4,t1
   23132:	03c80833          	mul	a6,a6,t3
   23136:	0742                	sll	a4,a4,0x10
   23138:	8fd9                	or	a5,a5,a4
   2313a:	8772                	mv	a4,t3
   2313c:	0107fc63          	bgeu	a5,a6,23154 <__udivdi3+0x2f4>
   23140:	97b6                	add	a5,a5,a3
   23142:	fffe0713          	add	a4,t3,-1
   23146:	00d7e763          	bltu	a5,a3,23154 <__udivdi3+0x2f4>
   2314a:	0107f563          	bgeu	a5,a6,23154 <__udivdi3+0x2f4>
   2314e:	ffee0713          	add	a4,t3,-2
   23152:	97b6                	add	a5,a5,a3
   23154:	0542                	sll	a0,a0,0x10
   23156:	6e41                	lui	t3,0x10
   23158:	8d59                	or	a0,a0,a4
   2315a:	fffe0693          	add	a3,t3,-1 # ffff <boot_program+0xffff>
   2315e:	00d57733          	and	a4,a0,a3
   23162:	410787b3          	sub	a5,a5,a6
   23166:	8ef1                	and	a3,a3,a2
   23168:	01055813          	srl	a6,a0,0x10
   2316c:	8241                	srl	a2,a2,0x10
   2316e:	02d70333          	mul	t1,a4,a3
   23172:	02d806b3          	mul	a3,a6,a3
   23176:	02c70733          	mul	a4,a4,a2
   2317a:	02c80833          	mul	a6,a6,a2
   2317e:	00d70633          	add	a2,a4,a3
   23182:	01035713          	srl	a4,t1,0x10
   23186:	9732                	add	a4,a4,a2
   23188:	00d77363          	bgeu	a4,a3,2318e <__udivdi3+0x32e>
   2318c:	9872                	add	a6,a6,t3
   2318e:	01075693          	srl	a3,a4,0x10
   23192:	96c2                	add	a3,a3,a6
   23194:	02d7e063          	bltu	a5,a3,231b4 <__udivdi3+0x354>
   23198:	d8d797e3          	bne	a5,a3,22f26 <__udivdi3+0xc6>
   2319c:	67c1                	lui	a5,0x10
   2319e:	17fd                	add	a5,a5,-1 # ffff <boot_program+0xffff>
   231a0:	8f7d                	and	a4,a4,a5
   231a2:	0742                	sll	a4,a4,0x10
   231a4:	00f37333          	and	t1,t1,a5
   231a8:	00b898b3          	sll	a7,a7,a1
   231ac:	971a                	add	a4,a4,t1
   231ae:	4581                	li	a1,0
   231b0:	d6e8fce3          	bgeu	a7,a4,22f28 <__udivdi3+0xc8>
   231b4:	157d                	add	a0,a0,-1 # ffffff <_ZN9SerialOut6statusE+0xfdbcdb>
   231b6:	bb85                	j	22f26 <__udivdi3+0xc6>
   231b8:	4581                	li	a1,0
   231ba:	4501                	li	a0,0
   231bc:	8082                	ret

000231be <__divsf3>:
   231be:	1101                	add	sp,sp,-32
   231c0:	ca26                	sw	s1,20(sp)
   231c2:	01755493          	srl	s1,a0,0x17
   231c6:	c84a                	sw	s2,16(sp)
   231c8:	c64e                	sw	s3,12(sp)
   231ca:	c452                	sw	s4,8(sp)
   231cc:	00951713          	sll	a4,a0,0x9
   231d0:	ce06                	sw	ra,28(sp)
   231d2:	cc22                	sw	s0,24(sp)
   231d4:	c256                	sw	s5,4(sp)
   231d6:	0ff4f493          	zext.b	s1,s1
   231da:	8a2e                	mv	s4,a1
   231dc:	00975993          	srl	s3,a4,0x9
   231e0:	01f55913          	srl	s2,a0,0x1f
   231e4:	c4ad                	beqz	s1,2324e <__divsf3+0x90>
   231e6:	0ff00793          	li	a5,255
   231ea:	06f48e63          	beq	s1,a5,23266 <__divsf3+0xa8>
   231ee:	00399713          	sll	a4,s3,0x3
   231f2:	040007b7          	lui	a5,0x4000
   231f6:	00f769b3          	or	s3,a4,a5
   231fa:	f8148493          	add	s1,s1,-127
   231fe:	4a81                	li	s5,0
   23200:	017a5793          	srl	a5,s4,0x17
   23204:	009a1413          	sll	s0,s4,0x9
   23208:	0ff7f793          	zext.b	a5,a5
   2320c:	8025                	srl	s0,s0,0x9
   2320e:	01fa5a13          	srl	s4,s4,0x1f
   23212:	c7a5                	beqz	a5,2327a <__divsf3+0xbc>
   23214:	0ff00713          	li	a4,255
   23218:	06e78c63          	beq	a5,a4,23290 <__divsf3+0xd2>
   2321c:	040e                	sll	s0,s0,0x3
   2321e:	04000737          	lui	a4,0x4000
   23222:	8c59                	or	s0,s0,a4
   23224:	f8178793          	add	a5,a5,-127 # 3ffff81 <_ZN9SerialOut6statusE+0x3fdbc5d>
   23228:	4681                	li	a3,0
   2322a:	8c9d                	sub	s1,s1,a5
   2322c:	002a9793          	sll	a5,s5,0x2
   23230:	8fd5                	or	a5,a5,a3
   23232:	17fd                	add	a5,a5,-1
   23234:	4739                	li	a4,14
   23236:	01494633          	xor	a2,s2,s4
   2323a:	08f76363          	bltu	a4,a5,232c0 <__divsf3+0x102>
   2323e:	00024737          	lui	a4,0x24
   23242:	078a                	sll	a5,a5,0x2
   23244:	a8870713          	add	a4,a4,-1400 # 23a88 <__clzsi2+0x548>
   23248:	97ba                	add	a5,a5,a4
   2324a:	439c                	lw	a5,0(a5)
   2324c:	8782                	jr	a5
   2324e:	02098363          	beqz	s3,23274 <__divsf3+0xb6>
   23252:	854e                	mv	a0,s3
   23254:	24f5                	jal	23540 <__clzsi2>
   23256:	ffb50793          	add	a5,a0,-5
   2325a:	f8a00493          	li	s1,-118
   2325e:	00f999b3          	sll	s3,s3,a5
   23262:	8c89                	sub	s1,s1,a0
   23264:	bf69                	j	231fe <__divsf3+0x40>
   23266:	0ff00493          	li	s1,255
   2326a:	4a8d                	li	s5,3
   2326c:	f8099ae3          	bnez	s3,23200 <__divsf3+0x42>
   23270:	4a89                	li	s5,2
   23272:	b779                	j	23200 <__divsf3+0x42>
   23274:	4481                	li	s1,0
   23276:	4a85                	li	s5,1
   23278:	b761                	j	23200 <__divsf3+0x42>
   2327a:	c00d                	beqz	s0,2329c <__divsf3+0xde>
   2327c:	8522                	mv	a0,s0
   2327e:	24c9                	jal	23540 <__clzsi2>
   23280:	ffb50793          	add	a5,a0,-5
   23284:	00f41433          	sll	s0,s0,a5
   23288:	f8a00793          	li	a5,-118
   2328c:	8f89                	sub	a5,a5,a0
   2328e:	bf69                	j	23228 <__divsf3+0x6a>
   23290:	0ff00793          	li	a5,255
   23294:	468d                	li	a3,3
   23296:	f851                	bnez	s0,2322a <__divsf3+0x6c>
   23298:	4689                	li	a3,2
   2329a:	bf41                	j	2322a <__divsf3+0x6c>
   2329c:	4781                	li	a5,0
   2329e:	4685                	li	a3,1
   232a0:	b769                	j	2322a <__divsf3+0x6c>
   232a2:	864a                	mv	a2,s2
   232a4:	844e                	mv	s0,s3
   232a6:	86d6                	mv	a3,s5
   232a8:	4789                	li	a5,2
   232aa:	14f68a63          	beq	a3,a5,233fe <__divsf3+0x240>
   232ae:	478d                	li	a5,3
   232b0:	14f68163          	beq	a3,a5,233f2 <__divsf3+0x234>
   232b4:	4785                	li	a5,1
   232b6:	08f69763          	bne	a3,a5,23344 <__divsf3+0x186>
   232ba:	4781                	li	a5,0
   232bc:	4701                	li	a4,0
   232be:	a0c1                	j	2337e <__divsf3+0x1c0>
   232c0:	00541593          	sll	a1,s0,0x5
   232c4:	0c89fd63          	bgeu	s3,s0,2339e <__divsf3+0x1e0>
   232c8:	14fd                	add	s1,s1,-1
   232ca:	4781                	li	a5,0
   232cc:	0105d513          	srl	a0,a1,0x10
   232d0:	02a9d8b3          	divu	a7,s3,a0
   232d4:	66c1                	lui	a3,0x10
   232d6:	16fd                	add	a3,a3,-1 # ffff <boot_program+0xffff>
   232d8:	8eed                	and	a3,a3,a1
   232da:	83c1                	srl	a5,a5,0x10
   232dc:	02a9f733          	remu	a4,s3,a0
   232e0:	8446                	mv	s0,a7
   232e2:	03168833          	mul	a6,a3,a7
   232e6:	0742                	sll	a4,a4,0x10
   232e8:	8fd9                	or	a5,a5,a4
   232ea:	0107fc63          	bgeu	a5,a6,23302 <__divsf3+0x144>
   232ee:	97ae                	add	a5,a5,a1
   232f0:	fff88413          	add	s0,a7,-1
   232f4:	00b7e763          	bltu	a5,a1,23302 <__divsf3+0x144>
   232f8:	0107f563          	bgeu	a5,a6,23302 <__divsf3+0x144>
   232fc:	ffe88413          	add	s0,a7,-2
   23300:	97ae                	add	a5,a5,a1
   23302:	410787b3          	sub	a5,a5,a6
   23306:	02a7d833          	divu	a6,a5,a0
   2330a:	02a7f7b3          	remu	a5,a5,a0
   2330e:	03068733          	mul	a4,a3,a6
   23312:	07c2                	sll	a5,a5,0x10
   23314:	86c2                	mv	a3,a6
   23316:	02e7f163          	bgeu	a5,a4,23338 <__divsf3+0x17a>
   2331a:	00b78533          	add	a0,a5,a1
   2331e:	00f538b3          	sltu	a7,a0,a5
   23322:	fff80693          	add	a3,a6,-1
   23326:	87aa                	mv	a5,a0
   23328:	00089863          	bnez	a7,23338 <__divsf3+0x17a>
   2332c:	00e57663          	bgeu	a0,a4,23338 <__divsf3+0x17a>
   23330:	ffe80693          	add	a3,a6,-2
   23334:	00b507b3          	add	a5,a0,a1
   23338:	0442                	sll	s0,s0,0x10
   2333a:	8f99                	sub	a5,a5,a4
   2333c:	8c55                	or	s0,s0,a3
   2333e:	00f037b3          	snez	a5,a5
   23342:	8c5d                	or	s0,s0,a5
   23344:	07f48713          	add	a4,s1,127
   23348:	06e05263          	blez	a4,233ac <__divsf3+0x1ee>
   2334c:	00747793          	and	a5,s0,7
   23350:	c799                	beqz	a5,2335e <__divsf3+0x1a0>
   23352:	00f47793          	and	a5,s0,15
   23356:	4691                	li	a3,4
   23358:	00d78363          	beq	a5,a3,2335e <__divsf3+0x1a0>
   2335c:	0411                	add	s0,s0,4
   2335e:	080007b7          	lui	a5,0x8000
   23362:	8fe1                	and	a5,a5,s0
   23364:	c799                	beqz	a5,23372 <__divsf3+0x1b4>
   23366:	f80007b7          	lui	a5,0xf8000
   2336a:	17fd                	add	a5,a5,-1 # f7ffffff <_ZN9SerialOut6statusE+0xf7fdbcdb>
   2336c:	8c7d                	and	s0,s0,a5
   2336e:	08048713          	add	a4,s1,128
   23372:	0fe00793          	li	a5,254
   23376:	08e7c463          	blt	a5,a4,233fe <__divsf3+0x240>
   2337a:	00345793          	srl	a5,s0,0x3
   2337e:	40f2                	lw	ra,28(sp)
   23380:	4462                	lw	s0,24(sp)
   23382:	07a6                	sll	a5,a5,0x9
   23384:	075e                	sll	a4,a4,0x17
   23386:	83a5                	srl	a5,a5,0x9
   23388:	8f5d                	or	a4,a4,a5
   2338a:	01f61513          	sll	a0,a2,0x1f
   2338e:	44d2                	lw	s1,20(sp)
   23390:	4942                	lw	s2,16(sp)
   23392:	49b2                	lw	s3,12(sp)
   23394:	4a22                	lw	s4,8(sp)
   23396:	4a92                	lw	s5,4(sp)
   23398:	8d59                	or	a0,a0,a4
   2339a:	6105                	add	sp,sp,32
   2339c:	8082                	ret
   2339e:	01f99793          	sll	a5,s3,0x1f
   233a2:	0019d993          	srl	s3,s3,0x1
   233a6:	b71d                	j	232cc <__divsf3+0x10e>
   233a8:	8652                	mv	a2,s4
   233aa:	bdfd                	j	232a8 <__divsf3+0xea>
   233ac:	4685                	li	a3,1
   233ae:	c719                	beqz	a4,233bc <__divsf3+0x1fe>
   233b0:	8e99                	sub	a3,a3,a4
   233b2:	45ed                	li	a1,27
   233b4:	4781                	li	a5,0
   233b6:	4701                	li	a4,0
   233b8:	fcd5c3e3          	blt	a1,a3,2337e <__divsf3+0x1c0>
   233bc:	09e48493          	add	s1,s1,158
   233c0:	00d456b3          	srl	a3,s0,a3
   233c4:	00941433          	sll	s0,s0,s1
   233c8:	00803433          	snez	s0,s0
   233cc:	0086e7b3          	or	a5,a3,s0
   233d0:	0077f713          	and	a4,a5,7
   233d4:	c719                	beqz	a4,233e2 <__divsf3+0x224>
   233d6:	00f7f713          	and	a4,a5,15
   233da:	4691                	li	a3,4
   233dc:	00d70363          	beq	a4,a3,233e2 <__divsf3+0x224>
   233e0:	0791                	add	a5,a5,4
   233e2:	04000737          	lui	a4,0x4000
   233e6:	8f7d                	and	a4,a4,a5
   233e8:	838d                	srl	a5,a5,0x3
   233ea:	db51                	beqz	a4,2337e <__divsf3+0x1c0>
   233ec:	4781                	li	a5,0
   233ee:	4705                	li	a4,1
   233f0:	b779                	j	2337e <__divsf3+0x1c0>
   233f2:	004007b7          	lui	a5,0x400
   233f6:	0ff00713          	li	a4,255
   233fa:	4601                	li	a2,0
   233fc:	b749                	j	2337e <__divsf3+0x1c0>
   233fe:	4781                	li	a5,0
   23400:	0ff00713          	li	a4,255
   23404:	bfad                	j	2337e <__divsf3+0x1c0>

00023406 <__floatundisf>:
   23406:	1101                	add	sp,sp,-32
   23408:	ce06                	sw	ra,28(sp)
   2340a:	cc22                	sw	s0,24(sp)
   2340c:	ca26                	sw	s1,20(sp)
   2340e:	c84a                	sw	s2,16(sp)
   23410:	c64e                	sw	s3,12(sp)
   23412:	c452                	sw	s4,8(sp)
   23414:	00b567b3          	or	a5,a0,a1
   23418:	c7f1                	beqz	a5,234e4 <__floatundisf+0xde>
   2341a:	8a2a                	mv	s4,a0
   2341c:	89ae                	mv	s3,a1
   2341e:	c1bd                	beqz	a1,23484 <__floatundisf+0x7e>
   23420:	852e                	mv	a0,a1
   23422:	2a39                	jal	23540 <__clzsi2>
   23424:	0be00493          	li	s1,190
   23428:	892a                	mv	s2,a0
   2342a:	8c89                	sub	s1,s1,a0
   2342c:	01b90613          	add	a2,s2,27
   23430:	8552                	mv	a0,s4
   23432:	85ce                	mv	a1,s3
   23434:	20d5                	jal	23518 <__ashldi3>
   23436:	02500613          	li	a2,37
   2343a:	00b56433          	or	s0,a0,a1
   2343e:	41260633          	sub	a2,a2,s2
   23442:	8552                	mv	a0,s4
   23444:	85ce                	mv	a1,s3
   23446:	00803433          	snez	s0,s0
   2344a:	205d                	jal	234f0 <__lshrdi3>
   2344c:	8c49                	or	s0,s0,a0
   2344e:	fc0007b7          	lui	a5,0xfc000
   23452:	17fd                	add	a5,a5,-1 # fbffffff <_ZN9SerialOut6statusE+0xfbfdbcdb>
   23454:	00747713          	and	a4,s0,7
   23458:	8fe1                	and	a5,a5,s0
   2345a:	c711                	beqz	a4,23466 <__floatundisf+0x60>
   2345c:	883d                	and	s0,s0,15
   2345e:	4711                	li	a4,4
   23460:	00e40363          	beq	s0,a4,23466 <__floatundisf+0x60>
   23464:	0791                	add	a5,a5,4
   23466:	04000737          	lui	a4,0x4000
   2346a:	8f7d                	and	a4,a4,a5
   2346c:	cb09                	beqz	a4,2347e <__floatundisf+0x78>
   2346e:	fc000737          	lui	a4,0xfc000
   23472:	177d                	add	a4,a4,-1 # fbffffff <_ZN9SerialOut6statusE+0xfbfdbcdb>
   23474:	0bf00493          	li	s1,191
   23478:	8ff9                	and	a5,a5,a4
   2347a:	412484b3          	sub	s1,s1,s2
   2347e:	0037d413          	srl	s0,a5,0x3
   23482:	a025                	j	234aa <__floatundisf+0xa4>
   23484:	842a                	mv	s0,a0
   23486:	286d                	jal	23540 <__clzsi2>
   23488:	02050913          	add	s2,a0,32
   2348c:	0be00493          	li	s1,190
   23490:	412484b3          	sub	s1,s1,s2
   23494:	09600793          	li	a5,150
   23498:	0297c663          	blt	a5,s1,234c4 <__floatundisf+0xbe>
   2349c:	02800793          	li	a5,40
   234a0:	04f90563          	beq	s2,a5,234ea <__floatundisf+0xe4>
   234a4:	1561                	add	a0,a0,-8
   234a6:	00aa1433          	sll	s0,s4,a0
   234aa:	0426                	sll	s0,s0,0x9
   234ac:	01749513          	sll	a0,s1,0x17
   234b0:	8025                	srl	s0,s0,0x9
   234b2:	40f2                	lw	ra,28(sp)
   234b4:	8d41                	or	a0,a0,s0
   234b6:	4462                	lw	s0,24(sp)
   234b8:	44d2                	lw	s1,20(sp)
   234ba:	4942                	lw	s2,16(sp)
   234bc:	49b2                	lw	s3,12(sp)
   234be:	4a22                	lw	s4,8(sp)
   234c0:	6105                	add	sp,sp,32
   234c2:	8082                	ret
   234c4:	09900793          	li	a5,153
   234c8:	f697c2e3          	blt	a5,s1,2342c <__floatundisf+0x26>
   234cc:	02500713          	li	a4,37
   234d0:	ffb50793          	add	a5,a0,-5
   234d4:	00e90563          	beq	s2,a4,234de <__floatundisf+0xd8>
   234d8:	00fa1433          	sll	s0,s4,a5
   234dc:	bf8d                	j	2344e <__floatundisf+0x48>
   234de:	09900493          	li	s1,153
   234e2:	b7b5                	j	2344e <__floatundisf+0x48>
   234e4:	4401                	li	s0,0
   234e6:	4481                	li	s1,0
   234e8:	b7c9                	j	234aa <__floatundisf+0xa4>
   234ea:	09600493          	li	s1,150
   234ee:	bf75                	j	234aa <__floatundisf+0xa4>

000234f0 <__lshrdi3>:
   234f0:	ca19                	beqz	a2,23506 <__lshrdi3+0x16>
   234f2:	02000793          	li	a5,32
   234f6:	8f91                	sub	a5,a5,a2
   234f8:	00f04863          	bgtz	a5,23508 <__lshrdi3+0x18>
   234fc:	1601                	add	a2,a2,-32
   234fe:	00c5d533          	srl	a0,a1,a2
   23502:	4701                	li	a4,0
   23504:	85ba                	mv	a1,a4
   23506:	8082                	ret
   23508:	00c5d733          	srl	a4,a1,a2
   2350c:	00c55533          	srl	a0,a0,a2
   23510:	00f595b3          	sll	a1,a1,a5
   23514:	8d4d                	or	a0,a0,a1
   23516:	b7fd                	j	23504 <__lshrdi3+0x14>

00023518 <__ashldi3>:
   23518:	ca19                	beqz	a2,2352e <__ashldi3+0x16>
   2351a:	02000793          	li	a5,32
   2351e:	8f91                	sub	a5,a5,a2
   23520:	00f04863          	bgtz	a5,23530 <__ashldi3+0x18>
   23524:	1601                	add	a2,a2,-32
   23526:	00c515b3          	sll	a1,a0,a2
   2352a:	4701                	li	a4,0
   2352c:	853a                	mv	a0,a4
   2352e:	8082                	ret
   23530:	00c51733          	sll	a4,a0,a2
   23534:	00c595b3          	sll	a1,a1,a2
   23538:	00f55533          	srl	a0,a0,a5
   2353c:	8dc9                	or	a1,a1,a0
   2353e:	b7fd                	j	2352c <__ashldi3+0x14>

00023540 <__clzsi2>:
   23540:	67c1                	lui	a5,0x10
   23542:	02f57663          	bgeu	a0,a5,2356e <__clzsi2+0x2e>
   23546:	10053793          	sltiu	a5,a0,256
   2354a:	0017c793          	xor	a5,a5,1
   2354e:	078e                	sll	a5,a5,0x3
   23550:	00024737          	lui	a4,0x24
   23554:	02000693          	li	a3,32
   23558:	8e9d                	sub	a3,a3,a5
   2355a:	00f55533          	srl	a0,a0,a5
   2355e:	ac470793          	add	a5,a4,-1340 # 23ac4 <__clz_tab>
   23562:	97aa                	add	a5,a5,a0
   23564:	0007c503          	lbu	a0,0(a5) # 10000 <boot_program+0x10000>
   23568:	40a68533          	sub	a0,a3,a0
   2356c:	8082                	ret
   2356e:	01000737          	lui	a4,0x1000
   23572:	47c1                	li	a5,16
   23574:	fce56ee3          	bltu	a0,a4,23550 <__clzsi2+0x10>
   23578:	47e1                	li	a5,24
   2357a:	bfd9                	j	23550 <__clzsi2+0x10>
