
output.elf:     file format elf32-littleriscv


Disassembly of section .boot:

00000000 <boot_program>:
   0:	88000137          	.word	0x88000137
   4:	00800293          	.word	0x00800293
   8:	3002a073          	.word	0x3002a073
   c:	fff00293          	.word	0xfff00293
  10:	3042a073          	.word	0x3042a073
  14:	04800293          	.word	0x04800293
  18:	80000337          	.word	0x80000337
  1c:	000043b7          	.word	0x000043b7
  20:	fff38393          	.word	0xfff38393

00000024 <copy_loop>:
  24:	0002a503          	.word	0x0002a503
  28:	00a32023          	.word	0x00a32023
  2c:	00428293          	.word	0x00428293
  30:	00430313          	.word	0x00430313
  34:	fe72c8e3          	.word	0xfe72c8e3
  38:	80001317          	.word	0x80001317
  3c:	48430313          	.word	0x48430313
  40:	000300e7          	.word	0x000300e7
  44:	c0001073          	.word	0xc0001073

Disassembly of section .text:

80000000 <_ZN9Serial_IO4initEmbN4UART12parityMode_eENS0_10stopBits_eENS0_12dataLenght_eE>:
80000000:	800027b7          	lui	a5,0x80002
80000004:	00004837          	lui	a6,0x4
80000008:	0307ae23          	sw	a6,60(a5) # 8000203c <_ZN9Serial_IO6statusE>
8000000c:	03c7a803          	lw	a6,60(a5)
80000010:	00480813          	addi	a6,a6,4 # 4004 <copy_loop+0x3fe0>
80000014:	800028b7          	lui	a7,0x80002
80000018:	0308ac23          	sw	a6,56(a7) # 80002038 <_ZN9Serial_IO8bufferTXE>
8000001c:	03c7a803          	lw	a6,60(a5)
80000020:	03c7a883          	lw	a7,60(a5)
80000024:	0015f593          	andi	a1,a1,1
80000028:	00b59813          	slli	a6,a1,0xb
8000002c:	0008a583          	lw	a1,0(a7)
80000030:	48b59593          	bclri	a1,a1,0xb
80000034:	0105e5b3          	or	a1,a1,a6
80000038:	00b8a023          	sw	a1,0(a7)
8000003c:	03c7a803          	lw	a6,60(a5)
80000040:	00377713          	andi	a4,a4,3
80000044:	00e71593          	slli	a1,a4,0xe
80000048:	00082703          	lw	a4,0(a6)
8000004c:	48e71713          	bclri	a4,a4,0xe
80000050:	48f71713          	bclri	a4,a4,0xf
80000054:	00b76733          	or	a4,a4,a1
80000058:	00e82023          	sw	a4,0(a6)
8000005c:	03c7a583          	lw	a1,60(a5)
80000060:	0016f693          	andi	a3,a3,1
80000064:	00d69693          	slli	a3,a3,0xd
80000068:	0005a703          	lw	a4,0(a1)
8000006c:	48d71713          	bclri	a4,a4,0xd
80000070:	00d76733          	or	a4,a4,a3
80000074:	00e5a023          	sw	a4,0(a1)
80000078:	03c7a683          	lw	a3,60(a5)
8000007c:	00167613          	andi	a2,a2,1
80000080:	00c61713          	slli	a4,a2,0xc
80000084:	0006a603          	lw	a2,0(a3)
80000088:	48c61613          	bclri	a2,a2,0xc
8000008c:	00e66633          	or	a2,a2,a4
80000090:	00c6a023          	sw	a2,0(a3)
80000094:	00451513          	slli	a0,a0,0x4
80000098:	05f5e737          	lui	a4,0x5f5e
8000009c:	10070713          	addi	a4,a4,256 # 5f5e100 <copy_loop+0x5f5e0dc>
800000a0:	02a75733          	divu	a4,a4,a0
800000a4:	fff70713          	addi	a4,a4,-1
800000a8:	03c7a603          	lw	a2,60(a5)
800000ac:	01171713          	slli	a4,a4,0x11
800000b0:	00062683          	lw	a3,0(a2)
800000b4:	00f69693          	slli	a3,a3,0xf
800000b8:	00f6d693          	srli	a3,a3,0xf
800000bc:	00e6e733          	or	a4,a3,a4
800000c0:	00e62023          	sw	a4,0(a2)
800000c4:	03c7a683          	lw	a3,60(a5)
800000c8:	0006a703          	lw	a4,0(a3)
800000cc:	20076713          	ori	a4,a4,512
800000d0:	00e6a023          	sw	a4,0(a3)
800000d4:	03c7a703          	lw	a4,60(a5)
800000d8:	00072783          	lw	a5,0(a4)
800000dc:	4007e793          	ori	a5,a5,1024
800000e0:	00f72023          	sw	a5,0(a4)
800000e4:	00008067          	ret

800000e8 <_ZN9Serial_IO5writeEc>:
800000e8:	80002737          	lui	a4,0x80002
800000ec:	03c72783          	lw	a5,60(a4) # 8000203c <_ZN9Serial_IO6statusE>
800000f0:	0007a783          	lw	a5,0(a5)
800000f4:	4837d793          	bexti	a5,a5,0x3
800000f8:	fe079ae3          	bnez	a5,800000ec <_ZN9Serial_IO5writeEc+0x4>
800000fc:	800027b7          	lui	a5,0x80002
80000100:	0387a783          	lw	a5,56(a5) # 80002038 <_ZN9Serial_IO8bufferTXE>
80000104:	00a78023          	sb	a0,0(a5)
80000108:	00008067          	ret

8000010c <_ZN9Serial_IO5writeEPKcm>:
8000010c:	02058c63          	beqz	a1,80000144 <_ZN9Serial_IO5writeEPKcm+0x38>
80000110:	800027b7          	lui	a5,0x80002
80000114:	0387a803          	lw	a6,56(a5) # 80002038 <_ZN9Serial_IO8bufferTXE>
80000118:	00050693          	mv	a3,a0
8000011c:	00b50633          	add	a2,a0,a1
80000120:	80002737          	lui	a4,0x80002
80000124:	03c72783          	lw	a5,60(a4) # 8000203c <_ZN9Serial_IO6statusE>
80000128:	0007a783          	lw	a5,0(a5)
8000012c:	4837d793          	bexti	a5,a5,0x3
80000130:	fe079ae3          	bnez	a5,80000124 <_ZN9Serial_IO5writeEPKcm+0x18>
80000134:	0006c783          	lbu	a5,0(a3)
80000138:	00f80023          	sb	a5,0(a6)
8000013c:	00168693          	addi	a3,a3,1
80000140:	fec692e3          	bne	a3,a2,80000124 <_ZN9Serial_IO5writeEPKcm+0x18>
80000144:	00008067          	ret

80000148 <_ZN9Serial_IO5writeEPKc>:
80000148:	ff010113          	addi	sp,sp,-16
8000014c:	00112623          	sw	ra,12(sp)
80000150:	00054783          	lbu	a5,0(a0)
80000154:	02078463          	beqz	a5,8000017c <_ZN9Serial_IO5writeEPKc+0x34>
80000158:	00000593          	li	a1,0
8000015c:	00158593          	addi	a1,a1,1
80000160:	00b507b3          	add	a5,a0,a1
80000164:	0007c783          	lbu	a5,0(a5)
80000168:	fe079ae3          	bnez	a5,8000015c <_ZN9Serial_IO5writeEPKc+0x14>
8000016c:	fa1ff0ef          	jal	8000010c <_ZN9Serial_IO5writeEPKcm>
80000170:	00c12083          	lw	ra,12(sp)
80000174:	01010113          	addi	sp,sp,16
80000178:	00008067          	ret
8000017c:	00000593          	li	a1,0
80000180:	fedff06f          	j	8000016c <_ZN9Serial_IO5writeEPKc+0x24>

80000184 <_ZN16AudioSynthesizerC1Ev>:
80000184:	000107b7          	lui	a5,0x10
80000188:	02078793          	addi	a5,a5,32 # 10020 <copy_loop+0xfffc>
8000018c:	00f52223          	sw	a5,4(a0)
80000190:	00f52423          	sw	a5,8(a0)
80000194:	00012637          	lui	a2,0x12
80000198:	02060613          	addi	a2,a2,32 # 12020 <copy_loop+0x11ffc>
8000019c:	00c52623          	sw	a2,12(a0)
800001a0:	000127b7          	lui	a5,0x12
800001a4:	02478793          	addi	a5,a5,36 # 12024 <copy_loop+0x12000>
800001a8:	00f52823          	sw	a5,16(a0)
800001ac:	000127b7          	lui	a5,0x12
800001b0:	02878793          	addi	a5,a5,40 # 12028 <copy_loop+0x12004>
800001b4:	00f52a23          	sw	a5,20(a0)
800001b8:	000127b7          	lui	a5,0x12
800001bc:	02c78793          	addi	a5,a5,44 # 1202c <copy_loop+0x12008>
800001c0:	00f52c23          	sw	a5,24(a0)
800001c4:	000127b7          	lui	a5,0x12
800001c8:	03078793          	addi	a5,a5,48 # 12030 <copy_loop+0x1200c>
800001cc:	00f52e23          	sw	a5,28(a0)
800001d0:	000127b7          	lui	a5,0x12
800001d4:	03478793          	addi	a5,a5,52 # 12034 <copy_loop+0x12010>
800001d8:	02f52023          	sw	a5,32(a0)
800001dc:	000127b7          	lui	a5,0x12
800001e0:	03878793          	addi	a5,a5,56 # 12038 <copy_loop+0x12014>
800001e4:	02f52223          	sw	a5,36(a0)
800001e8:	000127b7          	lui	a5,0x12
800001ec:	03c78793          	addi	a5,a5,60 # 1203c <copy_loop+0x12018>
800001f0:	02f52423          	sw	a5,40(a0)
800001f4:	000126b7          	lui	a3,0x12
800001f8:	04068693          	addi	a3,a3,64 # 12040 <copy_loop+0x1201c>
800001fc:	02d52623          	sw	a3,44(a0)
80000200:	000127b7          	lui	a5,0x12
80000204:	04478793          	addi	a5,a5,68 # 12044 <copy_loop+0x12020>
80000208:	02f52823          	sw	a5,48(a0)
8000020c:	000127b7          	lui	a5,0x12
80000210:	04878793          	addi	a5,a5,72 # 12048 <copy_loop+0x12024>
80000214:	02f52a23          	sw	a5,52(a0)
80000218:	000127b7          	lui	a5,0x12
8000021c:	04c78793          	addi	a5,a5,76 # 1204c <copy_loop+0x12028>
80000220:	02f52c23          	sw	a5,56(a0)
80000224:	000127b7          	lui	a5,0x12
80000228:	05078793          	addi	a5,a5,80 # 12050 <copy_loop+0x1202c>
8000022c:	02f52e23          	sw	a5,60(a0)
80000230:	000127b7          	lui	a5,0x12
80000234:	05478793          	addi	a5,a5,84 # 12054 <copy_loop+0x12030>
80000238:	04f52023          	sw	a5,64(a0)
8000023c:	000127b7          	lui	a5,0x12
80000240:	05878793          	addi	a5,a5,88 # 12058 <copy_loop+0x12034>
80000244:	04f52223          	sw	a5,68(a0)
80000248:	000127b7          	lui	a5,0x12
8000024c:	05c78793          	addi	a5,a5,92 # 1205c <copy_loop+0x12038>
80000250:	04f52423          	sw	a5,72(a0)
80000254:	00012737          	lui	a4,0x12
80000258:	06070713          	addi	a4,a4,96 # 12060 <copy_loop+0x1203c>
8000025c:	04e52623          	sw	a4,76(a0)
80000260:	000127b7          	lui	a5,0x12
80000264:	06478793          	addi	a5,a5,100 # 12064 <copy_loop+0x12040>
80000268:	04f52823          	sw	a5,80(a0)
8000026c:	000127b7          	lui	a5,0x12
80000270:	06878793          	addi	a5,a5,104 # 12068 <copy_loop+0x12044>
80000274:	04f52a23          	sw	a5,84(a0)
80000278:	000127b7          	lui	a5,0x12
8000027c:	06c78793          	addi	a5,a5,108 # 1206c <copy_loop+0x12048>
80000280:	04f52c23          	sw	a5,88(a0)
80000284:	000127b7          	lui	a5,0x12
80000288:	07078793          	addi	a5,a5,112 # 12070 <copy_loop+0x1204c>
8000028c:	04f52e23          	sw	a5,92(a0)
80000290:	000127b7          	lui	a5,0x12
80000294:	07478793          	addi	a5,a5,116 # 12074 <copy_loop+0x12050>
80000298:	06f52023          	sw	a5,96(a0)
8000029c:	000127b7          	lui	a5,0x12
800002a0:	07878793          	addi	a5,a5,120 # 12078 <copy_loop+0x12054>
800002a4:	06f52223          	sw	a5,100(a0)
800002a8:	000127b7          	lui	a5,0x12
800002ac:	07c78793          	addi	a5,a5,124 # 1207c <copy_loop+0x12058>
800002b0:	06f52423          	sw	a5,104(a0)
800002b4:	000127b7          	lui	a5,0x12
800002b8:	08078793          	addi	a5,a5,128 # 12080 <copy_loop+0x1205c>
800002bc:	06f52623          	sw	a5,108(a0)
800002c0:	000125b7          	lui	a1,0x12
800002c4:	08458593          	addi	a1,a1,132 # 12084 <copy_loop+0x12060>
800002c8:	06b52823          	sw	a1,112(a0)
800002cc:	000125b7          	lui	a1,0x12
800002d0:	08858593          	addi	a1,a1,136 # 12088 <copy_loop+0x12064>
800002d4:	06b52a23          	sw	a1,116(a0)
800002d8:	000125b7          	lui	a1,0x12
800002dc:	08c58593          	addi	a1,a1,140 # 1208c <copy_loop+0x12068>
800002e0:	06b52c23          	sw	a1,120(a0)
800002e4:	000125b7          	lui	a1,0x12
800002e8:	09058593          	addi	a1,a1,144 # 12090 <copy_loop+0x1206c>
800002ec:	06b52e23          	sw	a1,124(a0)
800002f0:	000125b7          	lui	a1,0x12
800002f4:	09458593          	addi	a1,a1,148 # 12094 <copy_loop+0x12070>
800002f8:	08b52023          	sw	a1,128(a0)
800002fc:	000125b7          	lui	a1,0x12
80000300:	09858593          	addi	a1,a1,152 # 12098 <copy_loop+0x12074>
80000304:	08b52223          	sw	a1,132(a0)
80000308:	000125b7          	lui	a1,0x12
8000030c:	09c58593          	addi	a1,a1,156 # 1209c <copy_loop+0x12078>
80000310:	08b52423          	sw	a1,136(a0)
80000314:	000125b7          	lui	a1,0x12
80000318:	0a058593          	addi	a1,a1,160 # 120a0 <copy_loop+0x1207c>
8000031c:	08b52623          	sw	a1,140(a0)
80000320:	00062583          	lw	a1,0(a2)
80000324:	ff75f593          	andi	a1,a1,-9
80000328:	00b62023          	sw	a1,0(a2)
8000032c:	00062583          	lw	a1,0(a2)
80000330:	ffd5f593          	andi	a1,a1,-3
80000334:	00b62023          	sw	a1,0(a2)
80000338:	0006a603          	lw	a2,0(a3)
8000033c:	ff767613          	andi	a2,a2,-9
80000340:	00c6a023          	sw	a2,0(a3)
80000344:	0006a603          	lw	a2,0(a3)
80000348:	ffd67613          	andi	a2,a2,-3
8000034c:	00c6a023          	sw	a2,0(a3)
80000350:	00072683          	lw	a3,0(a4)
80000354:	ff76f693          	andi	a3,a3,-9
80000358:	00d72023          	sw	a3,0(a4)
8000035c:	00072683          	lw	a3,0(a4)
80000360:	ffd6f693          	andi	a3,a3,-3
80000364:	00d72023          	sw	a3,0(a4)
80000368:	0007a703          	lw	a4,0(a5)
8000036c:	ff777713          	andi	a4,a4,-9
80000370:	00e7a023          	sw	a4,0(a5)
80000374:	0007a703          	lw	a4,0(a5)
80000378:	ffd77713          	andi	a4,a4,-3
8000037c:	00e7a023          	sw	a4,0(a5)
80000380:	00100793          	li	a5,1
80000384:	00f52023          	sw	a5,0(a0)
80000388:	00008067          	ret

8000038c <_ZN16AudioSynthesizer10selectWaveENS_6wave_eE>:
8000038c:	00b52023          	sw	a1,0(a0)
80000390:	00008067          	ret

80000394 <_ZN16AudioSynthesizer7setWaveEb>:
80000394:	00052783          	lw	a5,0(a0)
80000398:	00200713          	li	a4,2
8000039c:	06e78c63          	beq	a5,a4,80000414 <_ZN16AudioSynthesizer7setWaveEb+0x80>
800003a0:	02f76463          	bltu	a4,a5,800003c8 <_ZN16AudioSynthesizer7setWaveEb+0x34>
800003a4:	04078863          	beqz	a5,800003f4 <_ZN16AudioSynthesizer7setWaveEb+0x60>
800003a8:	02c52703          	lw	a4,44(a0)
800003ac:	0015f593          	andi	a1,a1,1
800003b0:	00159593          	slli	a1,a1,0x1
800003b4:	00072783          	lw	a5,0(a4)
800003b8:	ffd7f793          	andi	a5,a5,-3
800003bc:	00b7e7b3          	or	a5,a5,a1
800003c0:	00f72023          	sw	a5,0(a4)
800003c4:	00008067          	ret
800003c8:	00300713          	li	a4,3
800003cc:	02e79263          	bne	a5,a4,800003f0 <_ZN16AudioSynthesizer7setWaveEb+0x5c>
800003d0:	06c52703          	lw	a4,108(a0)
800003d4:	0015f593          	andi	a1,a1,1
800003d8:	00159593          	slli	a1,a1,0x1
800003dc:	00072783          	lw	a5,0(a4)
800003e0:	ffd7f793          	andi	a5,a5,-3
800003e4:	00b7e7b3          	or	a5,a5,a1
800003e8:	00f72023          	sw	a5,0(a4)
800003ec:	00008067          	ret
800003f0:	00008067          	ret
800003f4:	00c52703          	lw	a4,12(a0)
800003f8:	0015f593          	andi	a1,a1,1
800003fc:	00159593          	slli	a1,a1,0x1
80000400:	00072783          	lw	a5,0(a4)
80000404:	ffd7f793          	andi	a5,a5,-3
80000408:	00b7e7b3          	or	a5,a5,a1
8000040c:	00f72023          	sw	a5,0(a4)
80000410:	00008067          	ret
80000414:	04c52703          	lw	a4,76(a0)
80000418:	0015f593          	andi	a1,a1,1
8000041c:	00159593          	slli	a1,a1,0x1
80000420:	00072783          	lw	a5,0(a4)
80000424:	ffd7f793          	andi	a5,a5,-3
80000428:	00b7e7b3          	or	a5,a5,a1
8000042c:	00f72023          	sw	a5,0(a4)
80000430:	00008067          	ret

80000434 <_ZN16AudioSynthesizer11restartWaveEv>:
80000434:	00052783          	lw	a5,0(a0)
80000438:	00200713          	li	a4,2
8000043c:	04e78a63          	beq	a5,a4,80000490 <_ZN16AudioSynthesizer11restartWaveEv+0x5c>
80000440:	00f76e63          	bltu	a4,a5,8000045c <_ZN16AudioSynthesizer11restartWaveEv+0x28>
80000444:	02078c63          	beqz	a5,8000047c <_ZN16AudioSynthesizer11restartWaveEv+0x48>
80000448:	02c52703          	lw	a4,44(a0)
8000044c:	00072783          	lw	a5,0(a4)
80000450:	0017e793          	ori	a5,a5,1
80000454:	00f72023          	sw	a5,0(a4)
80000458:	00008067          	ret
8000045c:	00300713          	li	a4,3
80000460:	00e79c63          	bne	a5,a4,80000478 <_ZN16AudioSynthesizer11restartWaveEv+0x44>
80000464:	06c52703          	lw	a4,108(a0)
80000468:	00072783          	lw	a5,0(a4)
8000046c:	0017e793          	ori	a5,a5,1
80000470:	00f72023          	sw	a5,0(a4)
80000474:	00008067          	ret
80000478:	00008067          	ret
8000047c:	00c52703          	lw	a4,12(a0)
80000480:	00072783          	lw	a5,0(a4)
80000484:	0017e793          	ori	a5,a5,1
80000488:	00f72023          	sw	a5,0(a4)
8000048c:	00008067          	ret
80000490:	04c52703          	lw	a4,76(a0)
80000494:	00072783          	lw	a5,0(a4)
80000498:	0017e793          	ori	a5,a5,1
8000049c:	00f72023          	sw	a5,0(a4)
800004a0:	00008067          	ret

800004a4 <_ZN16AudioSynthesizer12setFrequencyEm>:
800004a4:	ff010113          	addi	sp,sp,-16
800004a8:	00112623          	sw	ra,12(sp)
800004ac:	00812423          	sw	s0,8(sp)
800004b0:	00050413          	mv	s0,a0
800004b4:	00058793          	mv	a5,a1
800004b8:	00052703          	lw	a4,0(a0)
800004bc:	00200693          	li	a3,2
800004c0:	0ad70e63          	beq	a4,a3,8000057c <_ZN16AudioSynthesizer12setFrequencyEm+0xd8>
800004c4:	04e6e263          	bltu	a3,a4,80000508 <_ZN16AudioSynthesizer12setFrequencyEm+0x64>
800004c8:	00912223          	sw	s1,4(sp)
800004cc:	06070a63          	beqz	a4,80000540 <_ZN16AudioSynthesizer12setFrequencyEm+0x9c>
800004d0:	03052483          	lw	s1,48(a0)
800004d4:	ffc00513          	li	a0,-4
800004d8:	00300713          	li	a4,3
800004dc:	02e58733          	mul	a4,a1,a4
800004e0:	02a5b5b3          	mulhu	a1,a1,a0
800004e4:	05f5e637          	lui	a2,0x5f5e
800004e8:	10060613          	addi	a2,a2,256 # 5f5e100 <copy_loop+0x5f5e0dc>
800004ec:	00000693          	li	a3,0
800004f0:	02a78533          	mul	a0,a5,a0
800004f4:	00b705b3          	add	a1,a4,a1
800004f8:	228010ef          	jal	80001720 <__udivdi3>
800004fc:	00a4a023          	sw	a0,0(s1)
80000500:	00412483          	lw	s1,4(sp)
80000504:	0640006f          	j	80000568 <_ZN16AudioSynthesizer12setFrequencyEm+0xc4>
80000508:	00300693          	li	a3,3
8000050c:	04d71e63          	bne	a4,a3,80000568 <_ZN16AudioSynthesizer12setFrequencyEm+0xc4>
80000510:	00912223          	sw	s1,4(sp)
80000514:	07052483          	lw	s1,112(a0)
80000518:	fff00593          	li	a1,-1
8000051c:	02b7b5b3          	mulhu	a1,a5,a1
80000520:	05f5e637          	lui	a2,0x5f5e
80000524:	10060613          	addi	a2,a2,256 # 5f5e100 <copy_loop+0x5f5e0dc>
80000528:	00000693          	li	a3,0
8000052c:	40f00533          	neg	a0,a5
80000530:	1f0010ef          	jal	80001720 <__udivdi3>
80000534:	00a4a023          	sw	a0,0(s1)
80000538:	00412483          	lw	s1,4(sp)
8000053c:	02c0006f          	j	80000568 <_ZN16AudioSynthesizer12setFrequencyEm+0xc4>
80000540:	01052483          	lw	s1,16(a0)
80000544:	fff00593          	li	a1,-1
80000548:	02b7b5b3          	mulhu	a1,a5,a1
8000054c:	05f5e637          	lui	a2,0x5f5e
80000550:	10060613          	addi	a2,a2,256 # 5f5e100 <copy_loop+0x5f5e0dc>
80000554:	00000693          	li	a3,0
80000558:	40f00533          	neg	a0,a5
8000055c:	1c4010ef          	jal	80001720 <__udivdi3>
80000560:	00a4a023          	sw	a0,0(s1)
80000564:	00412483          	lw	s1,4(sp)
80000568:	00040513          	mv	a0,s0
8000056c:	00c12083          	lw	ra,12(sp)
80000570:	00812403          	lw	s0,8(sp)
80000574:	01010113          	addi	sp,sp,16
80000578:	00008067          	ret
8000057c:	00912223          	sw	s1,4(sp)
80000580:	05052483          	lw	s1,80(a0)
80000584:	ffe00513          	li	a0,-2
80000588:	02a5b5b3          	mulhu	a1,a1,a0
8000058c:	05f5e637          	lui	a2,0x5f5e
80000590:	10060613          	addi	a2,a2,256 # 5f5e100 <copy_loop+0x5f5e0dc>
80000594:	00000693          	li	a3,0
80000598:	02a78533          	mul	a0,a5,a0
8000059c:	00b785b3          	add	a1,a5,a1
800005a0:	180010ef          	jal	80001720 <__udivdi3>
800005a4:	00a4a023          	sw	a0,0(s1)
800005a8:	00412483          	lw	s1,4(sp)
800005ac:	fbdff06f          	j	80000568 <_ZN16AudioSynthesizer12setFrequencyEm+0xc4>

800005b0 <_ZN16AudioSynthesizer7setGainEt>:
800005b0:	00052783          	lw	a5,0(a0)
800005b4:	00200713          	li	a4,2
800005b8:	08e78263          	beq	a5,a4,8000063c <_ZN16AudioSynthesizer7setGainEt+0x8c>
800005bc:	02f76663          	bltu	a4,a5,800005e8 <_ZN16AudioSynthesizer7setGainEt+0x38>
800005c0:	04078c63          	beqz	a5,80000618 <_ZN16AudioSynthesizer7setGainEt+0x68>
800005c4:	02c52683          	lw	a3,44(a0)
800005c8:	00559593          	slli	a1,a1,0x5
800005cc:	0006a783          	lw	a5,0(a3)
800005d0:	ffe00737          	lui	a4,0xffe00
800005d4:	01f70713          	addi	a4,a4,31 # ffe0001f <_ZN9Serial_IO6statusE+0x7fdfdfe3>
800005d8:	00e7f7b3          	and	a5,a5,a4
800005dc:	00b7e7b3          	or	a5,a5,a1
800005e0:	00f6a023          	sw	a5,0(a3)
800005e4:	00008067          	ret
800005e8:	00300713          	li	a4,3
800005ec:	02e79463          	bne	a5,a4,80000614 <_ZN16AudioSynthesizer7setGainEt+0x64>
800005f0:	06c52683          	lw	a3,108(a0)
800005f4:	00559593          	slli	a1,a1,0x5
800005f8:	0006a783          	lw	a5,0(a3)
800005fc:	ffe00737          	lui	a4,0xffe00
80000600:	01f70713          	addi	a4,a4,31 # ffe0001f <_ZN9Serial_IO6statusE+0x7fdfdfe3>
80000604:	00e7f7b3          	and	a5,a5,a4
80000608:	00b7e7b3          	or	a5,a5,a1
8000060c:	00f6a023          	sw	a5,0(a3)
80000610:	00008067          	ret
80000614:	00008067          	ret
80000618:	00c52683          	lw	a3,12(a0)
8000061c:	00559593          	slli	a1,a1,0x5
80000620:	0006a783          	lw	a5,0(a3)
80000624:	ffe00737          	lui	a4,0xffe00
80000628:	01f70713          	addi	a4,a4,31 # ffe0001f <_ZN9Serial_IO6statusE+0x7fdfdfe3>
8000062c:	00e7f7b3          	and	a5,a5,a4
80000630:	00b7e7b3          	or	a5,a5,a1
80000634:	00f6a023          	sw	a5,0(a3)
80000638:	00008067          	ret
8000063c:	04c52683          	lw	a3,76(a0)
80000640:	00559593          	slli	a1,a1,0x5
80000644:	0006a783          	lw	a5,0(a3)
80000648:	ffe00737          	lui	a4,0xffe00
8000064c:	01f70713          	addi	a4,a4,31 # ffe0001f <_ZN9Serial_IO6statusE+0x7fdfdfe3>
80000650:	00e7f7b3          	and	a5,a5,a4
80000654:	00b7e7b3          	or	a5,a5,a1
80000658:	00f6a023          	sw	a5,0(a3)
8000065c:	00008067          	ret

80000660 <_ZN16AudioSynthesizer13setCustomWaveEPtmmPNS_7error_eE>:
80000660:	00100793          	li	a5,1
80000664:	02d7ee63          	bltu	a5,a3,800006a0 <_ZN16AudioSynthesizer13setCustomWaveEPtmmPNS_7error_eE+0x40>
80000668:	40000793          	li	a5,1024
8000066c:	04c7e263          	bltu	a5,a2,800006b0 <_ZN16AudioSynthesizer13setCustomWaveEPtmmPNS_7error_eE+0x50>
80000670:	00058793          	mv	a5,a1
80000674:	00c69693          	slli	a3,a3,0xc
80000678:	20b625b3          	sh1add	a1,a2,a1
8000067c:	02060863          	beqz	a2,800006ac <_ZN16AudioSynthesizer13setCustomWaveEPtmmPNS_7error_eE+0x4c>
80000680:	00852703          	lw	a4,8(a0)
80000684:	00d70733          	add	a4,a4,a3
80000688:	0007d603          	lhu	a2,0(a5)
8000068c:	00c72023          	sw	a2,0(a4)
80000690:	00278793          	addi	a5,a5,2
80000694:	00468693          	addi	a3,a3,4
80000698:	feb794e3          	bne	a5,a1,80000680 <_ZN16AudioSynthesizer13setCustomWaveEPtmmPNS_7error_eE+0x20>
8000069c:	00008067          	ret
800006a0:	00300793          	li	a5,3
800006a4:	00f72023          	sw	a5,0(a4)
800006a8:	00008067          	ret
800006ac:	00008067          	ret
800006b0:	00300793          	li	a5,3
800006b4:	00f72023          	sw	a5,0(a4)
800006b8:	00008067          	ret

800006bc <_ZN16AudioSynthesizer14getActiveTableEv>:
800006bc:	00c52783          	lw	a5,12(a0)
800006c0:	0007a503          	lw	a0,0(a5)
800006c4:	49555513          	bexti	a0,a0,0x15
800006c8:	00008067          	ret

800006cc <_ZN12AudioCaptureC1Ev>:
800006cc:	000107b7          	lui	a5,0x10
800006d0:	00f52023          	sw	a5,0(a0)
800006d4:	00f52223          	sw	a5,4(a0)
800006d8:	00478793          	addi	a5,a5,4 # 10004 <copy_loop+0xffe0>
800006dc:	00f52423          	sw	a5,8(a0)
800006e0:	00010737          	lui	a4,0x10
800006e4:	00870713          	addi	a4,a4,8 # 10008 <copy_loop+0xffe4>
800006e8:	00e52623          	sw	a4,12(a0)
800006ec:	00010737          	lui	a4,0x10
800006f0:	00c70713          	addi	a4,a4,12 # 1000c <copy_loop+0xffe8>
800006f4:	00e52823          	sw	a4,16(a0)
800006f8:	00010737          	lui	a4,0x10
800006fc:	01070713          	addi	a4,a4,16 # 10010 <copy_loop+0xffec>
80000700:	00e52a23          	sw	a4,20(a0)
80000704:	00010737          	lui	a4,0x10
80000708:	01470713          	addi	a4,a4,20 # 10014 <copy_loop+0xfff0>
8000070c:	00e52c23          	sw	a4,24(a0)
80000710:	00010737          	lui	a4,0x10
80000714:	01870713          	addi	a4,a4,24 # 10018 <copy_loop+0xfff4>
80000718:	00e52e23          	sw	a4,28(a0)
8000071c:	00010737          	lui	a4,0x10
80000720:	01c70713          	addi	a4,a4,28 # 1001c <copy_loop+0xfff8>
80000724:	02e52023          	sw	a4,32(a0)
80000728:	0007a703          	lw	a4,0(a5)
8000072c:	ffffe6b7          	lui	a3,0xffffe
80000730:	07f68693          	addi	a3,a3,127 # ffffe07f <_ZN9Serial_IO6statusE+0x7fffc043>
80000734:	00d77733          	and	a4,a4,a3
80000738:	00e7a023          	sw	a4,0(a5)
8000073c:	00008067          	ret

80000740 <_ZN12AudioCaptureD1Ev>:
80000740:	00008067          	ret

80000744 <_ZN12AudioCapture4initENS_9channel_eEbmmPNS_7error_eE>:
80000744:	00852883          	lw	a7,8(a0)
80000748:	0015f593          	andi	a1,a1,1
8000074c:	00d59813          	slli	a6,a1,0xd
80000750:	0008a583          	lw	a1,0(a7)
80000754:	48d59593          	bclri	a1,a1,0xd
80000758:	0105e5b3          	or	a1,a1,a6
8000075c:	00b8a023          	sw	a1,0(a7)
80000760:	00852803          	lw	a6,8(a0)
80000764:	00167613          	andi	a2,a2,1
80000768:	00e61593          	slli	a1,a2,0xe
8000076c:	00082603          	lw	a2,0(a6)
80000770:	48e61613          	bclri	a2,a2,0xe
80000774:	00b66633          	or	a2,a2,a1
80000778:	00c82023          	sw	a2,0(a6)
8000077c:	fff0c637          	lui	a2,0xfff0c
80000780:	dc060613          	addi	a2,a2,-576 # fff0bdc0 <_ZN9Serial_IO6statusE+0x7ff09d84>
80000784:	00c68633          	add	a2,a3,a2
80000788:	001e85b7          	lui	a1,0x1e8
8000078c:	48058593          	addi	a1,a1,1152 # 1e8480 <copy_loop+0x1e845c>
80000790:	00c5f863          	bgeu	a1,a2,800007a0 <_ZN12AudioCapture4initENS_9channel_eEbmmPNS_7error_eE+0x5c>
80000794:	00100713          	li	a4,1
80000798:	00e7a023          	sw	a4,0(a5)
8000079c:	00008067          	ret
800007a0:	00852803          	lw	a6,8(a0)
800007a4:	00169593          	slli	a1,a3,0x1
800007a8:	05f5e637          	lui	a2,0x5f5e
800007ac:	10060613          	addi	a2,a2,256 # 5f5e100 <copy_loop+0x5f5e0dc>
800007b0:	02b65633          	divu	a2,a2,a1
800007b4:	07f67613          	andi	a2,a2,127
800007b8:	00082583          	lw	a1,0(a6)
800007bc:	f805f593          	andi	a1,a1,-128
800007c0:	00c5e633          	or	a2,a1,a2
800007c4:	00c82023          	sw	a2,0(a6)
800007c8:	02e6d733          	divu	a4,a3,a4
800007cc:	0ff00693          	li	a3,255
800007d0:	00e6f863          	bgeu	a3,a4,800007e0 <_ZN12AudioCapture4initENS_9channel_eEbmmPNS_7error_eE+0x9c>
800007d4:	00400713          	li	a4,4
800007d8:	00e7a023          	sw	a4,0(a5)
800007dc:	00008067          	ret
800007e0:	0ff77693          	zext.b	a3,a4
800007e4:	01052783          	lw	a5,16(a0)
800007e8:	00d78023          	sb	a3,0(a5)
800007ec:	00852683          	lw	a3,8(a0)
800007f0:	0006a783          	lw	a5,0(a3)
800007f4:	29079793          	bseti	a5,a5,0x10
800007f8:	00f6a023          	sw	a5,0(a3)
800007fc:	02e706b3          	mul	a3,a4,a4
80000800:	02d686b3          	mul	a3,a3,a3
80000804:	01452783          	lw	a5,20(a0)
80000808:	00d7a023          	sw	a3,0(a5)
8000080c:	00008067          	ret

80000810 <_ZN12AudioCapture14startRecordingEv>:
80000810:	00852703          	lw	a4,8(a0)
80000814:	00072783          	lw	a5,0(a4)
80000818:	28f79793          	bseti	a5,a5,0xf
8000081c:	00f72023          	sw	a5,0(a4)
80000820:	00008067          	ret

80000824 <_ZN12AudioCapture10readSampleEv>:
80000824:	01852783          	lw	a5,24(a0)
80000828:	0007d503          	lhu	a0,0(a5)
8000082c:	00008067          	ret

80000830 <_ZN5TimerC1Em>:
80000830:	000017b7          	lui	a5,0x1
80000834:	c0078793          	addi	a5,a5,-1024 # c00 <copy_loop+0xbdc>
80000838:	00f585b3          	add	a1,a1,a5
8000083c:	00359593          	slli	a1,a1,0x3
80000840:	00b52023          	sw	a1,0(a0)
80000844:	00858793          	addi	a5,a1,8
80000848:	00f52223          	sw	a5,4(a0)
8000084c:	00b52423          	sw	a1,8(a0)
80000850:	01058793          	addi	a5,a1,16
80000854:	00f52623          	sw	a5,12(a0)
80000858:	00c52703          	lw	a4,12(a0)
8000085c:	00072783          	lw	a5,0(a4)
80000860:	ffe7f793          	andi	a5,a5,-2
80000864:	00f72023          	sw	a5,0(a4)
80000868:	00c52703          	lw	a4,12(a0)
8000086c:	00072783          	lw	a5,0(a4)
80000870:	ffb7f793          	andi	a5,a5,-5
80000874:	00f72023          	sw	a5,0(a4)
80000878:	00000793          	li	a5,0
8000087c:	00000813          	li	a6,0
80000880:	00f5a423          	sw	a5,8(a1)
80000884:	0105a623          	sw	a6,12(a1)
80000888:	00852783          	lw	a5,8(a0)
8000088c:	fff00613          	li	a2,-1
80000890:	fff00693          	li	a3,-1
80000894:	00c7a023          	sw	a2,0(a5)
80000898:	00d7a223          	sw	a3,4(a5)
8000089c:	00c52703          	lw	a4,12(a0)
800008a0:	00072783          	lw	a5,0(a4)
800008a4:	ffd7f793          	andi	a5,a5,-3
800008a8:	00f72023          	sw	a5,0(a4)
800008ac:	00008067          	ret

800008b0 <_ZN5TimerD1Ev>:
800008b0:	00c52703          	lw	a4,12(a0)
800008b4:	00072783          	lw	a5,0(a4)
800008b8:	ffe7f793          	andi	a5,a5,-2
800008bc:	00f72023          	sw	a5,0(a4)
800008c0:	00c52703          	lw	a4,12(a0)
800008c4:	00072783          	lw	a5,0(a4)
800008c8:	ffb7f793          	andi	a5,a5,-5
800008cc:	00f72023          	sw	a5,0(a4)
800008d0:	00452783          	lw	a5,4(a0)
800008d4:	00000693          	li	a3,0
800008d8:	00000713          	li	a4,0
800008dc:	00d7a023          	sw	a3,0(a5)
800008e0:	00e7a223          	sw	a4,4(a5)
800008e4:	00852783          	lw	a5,8(a0)
800008e8:	fff00613          	li	a2,-1
800008ec:	fff00693          	li	a3,-1
800008f0:	00c7a023          	sw	a2,0(a5)
800008f4:	00d7a223          	sw	a3,4(a5)
800008f8:	00c52703          	lw	a4,12(a0)
800008fc:	00072783          	lw	a5,0(a4)
80000900:	ffd7f793          	andi	a5,a5,-3
80000904:	00f72023          	sw	a5,0(a4)
80000908:	00008067          	ret

8000090c <_ZN5Timer4initEyNS_11timerMode_eE>:
8000090c:	00060893          	mv	a7,a2
80000910:	00c52603          	lw	a2,12(a0)
80000914:	00062703          	lw	a4,0(a2)
80000918:	ffb77713          	andi	a4,a4,-5
8000091c:	00e62023          	sw	a4,0(a2)
80000920:	00852703          	lw	a4,8(a0)
80000924:	00b72023          	sw	a1,0(a4)
80000928:	01172223          	sw	a7,4(a4)
8000092c:	00c52603          	lw	a2,12(a0)
80000930:	0016f693          	andi	a3,a3,1
80000934:	00169693          	slli	a3,a3,0x1
80000938:	00062703          	lw	a4,0(a2)
8000093c:	ffd77713          	andi	a4,a4,-3
80000940:	00d76733          	or	a4,a4,a3
80000944:	00e62023          	sw	a4,0(a2)
80000948:	00452783          	lw	a5,4(a0)
8000094c:	00000693          	li	a3,0
80000950:	00000713          	li	a4,0
80000954:	00d7a023          	sw	a3,0(a5)
80000958:	00e7a223          	sw	a4,4(a5)
8000095c:	00008067          	ret

80000960 <_ZN5Timer7setTimeEy>:
80000960:	00452683          	lw	a3,4(a0)
80000964:	00b6a023          	sw	a1,0(a3)
80000968:	00c6a223          	sw	a2,4(a3)
8000096c:	00008067          	ret

80000970 <_ZN5Timer12setThresholdEy>:
80000970:	00852783          	lw	a5,8(a0)
80000974:	00b7a023          	sw	a1,0(a5)
80000978:	00c7a223          	sw	a2,4(a5)
8000097c:	00008067          	ret

80000980 <_ZN5Timer5startEv>:
80000980:	00c52683          	lw	a3,12(a0)
80000984:	0006a703          	lw	a4,0(a3)
80000988:	00176713          	ori	a4,a4,1
8000098c:	00e6a023          	sw	a4,0(a3)
80000990:	00c52703          	lw	a4,12(a0)
80000994:	00072783          	lw	a5,0(a4)
80000998:	ff77f793          	andi	a5,a5,-9
8000099c:	00f72023          	sw	a5,0(a4)
800009a0:	00008067          	ret

800009a4 <_ZN9Serial_IO7vprintfEPKcPv>:
800009a4:	f8010113          	addi	sp,sp,-128
800009a8:	06112e23          	sw	ra,124(sp)
800009ac:	06812c23          	sw	s0,120(sp)
800009b0:	00050413          	mv	s0,a0
800009b4:	00054503          	lbu	a0,0(a0)
800009b8:	2a0508e3          	beqz	a0,80001468 <_ZN9Serial_IO7vprintfEPKcPv+0xac4>
800009bc:	06912a23          	sw	s1,116(sp)
800009c0:	07212823          	sw	s2,112(sp)
800009c4:	07312623          	sw	s3,108(sp)
800009c8:	07412423          	sw	s4,104(sp)
800009cc:	07512223          	sw	s5,100(sp)
800009d0:	07612023          	sw	s6,96(sp)
800009d4:	05712e23          	sw	s7,92(sp)
800009d8:	05812c23          	sw	s8,88(sp)
800009dc:	00058b93          	mv	s7,a1
800009e0:	00000b13          	li	s6,0
800009e4:	02500913          	li	s2,37
800009e8:	02e00a13          	li	s4,46
800009ec:	01600993          	li	s3,22
800009f0:	80002ab7          	lui	s5,0x80002
800009f4:	2050006f          	j	800013f8 <_ZN9Serial_IO7vprintfEPKcPv+0xa54>
800009f8:	004b8c13          	addi	s8,s7,4
800009fc:	000bab03          	lw	s6,0(s7)
80000a00:	41fb5b93          	srai	s7,s6,0x1f
80000a04:	120b4463          	bltz	s6,80000b2c <_ZN9Serial_IO7vprintfEPKcPv+0x188>
80000a08:	00000593          	li	a1,0
80000a0c:	ccccd6b7          	lui	a3,0xccccd
80000a10:	ccd68693          	addi	a3,a3,-819 # cccccccd <_ZN9Serial_IO6statusE+0x4cccac91>
80000a14:	ccccd637          	lui	a2,0xccccd
80000a18:	ccc60613          	addi	a2,a2,-820 # cccccccc <_ZN9Serial_IO6statusE+0x4cccac90>
80000a1c:	00010513          	mv	a0,sp
80000a20:	017b07b3          	add	a5,s6,s7
80000a24:	0167b733          	sltu	a4,a5,s6
80000a28:	00e787b3          	add	a5,a5,a4
80000a2c:	02d7b733          	mulhu	a4,a5,a3
80000a30:	00275813          	srli	a6,a4,0x2
80000a34:	ffc77713          	andi	a4,a4,-4
80000a38:	01070733          	add	a4,a4,a6
80000a3c:	40e787b3          	sub	a5,a5,a4
80000a40:	40fb07b3          	sub	a5,s6,a5
80000a44:	02d787b3          	mul	a5,a5,a3
80000a48:	0017d793          	srli	a5,a5,0x1
80000a4c:	20f7c7b3          	sh2add	a5,a5,a5
80000a50:	00179793          	slli	a5,a5,0x1
80000a54:	40fb07b3          	sub	a5,s6,a5
80000a58:	03078793          	addi	a5,a5,48
80000a5c:	000b0313          	mv	t1,s6
80000a60:	000b8893          	mv	a7,s7
80000a64:	017b0733          	add	a4,s6,s7
80000a68:	01673833          	sltu	a6,a4,s6
80000a6c:	01070733          	add	a4,a4,a6
80000a70:	02d73833          	mulhu	a6,a4,a3
80000a74:	00285e13          	srli	t3,a6,0x2
80000a78:	ffc87813          	andi	a6,a6,-4
80000a7c:	01c80833          	add	a6,a6,t3
80000a80:	41070733          	sub	a4,a4,a6
80000a84:	40eb0733          	sub	a4,s6,a4
80000a88:	00eb3833          	sltu	a6,s6,a4
80000a8c:	410b8833          	sub	a6,s7,a6
80000a90:	02d80833          	mul	a6,a6,a3
80000a94:	02c70e33          	mul	t3,a4,a2
80000a98:	01c80833          	add	a6,a6,t3
80000a9c:	02d70e33          	mul	t3,a4,a3
80000aa0:	02d73733          	mulhu	a4,a4,a3
80000aa4:	00e80733          	add	a4,a6,a4
80000aa8:	01f71b13          	slli	s6,a4,0x1f
80000aac:	001e5813          	srli	a6,t3,0x1
80000ab0:	010b6b33          	or	s6,s6,a6
80000ab4:	00175b93          	srli	s7,a4,0x1
80000ab8:	00058813          	mv	a6,a1
80000abc:	00158593          	addi	a1,a1,1
80000ac0:	00b50733          	add	a4,a0,a1
80000ac4:	fef70fa3          	sb	a5,-1(a4)
80000ac8:	f4089ce3          	bnez	a7,80000a20 <_ZN9Serial_IO7vprintfEPKcPv+0x7c>
80000acc:	00089663          	bnez	a7,80000ad8 <_ZN9Serial_IO7vprintfEPKcPv+0x134>
80000ad0:	00900793          	li	a5,9
80000ad4:	f467e6e3          	bltu	a5,t1,80000a20 <_ZN9Serial_IO7vprintfEPKcPv+0x7c>
80000ad8:	0015d893          	srli	a7,a1,0x1
80000adc:	00100793          	li	a5,1
80000ae0:	02b7f863          	bgeu	a5,a1,80000b10 <_ZN9Serial_IO7vprintfEPKcPv+0x16c>
80000ae4:	010107b3          	add	a5,sp,a6
80000ae8:	00010713          	mv	a4,sp
80000aec:	00078513          	mv	a0,a5
80000af0:	0007c683          	lbu	a3,0(a5)
80000af4:	00074603          	lbu	a2,0(a4)
80000af8:	00c78023          	sb	a2,0(a5)
80000afc:	00d70023          	sb	a3,0(a4)
80000b00:	fff78793          	addi	a5,a5,-1
80000b04:	00170713          	addi	a4,a4,1
80000b08:	40f506b3          	sub	a3,a0,a5
80000b0c:	ff16e2e3          	bltu	a3,a7,80000af0 <_ZN9Serial_IO7vprintfEPKcPv+0x14c>
80000b10:	00010513          	mv	a0,sp
80000b14:	df8ff0ef          	jal	8000010c <_ZN9Serial_IO5writeEPKcm>
80000b18:	00000513          	li	a0,0
80000b1c:	dccff0ef          	jal	800000e8 <_ZN9Serial_IO5writeEc>
80000b20:	000c0b93          	mv	s7,s8
80000b24:	00048b13          	mv	s6,s1
80000b28:	0c10006f          	j	800013e8 <_ZN9Serial_IO7vprintfEPKcPv+0xa44>
80000b2c:	016037b3          	snez	a5,s6
80000b30:	41700bb3          	neg	s7,s7
80000b34:	40fb8bb3          	sub	s7,s7,a5
80000b38:	41600b33          	neg	s6,s6
80000b3c:	02d00513          	li	a0,45
80000b40:	da8ff0ef          	jal	800000e8 <_ZN9Serial_IO5writeEc>
80000b44:	ec5ff06f          	j	80000a08 <_ZN9Serial_IO7vprintfEPKcPv+0x64>
80000b48:	007b8793          	addi	a5,s7,7
80000b4c:	ff87f793          	andi	a5,a5,-8
80000b50:	00878b93          	addi	s7,a5,8
80000b54:	0007a703          	lw	a4,0(a5)
80000b58:	0047a783          	lw	a5,4(a5)
80000b5c:	00070b13          	mv	s6,a4
80000b60:	00078c13          	mv	s8,a5
80000b64:	1207c263          	bltz	a5,80000c88 <_ZN9Serial_IO7vprintfEPKcPv+0x2e4>
80000b68:	00000593          	li	a1,0
80000b6c:	ccccd6b7          	lui	a3,0xccccd
80000b70:	ccd68693          	addi	a3,a3,-819 # cccccccd <_ZN9Serial_IO6statusE+0x4cccac91>
80000b74:	ccccd637          	lui	a2,0xccccd
80000b78:	ccc60613          	addi	a2,a2,-820 # cccccccc <_ZN9Serial_IO6statusE+0x4cccac90>
80000b7c:	00010513          	mv	a0,sp
80000b80:	018b07b3          	add	a5,s6,s8
80000b84:	0167b733          	sltu	a4,a5,s6
80000b88:	00e787b3          	add	a5,a5,a4
80000b8c:	02d7b733          	mulhu	a4,a5,a3
80000b90:	00275813          	srli	a6,a4,0x2
80000b94:	ffc77713          	andi	a4,a4,-4
80000b98:	01070733          	add	a4,a4,a6
80000b9c:	40e787b3          	sub	a5,a5,a4
80000ba0:	40fb07b3          	sub	a5,s6,a5
80000ba4:	02d787b3          	mul	a5,a5,a3
80000ba8:	0017d793          	srli	a5,a5,0x1
80000bac:	20f7c7b3          	sh2add	a5,a5,a5
80000bb0:	00179793          	slli	a5,a5,0x1
80000bb4:	40fb07b3          	sub	a5,s6,a5
80000bb8:	03078793          	addi	a5,a5,48
80000bbc:	000b0313          	mv	t1,s6
80000bc0:	000c0893          	mv	a7,s8
80000bc4:	018b0733          	add	a4,s6,s8
80000bc8:	01673833          	sltu	a6,a4,s6
80000bcc:	01070733          	add	a4,a4,a6
80000bd0:	02d73833          	mulhu	a6,a4,a3
80000bd4:	00285e13          	srli	t3,a6,0x2
80000bd8:	ffc87813          	andi	a6,a6,-4
80000bdc:	01c80833          	add	a6,a6,t3
80000be0:	41070733          	sub	a4,a4,a6
80000be4:	40eb0733          	sub	a4,s6,a4
80000be8:	00eb3833          	sltu	a6,s6,a4
80000bec:	410c0833          	sub	a6,s8,a6
80000bf0:	02d80833          	mul	a6,a6,a3
80000bf4:	02c70e33          	mul	t3,a4,a2
80000bf8:	01c80833          	add	a6,a6,t3
80000bfc:	02d70e33          	mul	t3,a4,a3
80000c00:	02d73733          	mulhu	a4,a4,a3
80000c04:	00e80733          	add	a4,a6,a4
80000c08:	01f71b13          	slli	s6,a4,0x1f
80000c0c:	001e5813          	srli	a6,t3,0x1
80000c10:	010b6b33          	or	s6,s6,a6
80000c14:	00175c13          	srli	s8,a4,0x1
80000c18:	00058813          	mv	a6,a1
80000c1c:	00158593          	addi	a1,a1,1
80000c20:	00b50733          	add	a4,a0,a1
80000c24:	fef70fa3          	sb	a5,-1(a4)
80000c28:	f4089ce3          	bnez	a7,80000b80 <_ZN9Serial_IO7vprintfEPKcPv+0x1dc>
80000c2c:	00089663          	bnez	a7,80000c38 <_ZN9Serial_IO7vprintfEPKcPv+0x294>
80000c30:	00900793          	li	a5,9
80000c34:	f467e6e3          	bltu	a5,t1,80000b80 <_ZN9Serial_IO7vprintfEPKcPv+0x1dc>
80000c38:	0015d893          	srli	a7,a1,0x1
80000c3c:	00100793          	li	a5,1
80000c40:	02b7f863          	bgeu	a5,a1,80000c70 <_ZN9Serial_IO7vprintfEPKcPv+0x2cc>
80000c44:	010107b3          	add	a5,sp,a6
80000c48:	00010713          	mv	a4,sp
80000c4c:	00078513          	mv	a0,a5
80000c50:	0007c683          	lbu	a3,0(a5)
80000c54:	00074603          	lbu	a2,0(a4)
80000c58:	00c78023          	sb	a2,0(a5)
80000c5c:	00d70023          	sb	a3,0(a4)
80000c60:	fff78793          	addi	a5,a5,-1
80000c64:	00170713          	addi	a4,a4,1
80000c68:	40f506b3          	sub	a3,a0,a5
80000c6c:	ff16e2e3          	bltu	a3,a7,80000c50 <_ZN9Serial_IO7vprintfEPKcPv+0x2ac>
80000c70:	00010513          	mv	a0,sp
80000c74:	c98ff0ef          	jal	8000010c <_ZN9Serial_IO5writeEPKcm>
80000c78:	00000513          	li	a0,0
80000c7c:	c6cff0ef          	jal	800000e8 <_ZN9Serial_IO5writeEc>
80000c80:	00048b13          	mv	s6,s1
80000c84:	7640006f          	j	800013e8 <_ZN9Serial_IO7vprintfEPKcPv+0xa44>
80000c88:	00e03c33          	snez	s8,a4
80000c8c:	40f007b3          	neg	a5,a5
80000c90:	40e00b33          	neg	s6,a4
80000c94:	41878c33          	sub	s8,a5,s8
80000c98:	02d00513          	li	a0,45
80000c9c:	c4cff0ef          	jal	800000e8 <_ZN9Serial_IO5writeEc>
80000ca0:	ec9ff06f          	j	80000b68 <_ZN9Serial_IO7vprintfEPKcPv+0x1c4>
80000ca4:	004b8b13          	addi	s6,s7,4
80000ca8:	000ba683          	lw	a3,0(s7)
80000cac:	00000893          	li	a7,0
80000cb0:	00000593          	li	a1,0
80000cb4:	ccccd637          	lui	a2,0xccccd
80000cb8:	ccd60613          	addi	a2,a2,-819 # cccccccd <_ZN9Serial_IO6statusE+0x4cccac91>
80000cbc:	ccccd537          	lui	a0,0xccccd
80000cc0:	ccc50513          	addi	a0,a0,-820 # cccccccc <_ZN9Serial_IO6statusE+0x4cccac90>
80000cc4:	00010813          	mv	a6,sp
80000cc8:	011687b3          	add	a5,a3,a7
80000ccc:	00d7b733          	sltu	a4,a5,a3
80000cd0:	00e787b3          	add	a5,a5,a4
80000cd4:	02c7b733          	mulhu	a4,a5,a2
80000cd8:	00275313          	srli	t1,a4,0x2
80000cdc:	ffc77713          	andi	a4,a4,-4
80000ce0:	00670733          	add	a4,a4,t1
80000ce4:	40e787b3          	sub	a5,a5,a4
80000ce8:	40f687b3          	sub	a5,a3,a5
80000cec:	02c787b3          	mul	a5,a5,a2
80000cf0:	0017d793          	srli	a5,a5,0x1
80000cf4:	20f7c7b3          	sh2add	a5,a5,a5
80000cf8:	00179793          	slli	a5,a5,0x1
80000cfc:	40f687b3          	sub	a5,a3,a5
80000d00:	03078793          	addi	a5,a5,48
80000d04:	00068e93          	mv	t4,a3
80000d08:	00088e13          	mv	t3,a7
80000d0c:	01168733          	add	a4,a3,a7
80000d10:	00d73333          	sltu	t1,a4,a3
80000d14:	00670733          	add	a4,a4,t1
80000d18:	02c73333          	mulhu	t1,a4,a2
80000d1c:	00235f13          	srli	t5,t1,0x2
80000d20:	ffc37313          	andi	t1,t1,-4
80000d24:	01e30333          	add	t1,t1,t5
80000d28:	40670733          	sub	a4,a4,t1
80000d2c:	40e68733          	sub	a4,a3,a4
80000d30:	00e6b6b3          	sltu	a3,a3,a4
80000d34:	40d886b3          	sub	a3,a7,a3
80000d38:	02c686b3          	mul	a3,a3,a2
80000d3c:	02a708b3          	mul	a7,a4,a0
80000d40:	011686b3          	add	a3,a3,a7
80000d44:	02c708b3          	mul	a7,a4,a2
80000d48:	02c73733          	mulhu	a4,a4,a2
80000d4c:	00e68733          	add	a4,a3,a4
80000d50:	01f71693          	slli	a3,a4,0x1f
80000d54:	0018d893          	srli	a7,a7,0x1
80000d58:	0116e6b3          	or	a3,a3,a7
80000d5c:	00175893          	srli	a7,a4,0x1
80000d60:	00058313          	mv	t1,a1
80000d64:	00158593          	addi	a1,a1,1
80000d68:	00b80733          	add	a4,a6,a1
80000d6c:	fef70fa3          	sb	a5,-1(a4)
80000d70:	f40e1ce3          	bnez	t3,80000cc8 <_ZN9Serial_IO7vprintfEPKcPv+0x324>
80000d74:	000e1663          	bnez	t3,80000d80 <_ZN9Serial_IO7vprintfEPKcPv+0x3dc>
80000d78:	00900793          	li	a5,9
80000d7c:	f5d7e6e3          	bltu	a5,t4,80000cc8 <_ZN9Serial_IO7vprintfEPKcPv+0x324>
80000d80:	0015d813          	srli	a6,a1,0x1
80000d84:	00100793          	li	a5,1
80000d88:	02b7f863          	bgeu	a5,a1,80000db8 <_ZN9Serial_IO7vprintfEPKcPv+0x414>
80000d8c:	006107b3          	add	a5,sp,t1
80000d90:	00010713          	mv	a4,sp
80000d94:	00078513          	mv	a0,a5
80000d98:	0007c683          	lbu	a3,0(a5)
80000d9c:	00074603          	lbu	a2,0(a4)
80000da0:	00c78023          	sb	a2,0(a5)
80000da4:	00d70023          	sb	a3,0(a4)
80000da8:	fff78793          	addi	a5,a5,-1
80000dac:	00170713          	addi	a4,a4,1
80000db0:	40f506b3          	sub	a3,a0,a5
80000db4:	ff06e2e3          	bltu	a3,a6,80000d98 <_ZN9Serial_IO7vprintfEPKcPv+0x3f4>
80000db8:	00010513          	mv	a0,sp
80000dbc:	b50ff0ef          	jal	8000010c <_ZN9Serial_IO5writeEPKcm>
80000dc0:	00000513          	li	a0,0
80000dc4:	b24ff0ef          	jal	800000e8 <_ZN9Serial_IO5writeEc>
80000dc8:	000b0b93          	mv	s7,s6
80000dcc:	00048b13          	mv	s6,s1
80000dd0:	6180006f          	j	800013e8 <_ZN9Serial_IO7vprintfEPKcPv+0xa44>
80000dd4:	002b0b13          	addi	s6,s6,2
80000dd8:	016407b3          	add	a5,s0,s6
80000ddc:	0007c783          	lbu	a5,0(a5)
80000de0:	06400713          	li	a4,100
80000de4:	10e78a63          	beq	a5,a4,80000ef8 <_ZN9Serial_IO7vprintfEPKcPv+0x554>
80000de8:	06800713          	li	a4,104
80000dec:	06e78063          	beq	a5,a4,80000e4c <_ZN9Serial_IO7vprintfEPKcPv+0x4a8>
80000df0:	06200713          	li	a4,98
80000df4:	1ae79e63          	bne	a5,a4,80000fb0 <_ZN9Serial_IO7vprintfEPKcPv+0x60c>
80000df8:	004b8493          	addi	s1,s7,4
80000dfc:	000bc783          	lbu	a5,0(s7)
80000e00:	0047d713          	srli	a4,a5,0x4
80000e04:	00f7f793          	andi	a5,a5,15
80000e08:	00900613          	li	a2,9
80000e0c:	03078693          	addi	a3,a5,48
80000e10:	00f67463          	bgeu	a2,a5,80000e18 <_ZN9Serial_IO7vprintfEPKcPv+0x474>
80000e14:	03778693          	addi	a3,a5,55
80000e18:	00900613          	li	a2,9
80000e1c:	03770793          	addi	a5,a4,55
80000e20:	00e66463          	bltu	a2,a4,80000e28 <_ZN9Serial_IO7vprintfEPKcPv+0x484>
80000e24:	03070793          	addi	a5,a4,48
80000e28:	00d100a3          	sb	a3,1(sp)
80000e2c:	00f10023          	sb	a5,0(sp)
80000e30:	00200593          	li	a1,2
80000e34:	00010513          	mv	a0,sp
80000e38:	ad4ff0ef          	jal	8000010c <_ZN9Serial_IO5writeEPKcm>
80000e3c:	00000513          	li	a0,0
80000e40:	aa8ff0ef          	jal	800000e8 <_ZN9Serial_IO5writeEc>
80000e44:	00048b93          	mv	s7,s1
80000e48:	5a00006f          	j	800013e8 <_ZN9Serial_IO7vprintfEPKcPv+0xa44>
80000e4c:	004b8493          	addi	s1,s7,4
80000e50:	000ba703          	lw	a4,0(s7)
80000e54:	01071793          	slli	a5,a4,0x10
80000e58:	0107d793          	srli	a5,a5,0x10
80000e5c:	0047d693          	srli	a3,a5,0x4
80000e60:	00f6f693          	andi	a3,a3,15
80000e64:	00f77713          	andi	a4,a4,15
80000e68:	00900593          	li	a1,9
80000e6c:	03070613          	addi	a2,a4,48
80000e70:	00e5f463          	bgeu	a1,a4,80000e78 <_ZN9Serial_IO7vprintfEPKcPv+0x4d4>
80000e74:	03770613          	addi	a2,a4,55
80000e78:	00c10023          	sb	a2,0(sp)
80000e7c:	00900613          	li	a2,9
80000e80:	03768713          	addi	a4,a3,55
80000e84:	00d66463          	bltu	a2,a3,80000e8c <_ZN9Serial_IO7vprintfEPKcPv+0x4e8>
80000e88:	03068713          	addi	a4,a3,48
80000e8c:	00e100a3          	sb	a4,1(sp)
80000e90:	00c7d713          	srli	a4,a5,0xc
80000e94:	0087d793          	srli	a5,a5,0x8
80000e98:	00f7f793          	andi	a5,a5,15
80000e9c:	00900613          	li	a2,9
80000ea0:	03078693          	addi	a3,a5,48
80000ea4:	00f67463          	bgeu	a2,a5,80000eac <_ZN9Serial_IO7vprintfEPKcPv+0x508>
80000ea8:	03778693          	addi	a3,a5,55
80000eac:	00d10123          	sb	a3,2(sp)
80000eb0:	00900693          	li	a3,9
80000eb4:	03770793          	addi	a5,a4,55
80000eb8:	00e6e463          	bltu	a3,a4,80000ec0 <_ZN9Serial_IO7vprintfEPKcPv+0x51c>
80000ebc:	03070793          	addi	a5,a4,48
80000ec0:	00014703          	lbu	a4,0(sp)
80000ec4:	00e101a3          	sb	a4,3(sp)
80000ec8:	00f10023          	sb	a5,0(sp)
80000ecc:	00214783          	lbu	a5,2(sp)
80000ed0:	00114703          	lbu	a4,1(sp)
80000ed4:	00e10123          	sb	a4,2(sp)
80000ed8:	00f100a3          	sb	a5,1(sp)
80000edc:	00400593          	li	a1,4
80000ee0:	00010513          	mv	a0,sp
80000ee4:	a28ff0ef          	jal	8000010c <_ZN9Serial_IO5writeEPKcm>
80000ee8:	00000513          	li	a0,0
80000eec:	9fcff0ef          	jal	800000e8 <_ZN9Serial_IO5writeEc>
80000ef0:	00048b93          	mv	s7,s1
80000ef4:	4f40006f          	j	800013e8 <_ZN9Serial_IO7vprintfEPKcPv+0xa44>
80000ef8:	007b8793          	addi	a5,s7,7
80000efc:	ff87f793          	andi	a5,a5,-8
80000f00:	00878b93          	addi	s7,a5,8
80000f04:	0007a703          	lw	a4,0(a5)
80000f08:	0047a503          	lw	a0,4(a5)
80000f0c:	00010593          	mv	a1,sp
80000f10:	01010893          	addi	a7,sp,16
80000f14:	00010693          	mv	a3,sp
80000f18:	00900813          	li	a6,9
80000f1c:	0300006f          	j	80000f4c <_ZN9Serial_IO7vprintfEPKcPv+0x5a8>
80000f20:	03060613          	addi	a2,a2,48
80000f24:	00c68023          	sb	a2,0(a3)
80000f28:	03c0006f          	j	80000f64 <_ZN9Serial_IO7vprintfEPKcPv+0x5c0>
80000f2c:	03778793          	addi	a5,a5,55
80000f30:	00f680a3          	sb	a5,1(a3)
80000f34:	01851793          	slli	a5,a0,0x18
80000f38:	00875713          	srli	a4,a4,0x8
80000f3c:	00e7e733          	or	a4,a5,a4
80000f40:	00855513          	srli	a0,a0,0x8
80000f44:	00268693          	addi	a3,a3,2
80000f48:	03168663          	beq	a3,a7,80000f74 <_ZN9Serial_IO7vprintfEPKcPv+0x5d0>
80000f4c:	00475793          	srli	a5,a4,0x4
80000f50:	00f7f793          	andi	a5,a5,15
80000f54:	00f77613          	andi	a2,a4,15
80000f58:	fcc874e3          	bgeu	a6,a2,80000f20 <_ZN9Serial_IO7vprintfEPKcPv+0x57c>
80000f5c:	03760613          	addi	a2,a2,55
80000f60:	00c68023          	sb	a2,0(a3)
80000f64:	fcf864e3          	bltu	a6,a5,80000f2c <_ZN9Serial_IO7vprintfEPKcPv+0x588>
80000f68:	03078793          	addi	a5,a5,48
80000f6c:	00f680a3          	sb	a5,1(a3)
80000f70:	fc5ff06f          	j	80000f34 <_ZN9Serial_IO7vprintfEPKcPv+0x590>
80000f74:	00858613          	addi	a2,a1,8
80000f78:	00058793          	mv	a5,a1
80000f7c:	00f5c703          	lbu	a4,15(a1)
80000f80:	0007c683          	lbu	a3,0(a5)
80000f84:	00d587a3          	sb	a3,15(a1)
80000f88:	00e78023          	sb	a4,0(a5)
80000f8c:	fff58593          	addi	a1,a1,-1
80000f90:	00178793          	addi	a5,a5,1
80000f94:	fec794e3          	bne	a5,a2,80000f7c <_ZN9Serial_IO7vprintfEPKcPv+0x5d8>
80000f98:	01000593          	li	a1,16
80000f9c:	00010513          	mv	a0,sp
80000fa0:	96cff0ef          	jal	8000010c <_ZN9Serial_IO5writeEPKcm>
80000fa4:	00000513          	li	a0,0
80000fa8:	940ff0ef          	jal	800000e8 <_ZN9Serial_IO5writeEc>
80000fac:	43c0006f          	j	800013e8 <_ZN9Serial_IO7vprintfEPKcPv+0xa44>
80000fb0:	004b8b13          	addi	s6,s7,4
80000fb4:	000ba583          	lw	a1,0(s7)
80000fb8:	00010693          	mv	a3,sp
80000fbc:	00810813          	addi	a6,sp,8
80000fc0:	00010713          	mv	a4,sp
80000fc4:	00900513          	li	a0,9
80000fc8:	0240006f          	j	80000fec <_ZN9Serial_IO7vprintfEPKcPv+0x648>
80000fcc:	03060613          	addi	a2,a2,48
80000fd0:	00c70023          	sb	a2,0(a4)
80000fd4:	0300006f          	j	80001004 <_ZN9Serial_IO7vprintfEPKcPv+0x660>
80000fd8:	03778793          	addi	a5,a5,55
80000fdc:	00f700a3          	sb	a5,1(a4)
80000fe0:	0085d593          	srli	a1,a1,0x8
80000fe4:	00270713          	addi	a4,a4,2
80000fe8:	02e80663          	beq	a6,a4,80001014 <_ZN9Serial_IO7vprintfEPKcPv+0x670>
80000fec:	0045d793          	srli	a5,a1,0x4
80000ff0:	00f7f793          	andi	a5,a5,15
80000ff4:	00f5f613          	andi	a2,a1,15
80000ff8:	fcc57ae3          	bgeu	a0,a2,80000fcc <_ZN9Serial_IO7vprintfEPKcPv+0x628>
80000ffc:	03760613          	addi	a2,a2,55
80001000:	00c70023          	sb	a2,0(a4)
80001004:	fcf56ae3          	bltu	a0,a5,80000fd8 <_ZN9Serial_IO7vprintfEPKcPv+0x634>
80001008:	03078793          	addi	a5,a5,48
8000100c:	00f700a3          	sb	a5,1(a4)
80001010:	fd1ff06f          	j	80000fe0 <_ZN9Serial_IO7vprintfEPKcPv+0x63c>
80001014:	00468593          	addi	a1,a3,4
80001018:	00068793          	mv	a5,a3
8000101c:	0076c703          	lbu	a4,7(a3)
80001020:	0007c603          	lbu	a2,0(a5)
80001024:	00c683a3          	sb	a2,7(a3)
80001028:	00e78023          	sb	a4,0(a5)
8000102c:	fff68693          	addi	a3,a3,-1
80001030:	00178793          	addi	a5,a5,1
80001034:	fef594e3          	bne	a1,a5,8000101c <_ZN9Serial_IO7vprintfEPKcPv+0x678>
80001038:	00800593          	li	a1,8
8000103c:	00010513          	mv	a0,sp
80001040:	8ccff0ef          	jal	8000010c <_ZN9Serial_IO5writeEPKcm>
80001044:	00000513          	li	a0,0
80001048:	8a0ff0ef          	jal	800000e8 <_ZN9Serial_IO5writeEc>
8000104c:	000b0b93          	mv	s7,s6
80001050:	00048b13          	mv	s6,s1
80001054:	3940006f          	j	800013e8 <_ZN9Serial_IO7vprintfEPKcPv+0xa44>
80001058:	002b0b13          	addi	s6,s6,2
8000105c:	016407b3          	add	a5,s0,s6
80001060:	0007c783          	lbu	a5,0(a5)
80001064:	06400713          	li	a4,100
80001068:	0ae78063          	beq	a5,a4,80001108 <_ZN9Serial_IO7vprintfEPKcPv+0x764>
8000106c:	06800713          	li	a4,104
80001070:	04e78863          	beq	a5,a4,800010c0 <_ZN9Serial_IO7vprintfEPKcPv+0x71c>
80001074:	06200713          	li	a4,98
80001078:	0ee79663          	bne	a5,a4,80001164 <_ZN9Serial_IO7vprintfEPKcPv+0x7c0>
8000107c:	004b8493          	addi	s1,s7,4
80001080:	000bc683          	lbu	a3,0(s7)
80001084:	00010793          	mv	a5,sp
80001088:	ff810613          	addi	a2,sp,-8
8000108c:	0016f713          	andi	a4,a3,1
80001090:	03070713          	addi	a4,a4,48
80001094:	00e783a3          	sb	a4,7(a5)
80001098:	0016d693          	srli	a3,a3,0x1
8000109c:	fff78793          	addi	a5,a5,-1
800010a0:	fec796e3          	bne	a5,a2,8000108c <_ZN9Serial_IO7vprintfEPKcPv+0x6e8>
800010a4:	00800593          	li	a1,8
800010a8:	00010513          	mv	a0,sp
800010ac:	860ff0ef          	jal	8000010c <_ZN9Serial_IO5writeEPKcm>
800010b0:	00000513          	li	a0,0
800010b4:	834ff0ef          	jal	800000e8 <_ZN9Serial_IO5writeEc>
800010b8:	00048b93          	mv	s7,s1
800010bc:	32c0006f          	j	800013e8 <_ZN9Serial_IO7vprintfEPKcPv+0xa44>
800010c0:	004b8493          	addi	s1,s7,4
800010c4:	000bd683          	lhu	a3,0(s7)
800010c8:	00f10793          	addi	a5,sp,15
800010cc:	00010613          	mv	a2,sp
800010d0:	0016f713          	andi	a4,a3,1
800010d4:	03070713          	addi	a4,a4,48
800010d8:	00e78023          	sb	a4,0(a5)
800010dc:	0016d693          	srli	a3,a3,0x1
800010e0:	00078713          	mv	a4,a5
800010e4:	fff78793          	addi	a5,a5,-1
800010e8:	fee614e3          	bne	a2,a4,800010d0 <_ZN9Serial_IO7vprintfEPKcPv+0x72c>
800010ec:	01000593          	li	a1,16
800010f0:	00010513          	mv	a0,sp
800010f4:	818ff0ef          	jal	8000010c <_ZN9Serial_IO5writeEPKcm>
800010f8:	00000513          	li	a0,0
800010fc:	fedfe0ef          	jal	800000e8 <_ZN9Serial_IO5writeEc>
80001100:	00048b93          	mv	s7,s1
80001104:	2e40006f          	j	800013e8 <_ZN9Serial_IO7vprintfEPKcPv+0xa44>
80001108:	007b8713          	addi	a4,s7,7
8000110c:	ff877713          	andi	a4,a4,-8
80001110:	00870b93          	addi	s7,a4,8
80001114:	00072783          	lw	a5,0(a4)
80001118:	00472603          	lw	a2,4(a4)
8000111c:	03f10713          	addi	a4,sp,63
80001120:	00010593          	mv	a1,sp
80001124:	0017f693          	andi	a3,a5,1
80001128:	03068693          	addi	a3,a3,48
8000112c:	00d70023          	sb	a3,0(a4)
80001130:	01f61693          	slli	a3,a2,0x1f
80001134:	0017d793          	srli	a5,a5,0x1
80001138:	00f6e7b3          	or	a5,a3,a5
8000113c:	00165613          	srli	a2,a2,0x1
80001140:	00070693          	mv	a3,a4
80001144:	fff70713          	addi	a4,a4,-1
80001148:	fcb69ee3          	bne	a3,a1,80001124 <_ZN9Serial_IO7vprintfEPKcPv+0x780>
8000114c:	04000593          	li	a1,64
80001150:	00010513          	mv	a0,sp
80001154:	fb9fe0ef          	jal	8000010c <_ZN9Serial_IO5writeEPKcm>
80001158:	00000513          	li	a0,0
8000115c:	f8dfe0ef          	jal	800000e8 <_ZN9Serial_IO5writeEc>
80001160:	2880006f          	j	800013e8 <_ZN9Serial_IO7vprintfEPKcPv+0xa44>
80001164:	004b8b13          	addi	s6,s7,4
80001168:	000ba683          	lw	a3,0(s7)
8000116c:	01f10793          	addi	a5,sp,31
80001170:	00010613          	mv	a2,sp
80001174:	0016f713          	andi	a4,a3,1
80001178:	03070713          	addi	a4,a4,48
8000117c:	00e78023          	sb	a4,0(a5)
80001180:	0016d693          	srli	a3,a3,0x1
80001184:	00078713          	mv	a4,a5
80001188:	fff78793          	addi	a5,a5,-1
8000118c:	fec714e3          	bne	a4,a2,80001174 <_ZN9Serial_IO7vprintfEPKcPv+0x7d0>
80001190:	02000593          	li	a1,32
80001194:	00010513          	mv	a0,sp
80001198:	f75fe0ef          	jal	8000010c <_ZN9Serial_IO5writeEPKcm>
8000119c:	00000513          	li	a0,0
800011a0:	f49fe0ef          	jal	800000e8 <_ZN9Serial_IO5writeEc>
800011a4:	000b0b93          	mv	s7,s6
800011a8:	00048b13          	mv	s6,s1
800011ac:	23c0006f          	j	800013e8 <_ZN9Serial_IO7vprintfEPKcPv+0xa44>
800011b0:	002b0b13          	addi	s6,s6,2
800011b4:	016407b3          	add	a5,s0,s6
800011b8:	0007c703          	lbu	a4,0(a5)
800011bc:	fd070793          	addi	a5,a4,-48
800011c0:	0ff7f793          	zext.b	a5,a5
800011c4:	00900693          	li	a3,9
800011c8:	04f6e263          	bltu	a3,a5,8000120c <_ZN9Serial_IO7vprintfEPKcPv+0x868>
800011cc:	00000493          	li	s1,0
800011d0:	2094c4b3          	sh2add	s1,s1,s1
800011d4:	20e4a4b3          	sh1add	s1,s1,a4
800011d8:	fd048493          	addi	s1,s1,-48
800011dc:	001b0b13          	addi	s6,s6,1
800011e0:	016407b3          	add	a5,s0,s6
800011e4:	0007c703          	lbu	a4,0(a5)
800011e8:	fd070793          	addi	a5,a4,-48
800011ec:	0ff7f793          	zext.b	a5,a5
800011f0:	fef6f0e3          	bgeu	a3,a5,800011d0 <_ZN9Serial_IO7vprintfEPKcPv+0x82c>
800011f4:	06600793          	li	a5,102
800011f8:	00f70e63          	beq	a4,a5,80001214 <_ZN9Serial_IO7vprintfEPKcPv+0x870>
800011fc:	80002537          	lui	a0,0x80002
80001200:	e3450513          	addi	a0,a0,-460 # 80001e34 <__truncdfsf2+0x2e8>
80001204:	f45fe0ef          	jal	80000148 <_ZN9Serial_IO5writeEPKc>
80001208:	1e00006f          	j	800013e8 <_ZN9Serial_IO7vprintfEPKcPv+0xa44>
8000120c:	00000493          	li	s1,0
80001210:	fe5ff06f          	j	800011f4 <_ZN9Serial_IO7vprintfEPKcPv+0x850>
80001214:	05912a23          	sw	s9,84(sp)
80001218:	05a12823          	sw	s10,80(sp)
8000121c:	05b12623          	sw	s11,76(sp)
80001220:	007b8793          	addi	a5,s7,7
80001224:	ff87f793          	andi	a5,a5,-8
80001228:	00878b93          	addi	s7,a5,8
8000122c:	0007a503          	lw	a0,0(a5)
80001230:	0047a583          	lw	a1,4(a5)
80001234:	119000ef          	jal	80001b4c <__truncdfsf2>
80001238:	00050c13          	mv	s8,a0
8000123c:	00000793          	li	a5,0
80001240:	a0f517d3          	flt.s	a5,a0,a5
80001244:	16079e63          	bnez	a5,800013c0 <_ZN9Serial_IO7vprintfEPKcPv+0xa1c>
80001248:	c00c1553          	fcvt.w.s	a0,s8,rtz
8000124c:	d00577d3          	fcvt.s.w	a5,a0
80001250:	08fc7c53          	fsub.s	s8,s8,a5
80001254:	00050693          	mv	a3,a0
80001258:	41f55513          	srai	a0,a0,0x1f
8000125c:	00000593          	li	a1,0
80001260:	ccccd637          	lui	a2,0xccccd
80001264:	ccd60613          	addi	a2,a2,-819 # cccccccd <_ZN9Serial_IO6statusE+0x4cccac91>
80001268:	ccccd837          	lui	a6,0xccccd
8000126c:	ccc80813          	addi	a6,a6,-820 # cccccccc <_ZN9Serial_IO6statusE+0x4cccac90>
80001270:	00010893          	mv	a7,sp
80001274:	00a687b3          	add	a5,a3,a0
80001278:	00d7b733          	sltu	a4,a5,a3
8000127c:	00e787b3          	add	a5,a5,a4
80001280:	02c7b733          	mulhu	a4,a5,a2
80001284:	00275313          	srli	t1,a4,0x2
80001288:	ffc77713          	andi	a4,a4,-4
8000128c:	00670733          	add	a4,a4,t1
80001290:	40e787b3          	sub	a5,a5,a4
80001294:	40f687b3          	sub	a5,a3,a5
80001298:	02c787b3          	mul	a5,a5,a2
8000129c:	0017d793          	srli	a5,a5,0x1
800012a0:	20f7c7b3          	sh2add	a5,a5,a5
800012a4:	00179793          	slli	a5,a5,0x1
800012a8:	40f687b3          	sub	a5,a3,a5
800012ac:	03078793          	addi	a5,a5,48
800012b0:	00068e13          	mv	t3,a3
800012b4:	00050313          	mv	t1,a0
800012b8:	00a68733          	add	a4,a3,a0
800012bc:	00d73eb3          	sltu	t4,a4,a3
800012c0:	01d70733          	add	a4,a4,t4
800012c4:	02c73eb3          	mulhu	t4,a4,a2
800012c8:	002edf13          	srli	t5,t4,0x2
800012cc:	ffcefe93          	andi	t4,t4,-4
800012d0:	01ee8eb3          	add	t4,t4,t5
800012d4:	41d70733          	sub	a4,a4,t4
800012d8:	40e68733          	sub	a4,a3,a4
800012dc:	00e6b6b3          	sltu	a3,a3,a4
800012e0:	40d506b3          	sub	a3,a0,a3
800012e4:	02c686b3          	mul	a3,a3,a2
800012e8:	03070533          	mul	a0,a4,a6
800012ec:	00a686b3          	add	a3,a3,a0
800012f0:	02c70533          	mul	a0,a4,a2
800012f4:	02c73733          	mulhu	a4,a4,a2
800012f8:	00e68733          	add	a4,a3,a4
800012fc:	01f71693          	slli	a3,a4,0x1f
80001300:	00155513          	srli	a0,a0,0x1
80001304:	00a6e6b3          	or	a3,a3,a0
80001308:	00175513          	srli	a0,a4,0x1
8000130c:	00058e93          	mv	t4,a1
80001310:	00158593          	addi	a1,a1,1
80001314:	00b88733          	add	a4,a7,a1
80001318:	fef70fa3          	sb	a5,-1(a4)
8000131c:	f4031ce3          	bnez	t1,80001274 <_ZN9Serial_IO7vprintfEPKcPv+0x8d0>
80001320:	00031663          	bnez	t1,8000132c <_ZN9Serial_IO7vprintfEPKcPv+0x988>
80001324:	00900793          	li	a5,9
80001328:	f5c7e6e3          	bltu	a5,t3,80001274 <_ZN9Serial_IO7vprintfEPKcPv+0x8d0>
8000132c:	0015d813          	srli	a6,a1,0x1
80001330:	00100793          	li	a5,1
80001334:	02b7f863          	bgeu	a5,a1,80001364 <_ZN9Serial_IO7vprintfEPKcPv+0x9c0>
80001338:	01d107b3          	add	a5,sp,t4
8000133c:	00010713          	mv	a4,sp
80001340:	00078513          	mv	a0,a5
80001344:	0007c683          	lbu	a3,0(a5)
80001348:	00074603          	lbu	a2,0(a4)
8000134c:	00c78023          	sb	a2,0(a5)
80001350:	00d70023          	sb	a3,0(a4)
80001354:	fff78793          	addi	a5,a5,-1
80001358:	00170713          	addi	a4,a4,1
8000135c:	40f506b3          	sub	a3,a0,a5
80001360:	ff06e2e3          	bltu	a3,a6,80001344 <_ZN9Serial_IO7vprintfEPKcPv+0x9a0>
80001364:	00010513          	mv	a0,sp
80001368:	da5fe0ef          	jal	8000010c <_ZN9Serial_IO5writeEPKcm>
8000136c:	00000513          	li	a0,0
80001370:	d79fe0ef          	jal	800000e8 <_ZN9Serial_IO5writeEc>
80001374:	02e00513          	li	a0,46
80001378:	d71fe0ef          	jal	800000e8 <_ZN9Serial_IO5writeEc>
8000137c:	0a048e63          	beqz	s1,80001438 <_ZN9Serial_IO7vprintfEPKcPv+0xa94>
80001380:	00000d13          	li	s10,0
80001384:	800027b7          	lui	a5,0x80002
80001388:	00c7ad83          	lw	s11,12(a5) # 8000200c <__clz_tab+0x100>
8000138c:	11bc7c53          	fmul.s	s8,s8,s11
80001390:	c00c1cd3          	fcvt.w.s	s9,s8,rtz
80001394:	030c8513          	addi	a0,s9,48
80001398:	0ff57513          	zext.b	a0,a0
8000139c:	d4dfe0ef          	jal	800000e8 <_ZN9Serial_IO5writeEc>
800013a0:	d00cfcd3          	fcvt.s.w	s9,s9
800013a4:	099c7c53          	fsub.s	s8,s8,s9
800013a8:	001d0d13          	addi	s10,s10,1
800013ac:	fe9d10e3          	bne	s10,s1,8000138c <_ZN9Serial_IO7vprintfEPKcPv+0x9e8>
800013b0:	05412c83          	lw	s9,84(sp)
800013b4:	05012d03          	lw	s10,80(sp)
800013b8:	04c12d83          	lw	s11,76(sp)
800013bc:	02c0006f          	j	800013e8 <_ZN9Serial_IO7vprintfEPKcPv+0xa44>
800013c0:	02d00513          	li	a0,45
800013c4:	d25fe0ef          	jal	800000e8 <_ZN9Serial_IO5writeEc>
800013c8:	218c1c53          	fneg.s	s8,s8
800013cc:	e7dff06f          	j	80001248 <_ZN9Serial_IO7vprintfEPKcPv+0x8a4>
800013d0:	80002537          	lui	a0,0x80002
800013d4:	e3450513          	addi	a0,a0,-460 # 80001e34 <__truncdfsf2+0x2e8>
800013d8:	d71fe0ef          	jal	80000148 <_ZN9Serial_IO5writeEPKc>
800013dc:	00048b13          	mv	s6,s1
800013e0:	0080006f          	j	800013e8 <_ZN9Serial_IO7vprintfEPKcPv+0xa44>
800013e4:	d05fe0ef          	jal	800000e8 <_ZN9Serial_IO5writeEc>
800013e8:	001b0b13          	addi	s6,s6,1
800013ec:	016407b3          	add	a5,s0,s6
800013f0:	0007c503          	lbu	a0,0(a5)
800013f4:	04050a63          	beqz	a0,80001448 <_ZN9Serial_IO7vprintfEPKcPv+0xaa4>
800013f8:	ff2516e3          	bne	a0,s2,800013e4 <_ZN9Serial_IO7vprintfEPKcPv+0xa40>
800013fc:	001b0493          	addi	s1,s6,1
80001400:	009407b3          	add	a5,s0,s1
80001404:	0007c783          	lbu	a5,0(a5)
80001408:	db4784e3          	beq	a5,s4,800011b0 <_ZN9Serial_IO7vprintfEPKcPv+0x80c>
8000140c:	f9e78713          	addi	a4,a5,-98
80001410:	0ff77713          	zext.b	a4,a4
80001414:	fae9eee3          	bltu	s3,a4,800013d0 <_ZN9Serial_IO7vprintfEPKcPv+0xa2c>
80001418:	f9e78793          	addi	a5,a5,-98
8000141c:	0ff7f713          	zext.b	a4,a5
80001420:	fae9e8e3          	bltu	s3,a4,800013d0 <_ZN9Serial_IO7vprintfEPKcPv+0xa2c>
80001424:	00070793          	mv	a5,a4
80001428:	eb0a8713          	addi	a4,s5,-336 # 80001eb0 <__truncdfsf2+0x364>
8000142c:	20e7c7b3          	sh2add	a5,a5,a4
80001430:	0007a783          	lw	a5,0(a5)
80001434:	00078067          	jr	a5
80001438:	05412c83          	lw	s9,84(sp)
8000143c:	05012d03          	lw	s10,80(sp)
80001440:	04c12d83          	lw	s11,76(sp)
80001444:	fa5ff06f          	j	800013e8 <_ZN9Serial_IO7vprintfEPKcPv+0xa44>
80001448:	07412483          	lw	s1,116(sp)
8000144c:	07012903          	lw	s2,112(sp)
80001450:	06c12983          	lw	s3,108(sp)
80001454:	06812a03          	lw	s4,104(sp)
80001458:	06412a83          	lw	s5,100(sp)
8000145c:	06012b03          	lw	s6,96(sp)
80001460:	05c12b83          	lw	s7,92(sp)
80001464:	05812c03          	lw	s8,88(sp)
80001468:	07c12083          	lw	ra,124(sp)
8000146c:	07812403          	lw	s0,120(sp)
80001470:	08010113          	addi	sp,sp,128
80001474:	00008067          	ret

80001478 <_ZN9Serial_IO6printfEPKcz>:
80001478:	fc010113          	addi	sp,sp,-64
8000147c:	00112e23          	sw	ra,28(sp)
80001480:	02b12223          	sw	a1,36(sp)
80001484:	02c12423          	sw	a2,40(sp)
80001488:	02d12623          	sw	a3,44(sp)
8000148c:	02e12823          	sw	a4,48(sp)
80001490:	02f12a23          	sw	a5,52(sp)
80001494:	03012c23          	sw	a6,56(sp)
80001498:	03112e23          	sw	a7,60(sp)
8000149c:	02410593          	addi	a1,sp,36
800014a0:	00b12623          	sw	a1,12(sp)
800014a4:	d00ff0ef          	jal	800009a4 <_ZN9Serial_IO7vprintfEPKcPv>
800014a8:	00000513          	li	a0,0
800014ac:	c3dfe0ef          	jal	800000e8 <_ZN9Serial_IO5writeEc>
800014b0:	01c12083          	lw	ra,28(sp)
800014b4:	04010113          	addi	sp,sp,64
800014b8:	00008067          	ret

800014bc <audio_synthesizer>:
800014bc:	f1010113          	addi	sp,sp,-240
800014c0:	00c10513          	addi	a0,sp,12
800014c4:	00000593          	li	a1,0
800014c8:	0e112623          	sw	ra,236(sp)
800014cc:	0e812423          	sw	s0,232(sp)
800014d0:	0e912223          	sw	s1,228(sp)
800014d4:	0f212023          	sw	s2,224(sp)
800014d8:	0d312e23          	sw	s3,220(sp)
800014dc:	b54ff0ef          	jal	80000830 <_ZN5TimerC1Em>
800014e0:	0001c537          	lui	a0,0x1c
800014e4:	00300713          	li	a4,3
800014e8:	00000693          	li	a3,0
800014ec:	00000613          	li	a2,0
800014f0:	00100593          	li	a1,1
800014f4:	20050513          	addi	a0,a0,512 # 1c200 <copy_loop+0x1c1dc>
800014f8:	b09fe0ef          	jal	80000000 <_ZN9Serial_IO4initEmbN4UART12parityMode_eENS0_10stopBits_eENS0_12dataLenght_eE>
800014fc:	04010513          	addi	a0,sp,64
80001500:	c85fe0ef          	jal	80000184 <_ZN16AudioSynthesizerC1Ev>
80001504:	00100693          	li	a3,1
80001508:	fff00593          	li	a1,-1
8000150c:	fff00613          	li	a2,-1
80001510:	00c10513          	addi	a0,sp,12
80001514:	bf8ff0ef          	jal	8000090c <_ZN5Timer4initEyNS_11timerMode_eE>
80001518:	01c10513          	addi	a0,sp,28
8000151c:	9b0ff0ef          	jal	800006cc <_ZN12AudioCaptureC1Ev>
80001520:	0000c737          	lui	a4,0xc
80001524:	002dc6b7          	lui	a3,0x2dc
80001528:	b8070713          	addi	a4,a4,-1152 # bb80 <copy_loop+0xbb5c>
8000152c:	6c068693          	addi	a3,a3,1728 # 2dc6c0 <copy_loop+0x2dc69c>
80001530:	00000793          	li	a5,0
80001534:	00000613          	li	a2,0
80001538:	00000593          	li	a1,0
8000153c:	01c10513          	addi	a0,sp,28
80001540:	a04ff0ef          	jal	80000744 <_ZN12AudioCapture4initENS_9channel_eEbmmPNS_7error_eE>
80001544:	80002537          	lui	a0,0x80002
80001548:	e4c50513          	addi	a0,a0,-436 # 80001e4c <__truncdfsf2+0x300>
8000154c:	bfdfe0ef          	jal	80000148 <_ZN9Serial_IO5writeEPKc>
80001550:	3b9ad5b7          	lui	a1,0x3b9ad
80001554:	a0058593          	addi	a1,a1,-1536 # 3b9aca00 <copy_loop+0x3b9ac9dc>
80001558:	00000613          	li	a2,0
8000155c:	00c10513          	addi	a0,sp,12
80001560:	c10ff0ef          	jal	80000970 <_ZN5Timer12setThresholdEy>
80001564:	00000593          	li	a1,0
80001568:	00000613          	li	a2,0
8000156c:	00c10513          	addi	a0,sp,12
80001570:	bf0ff0ef          	jal	80000960 <_ZN5Timer7setTimeEy>
80001574:	00c10513          	addi	a0,sp,12
80001578:	c08ff0ef          	jal	80000980 <_ZN5Timer5startEv>
8000157c:	01c10513          	addi	a0,sp,28
80001580:	a90ff0ef          	jal	80000810 <_ZN12AudioCapture14startRecordingEv>
80001584:	800049b7          	lui	s3,0x80004
80001588:	02012483          	lw	s1,32(sp)
8000158c:	00000913          	li	s2,0
80001590:	00000413          	li	s0,0
80001594:	0100006f          	j	800015a4 <audio_synthesizer+0xe8>
80001598:	0004a783          	lw	a5,0(s1)
8000159c:	4817d793          	bexti	a5,a5,0x1
800015a0:	14078663          	beqz	a5,800016ec <audio_synthesizer+0x230>
800015a4:	01812783          	lw	a5,24(sp)
800015a8:	0007a783          	lw	a5,0(a5)
800015ac:	4837d793          	bexti	a5,a5,0x3
800015b0:	fe0784e3          	beqz	a5,80001598 <audio_synthesizer+0xdc>
800015b4:	80002537          	lui	a0,0x80002
800015b8:	00040613          	mv	a2,s0
800015bc:	00090593          	mv	a1,s2
800015c0:	e6c50513          	addi	a0,a0,-404 # 80001e6c <__truncdfsf2+0x320>
800015c4:	eb5ff0ef          	jal	80001478 <_ZN9Serial_IO6printfEPKcz>
800015c8:	80002537          	lui	a0,0x80002
800015cc:	e9c50513          	addi	a0,a0,-356 # 80001e9c <__truncdfsf2+0x350>
800015d0:	b79fe0ef          	jal	80000148 <_ZN9Serial_IO5writeEPKc>
800015d4:	00000593          	li	a1,0
800015d8:	04010513          	addi	a0,sp,64
800015dc:	db1fe0ef          	jal	8000038c <_ZN16AudioSynthesizer10selectWaveENS_6wave_eE>
800015e0:	02e00593          	li	a1,46
800015e4:	ec1fe0ef          	jal	800004a4 <_ZN16AudioSynthesizer12setFrequencyEm>
800015e8:	000085b7          	lui	a1,0x8
800015ec:	fc5fe0ef          	jal	800005b0 <_ZN16AudioSynthesizer7setGainEt>
800015f0:	00000713          	li	a4,0
800015f4:	00000693          	li	a3,0
800015f8:	40000613          	li	a2,1024
800015fc:	800045b7          	lui	a1,0x80004
80001600:	04010513          	addi	a0,sp,64
80001604:	85cff0ef          	jal	80000660 <_ZN16AudioSynthesizer13setCustomWaveEPtmmPNS_7error_eE>
80001608:	800055b7          	lui	a1,0x80005
8000160c:	00000713          	li	a4,0
80001610:	00100693          	li	a3,1
80001614:	40000613          	li	a2,1024
80001618:	80058593          	addi	a1,a1,-2048 # 80004800 <_ZN9Serial_IO6statusE+0x27c4>
8000161c:	04010513          	addi	a0,sp,64
80001620:	840ff0ef          	jal	80000660 <_ZN16AudioSynthesizer13setCustomWaveEPtmmPNS_7error_eE>
80001624:	00100593          	li	a1,1
80001628:	04010513          	addi	a0,sp,64
8000162c:	d69fe0ef          	jal	80000394 <_ZN16AudioSynthesizer7setWaveEb>
80001630:	e05fe0ef          	jal	80000434 <_ZN16AudioSynthesizer11restartWaveEv>
80001634:	04010513          	addi	a0,sp,64
80001638:	884ff0ef          	jal	800006bc <_ZN16AudioSynthesizer14getActiveTableEv>
8000163c:	00a12423          	sw	a0,8(sp)
80001640:	28b01913          	bseti	s2,zero,0xb
80001644:	08895263          	bge	s2,s0,800016c8 <audio_synthesizer+0x20c>
80001648:	fffff7b7          	lui	a5,0xfffff
8000164c:	7ff78793          	addi	a5,a5,2047 # fffff7ff <_ZN9Serial_IO6statusE+0x7fffd7c3>
80001650:	00f404b3          	add	s1,s0,a5
80001654:	001007b7          	lui	a5,0x100
80001658:	00a4d493          	srli	s1,s1,0xa
8000165c:	00b78793          	addi	a5,a5,11 # 10000b <copy_loop+0xfffe7>
80001660:	00f484b3          	add	s1,s1,a5
80001664:	00b49493          	slli	s1,s1,0xb
80001668:	80005437          	lui	s0,0x80005
8000166c:	04010513          	addi	a0,sp,64
80001670:	84cff0ef          	jal	800006bc <_ZN16AudioSynthesizer14getActiveTableEv>
80001674:	00812783          	lw	a5,8(sp)
80001678:	fef50ae3          	beq	a0,a5,8000166c <audio_synthesizer+0x1b0>
8000167c:	04010513          	addi	a0,sp,64
80001680:	83cff0ef          	jal	800006bc <_ZN16AudioSynthesizer14getActiveTableEv>
80001684:	00050793          	mv	a5,a0
80001688:	00000713          	li	a4,0
8000168c:	00100693          	li	a3,1
80001690:	40000613          	li	a2,1024
80001694:	00040593          	mv	a1,s0
80001698:	04010513          	addi	a0,sp,64
8000169c:	00078a63          	beqz	a5,800016b0 <audio_synthesizer+0x1f4>
800016a0:	00000713          	li	a4,0
800016a4:	00000693          	li	a3,0
800016a8:	40000613          	li	a2,1024
800016ac:	04010513          	addi	a0,sp,64
800016b0:	fb1fe0ef          	jal	80000660 <_ZN16AudioSynthesizer13setCustomWaveEPtmmPNS_7error_eE>
800016b4:	04010513          	addi	a0,sp,64
800016b8:	804ff0ef          	jal	800006bc <_ZN16AudioSynthesizer14getActiveTableEv>
800016bc:	01240433          	add	s0,s0,s2
800016c0:	00a12423          	sw	a0,8(sp)
800016c4:	fa9414e3          	bne	s0,s1,8000166c <audio_synthesizer+0x1b0>
800016c8:	00c10513          	addi	a0,sp,12
800016cc:	9e4ff0ef          	jal	800008b0 <_ZN5TimerD1Ev>
800016d0:	0ec12083          	lw	ra,236(sp)
800016d4:	0e812403          	lw	s0,232(sp)
800016d8:	0e412483          	lw	s1,228(sp)
800016dc:	0e012903          	lw	s2,224(sp)
800016e0:	0dc12983          	lw	s3,220(sp)
800016e4:	0f010113          	addi	sp,sp,240
800016e8:	00008067          	ret
800016ec:	01c10513          	addi	a0,sp,28
800016f0:	934ff0ef          	jal	80000824 <_ZN12AudioCapture10readSampleEv>
800016f4:	fff50793          	addi	a5,a0,-1
800016f8:	01079793          	slli	a5,a5,0x10
800016fc:	00010737          	lui	a4,0x10
80001700:	0107d793          	srli	a5,a5,0x10
80001704:	ffd70713          	addi	a4,a4,-3 # fffd <copy_loop+0xffd9>
80001708:	00f737b3          	sltu	a5,a4,a5
8000170c:	00a99023          	sh	a0,0(s3) # 80004000 <_ZN9Serial_IO6statusE+0x1fc4>
80001710:	00140413          	addi	s0,s0,1 # 80005001 <_ZN9Serial_IO6statusE+0x2fc5>
80001714:	00298993          	addi	s3,s3,2
80001718:	00f90933          	add	s2,s2,a5
8000171c:	e89ff06f          	j	800015a4 <audio_synthesizer+0xe8>

80001720 <__udivdi3>:
80001720:	00050893          	mv	a7,a0
80001724:	00058313          	mv	t1,a1
80001728:	00060713          	mv	a4,a2
8000172c:	00050813          	mv	a6,a0
80001730:	00058793          	mv	a5,a1
80001734:	28069263          	bnez	a3,800019b8 <__udivdi3+0x298>
80001738:	800025b7          	lui	a1,0x80002
8000173c:	f0c58593          	addi	a1,a1,-244 # 80001f0c <__clz_tab>
80001740:	0ec37663          	bgeu	t1,a2,8000182c <__udivdi3+0x10c>
80001744:	000106b7          	lui	a3,0x10
80001748:	0cd67863          	bgeu	a2,a3,80001818 <__udivdi3+0xf8>
8000174c:	10063693          	sltiu	a3,a2,256
80001750:	0016b693          	seqz	a3,a3
80001754:	00369693          	slli	a3,a3,0x3
80001758:	00d65533          	srl	a0,a2,a3
8000175c:	00a585b3          	add	a1,a1,a0
80001760:	0005c583          	lbu	a1,0(a1)
80001764:	02000513          	li	a0,32
80001768:	00d586b3          	add	a3,a1,a3
8000176c:	40d505b3          	sub	a1,a0,a3
80001770:	00d50c63          	beq	a0,a3,80001788 <__udivdi3+0x68>
80001774:	00b317b3          	sll	a5,t1,a1
80001778:	00d8d6b3          	srl	a3,a7,a3
8000177c:	00b61733          	sll	a4,a2,a1
80001780:	00f6e7b3          	or	a5,a3,a5
80001784:	00b89833          	sll	a6,a7,a1
80001788:	01075593          	srli	a1,a4,0x10
8000178c:	02b7d333          	divu	t1,a5,a1
80001790:	01071613          	slli	a2,a4,0x10
80001794:	01065613          	srli	a2,a2,0x10
80001798:	02b7f7b3          	remu	a5,a5,a1
8000179c:	00030513          	mv	a0,t1
800017a0:	026608b3          	mul	a7,a2,t1
800017a4:	01079693          	slli	a3,a5,0x10
800017a8:	01085793          	srli	a5,a6,0x10
800017ac:	00d7e7b3          	or	a5,a5,a3
800017b0:	0117fe63          	bgeu	a5,a7,800017cc <__udivdi3+0xac>
800017b4:	00f707b3          	add	a5,a4,a5
800017b8:	fff30513          	addi	a0,t1,-1
800017bc:	00e7e863          	bltu	a5,a4,800017cc <__udivdi3+0xac>
800017c0:	0117f663          	bgeu	a5,a7,800017cc <__udivdi3+0xac>
800017c4:	ffe30513          	addi	a0,t1,-2
800017c8:	00e787b3          	add	a5,a5,a4
800017cc:	411787b3          	sub	a5,a5,a7
800017d0:	02b7d8b3          	divu	a7,a5,a1
800017d4:	01081813          	slli	a6,a6,0x10
800017d8:	01085813          	srli	a6,a6,0x10
800017dc:	02b7f7b3          	remu	a5,a5,a1
800017e0:	031606b3          	mul	a3,a2,a7
800017e4:	01079793          	slli	a5,a5,0x10
800017e8:	00f86833          	or	a6,a6,a5
800017ec:	00088793          	mv	a5,a7
800017f0:	00d87c63          	bgeu	a6,a3,80001808 <__udivdi3+0xe8>
800017f4:	01070833          	add	a6,a4,a6
800017f8:	fff88793          	addi	a5,a7,-1
800017fc:	00e86663          	bltu	a6,a4,80001808 <__udivdi3+0xe8>
80001800:	00d87463          	bgeu	a6,a3,80001808 <__udivdi3+0xe8>
80001804:	ffe88793          	addi	a5,a7,-2
80001808:	01051513          	slli	a0,a0,0x10
8000180c:	00f56533          	or	a0,a0,a5
80001810:	00000593          	li	a1,0
80001814:	00008067          	ret
80001818:	01000537          	lui	a0,0x1000
8000181c:	01800693          	li	a3,24
80001820:	f2a67ce3          	bgeu	a2,a0,80001758 <__udivdi3+0x38>
80001824:	01000693          	li	a3,16
80001828:	f31ff06f          	j	80001758 <__udivdi3+0x38>
8000182c:	00000693          	li	a3,0
80001830:	00060c63          	beqz	a2,80001848 <__udivdi3+0x128>
80001834:	000107b7          	lui	a5,0x10
80001838:	0cf67063          	bgeu	a2,a5,800018f8 <__udivdi3+0x1d8>
8000183c:	10063693          	sltiu	a3,a2,256
80001840:	0016b693          	seqz	a3,a3
80001844:	00369693          	slli	a3,a3,0x3
80001848:	00d657b3          	srl	a5,a2,a3
8000184c:	00f585b3          	add	a1,a1,a5
80001850:	0005c783          	lbu	a5,0(a1)
80001854:	00d787b3          	add	a5,a5,a3
80001858:	02000693          	li	a3,32
8000185c:	40f685b3          	sub	a1,a3,a5
80001860:	0af69663          	bne	a3,a5,8000190c <__udivdi3+0x1ec>
80001864:	40c307b3          	sub	a5,t1,a2
80001868:	00100593          	li	a1,1
8000186c:	01075893          	srli	a7,a4,0x10
80001870:	0317de33          	divu	t3,a5,a7
80001874:	01071613          	slli	a2,a4,0x10
80001878:	01065613          	srli	a2,a2,0x10
8000187c:	01085693          	srli	a3,a6,0x10
80001880:	0317f7b3          	remu	a5,a5,a7
80001884:	000e0513          	mv	a0,t3
80001888:	03c60333          	mul	t1,a2,t3
8000188c:	01079793          	slli	a5,a5,0x10
80001890:	00f6e7b3          	or	a5,a3,a5
80001894:	0067fe63          	bgeu	a5,t1,800018b0 <__udivdi3+0x190>
80001898:	00f707b3          	add	a5,a4,a5
8000189c:	fffe0513          	addi	a0,t3,-1
800018a0:	00e7e863          	bltu	a5,a4,800018b0 <__udivdi3+0x190>
800018a4:	0067f663          	bgeu	a5,t1,800018b0 <__udivdi3+0x190>
800018a8:	ffee0513          	addi	a0,t3,-2
800018ac:	00e787b3          	add	a5,a5,a4
800018b0:	406787b3          	sub	a5,a5,t1
800018b4:	0317d333          	divu	t1,a5,a7
800018b8:	01081813          	slli	a6,a6,0x10
800018bc:	01085813          	srli	a6,a6,0x10
800018c0:	0317f7b3          	remu	a5,a5,a7
800018c4:	026606b3          	mul	a3,a2,t1
800018c8:	01079793          	slli	a5,a5,0x10
800018cc:	00f86833          	or	a6,a6,a5
800018d0:	00030793          	mv	a5,t1
800018d4:	00d87c63          	bgeu	a6,a3,800018ec <__udivdi3+0x1cc>
800018d8:	01070833          	add	a6,a4,a6
800018dc:	fff30793          	addi	a5,t1,-1
800018e0:	00e86663          	bltu	a6,a4,800018ec <__udivdi3+0x1cc>
800018e4:	00d87463          	bgeu	a6,a3,800018ec <__udivdi3+0x1cc>
800018e8:	ffe30793          	addi	a5,t1,-2
800018ec:	01051513          	slli	a0,a0,0x10
800018f0:	00f56533          	or	a0,a0,a5
800018f4:	00008067          	ret
800018f8:	010007b7          	lui	a5,0x1000
800018fc:	01800693          	li	a3,24
80001900:	f4f674e3          	bgeu	a2,a5,80001848 <__udivdi3+0x128>
80001904:	01000693          	li	a3,16
80001908:	f41ff06f          	j	80001848 <__udivdi3+0x128>
8000190c:	00b61733          	sll	a4,a2,a1
80001910:	00f356b3          	srl	a3,t1,a5
80001914:	01075513          	srli	a0,a4,0x10
80001918:	00b31333          	sll	t1,t1,a1
8000191c:	00f8d7b3          	srl	a5,a7,a5
80001920:	0067e7b3          	or	a5,a5,t1
80001924:	02a6d333          	divu	t1,a3,a0
80001928:	01071613          	slli	a2,a4,0x10
8000192c:	01065613          	srli	a2,a2,0x10
80001930:	00b89833          	sll	a6,a7,a1
80001934:	02a6f6b3          	remu	a3,a3,a0
80001938:	026608b3          	mul	a7,a2,t1
8000193c:	01069593          	slli	a1,a3,0x10
80001940:	0107d693          	srli	a3,a5,0x10
80001944:	00b6e6b3          	or	a3,a3,a1
80001948:	00030593          	mv	a1,t1
8000194c:	0116fe63          	bgeu	a3,a7,80001968 <__udivdi3+0x248>
80001950:	00d706b3          	add	a3,a4,a3
80001954:	fff30593          	addi	a1,t1,-1
80001958:	00e6e863          	bltu	a3,a4,80001968 <__udivdi3+0x248>
8000195c:	0116f663          	bgeu	a3,a7,80001968 <__udivdi3+0x248>
80001960:	ffe30593          	addi	a1,t1,-2
80001964:	00e686b3          	add	a3,a3,a4
80001968:	411686b3          	sub	a3,a3,a7
8000196c:	02a6d8b3          	divu	a7,a3,a0
80001970:	01079793          	slli	a5,a5,0x10
80001974:	0107d793          	srli	a5,a5,0x10
80001978:	02a6f6b3          	remu	a3,a3,a0
8000197c:	03160633          	mul	a2,a2,a7
80001980:	01069693          	slli	a3,a3,0x10
80001984:	00d7e7b3          	or	a5,a5,a3
80001988:	00088693          	mv	a3,a7
8000198c:	00c7fe63          	bgeu	a5,a2,800019a8 <__udivdi3+0x288>
80001990:	00f707b3          	add	a5,a4,a5
80001994:	fff88693          	addi	a3,a7,-1
80001998:	00e7e863          	bltu	a5,a4,800019a8 <__udivdi3+0x288>
8000199c:	00c7f663          	bgeu	a5,a2,800019a8 <__udivdi3+0x288>
800019a0:	ffe88693          	addi	a3,a7,-2
800019a4:	00e787b3          	add	a5,a5,a4
800019a8:	01059593          	slli	a1,a1,0x10
800019ac:	40c787b3          	sub	a5,a5,a2
800019b0:	00d5e5b3          	or	a1,a1,a3
800019b4:	eb9ff06f          	j	8000186c <__udivdi3+0x14c>
800019b8:	18d5e463          	bltu	a1,a3,80001b40 <__udivdi3+0x420>
800019bc:	000107b7          	lui	a5,0x10
800019c0:	04f6f463          	bgeu	a3,a5,80001a08 <__udivdi3+0x2e8>
800019c4:	1006b793          	sltiu	a5,a3,256
800019c8:	0017b793          	seqz	a5,a5
800019cc:	00379793          	slli	a5,a5,0x3
800019d0:	80002737          	lui	a4,0x80002
800019d4:	00f6d5b3          	srl	a1,a3,a5
800019d8:	f0c70713          	addi	a4,a4,-244 # 80001f0c <__clz_tab>
800019dc:	00b70733          	add	a4,a4,a1
800019e0:	00074703          	lbu	a4,0(a4)
800019e4:	00f70733          	add	a4,a4,a5
800019e8:	02000793          	li	a5,32
800019ec:	40e785b3          	sub	a1,a5,a4
800019f0:	02e79663          	bne	a5,a4,80001a1c <__udivdi3+0x2fc>
800019f4:	00100513          	li	a0,1
800019f8:	e066eee3          	bltu	a3,t1,80001814 <__udivdi3+0xf4>
800019fc:	00c8b533          	sltu	a0,a7,a2
80001a00:	00153513          	seqz	a0,a0
80001a04:	00008067          	ret
80001a08:	01000737          	lui	a4,0x1000
80001a0c:	01800793          	li	a5,24
80001a10:	fce6f0e3          	bgeu	a3,a4,800019d0 <__udivdi3+0x2b0>
80001a14:	01000793          	li	a5,16
80001a18:	fb9ff06f          	j	800019d0 <__udivdi3+0x2b0>
80001a1c:	00e65533          	srl	a0,a2,a4
80001a20:	00b696b3          	sll	a3,a3,a1
80001a24:	00e357b3          	srl	a5,t1,a4
80001a28:	00d56533          	or	a0,a0,a3
80001a2c:	00b31333          	sll	t1,t1,a1
80001a30:	00e8d733          	srl	a4,a7,a4
80001a34:	00676733          	or	a4,a4,t1
80001a38:	01055313          	srli	t1,a0,0x10
80001a3c:	0267deb3          	divu	t4,a5,t1
80001a40:	01051813          	slli	a6,a0,0x10
80001a44:	01085813          	srli	a6,a6,0x10
80001a48:	01075693          	srli	a3,a4,0x10
80001a4c:	00b61633          	sll	a2,a2,a1
80001a50:	0267f7b3          	remu	a5,a5,t1
80001a54:	03d80e33          	mul	t3,a6,t4
80001a58:	01079793          	slli	a5,a5,0x10
80001a5c:	00f6e6b3          	or	a3,a3,a5
80001a60:	000e8793          	mv	a5,t4
80001a64:	01c6fe63          	bgeu	a3,t3,80001a80 <__udivdi3+0x360>
80001a68:	00d506b3          	add	a3,a0,a3
80001a6c:	fffe8793          	addi	a5,t4,-1
80001a70:	00a6e863          	bltu	a3,a0,80001a80 <__udivdi3+0x360>
80001a74:	01c6f663          	bgeu	a3,t3,80001a80 <__udivdi3+0x360>
80001a78:	ffee8793          	addi	a5,t4,-2
80001a7c:	00a686b3          	add	a3,a3,a0
80001a80:	41c686b3          	sub	a3,a3,t3
80001a84:	0266de33          	divu	t3,a3,t1
80001a88:	01071713          	slli	a4,a4,0x10
80001a8c:	01075713          	srli	a4,a4,0x10
80001a90:	0266f6b3          	remu	a3,a3,t1
80001a94:	03c80833          	mul	a6,a6,t3
80001a98:	01069693          	slli	a3,a3,0x10
80001a9c:	00d76733          	or	a4,a4,a3
80001aa0:	000e0693          	mv	a3,t3
80001aa4:	01077e63          	bgeu	a4,a6,80001ac0 <__udivdi3+0x3a0>
80001aa8:	00e50733          	add	a4,a0,a4
80001aac:	fffe0693          	addi	a3,t3,-1
80001ab0:	00a76863          	bltu	a4,a0,80001ac0 <__udivdi3+0x3a0>
80001ab4:	01077663          	bgeu	a4,a6,80001ac0 <__udivdi3+0x3a0>
80001ab8:	ffee0693          	addi	a3,t3,-2
80001abc:	00a70733          	add	a4,a4,a0
80001ac0:	01079793          	slli	a5,a5,0x10
80001ac4:	00d7e533          	or	a0,a5,a3
80001ac8:	01061313          	slli	t1,a2,0x10
80001acc:	01069693          	slli	a3,a3,0x10
80001ad0:	0106d693          	srli	a3,a3,0x10
80001ad4:	01035313          	srli	t1,t1,0x10
80001ad8:	01065613          	srli	a2,a2,0x10
80001adc:	41070733          	sub	a4,a4,a6
80001ae0:	01055813          	srli	a6,a0,0x10
80001ae4:	02668e33          	mul	t3,a3,t1
80001ae8:	02680333          	mul	t1,a6,t1
80001aec:	010e5793          	srli	a5,t3,0x10
80001af0:	02c686b3          	mul	a3,a3,a2
80001af4:	006686b3          	add	a3,a3,t1
80001af8:	00d787b3          	add	a5,a5,a3
80001afc:	02c80833          	mul	a6,a6,a2
80001b00:	0067f663          	bgeu	a5,t1,80001b0c <__udivdi3+0x3ec>
80001b04:	000106b7          	lui	a3,0x10
80001b08:	00d80833          	add	a6,a6,a3
80001b0c:	0107d693          	srli	a3,a5,0x10
80001b10:	010686b3          	add	a3,a3,a6
80001b14:	02d76263          	bltu	a4,a3,80001b38 <__udivdi3+0x418>
80001b18:	ced71ce3          	bne	a4,a3,80001810 <__udivdi3+0xf0>
80001b1c:	010e1e13          	slli	t3,t3,0x10
80001b20:	01079793          	slli	a5,a5,0x10
80001b24:	010e5e13          	srli	t3,t3,0x10
80001b28:	00b898b3          	sll	a7,a7,a1
80001b2c:	01c787b3          	add	a5,a5,t3
80001b30:	00000593          	li	a1,0
80001b34:	cef8f0e3          	bgeu	a7,a5,80001814 <__udivdi3+0xf4>
80001b38:	fff50513          	addi	a0,a0,-1 # ffffff <copy_loop+0xffffdb>
80001b3c:	cd5ff06f          	j	80001810 <__udivdi3+0xf0>
80001b40:	00000593          	li	a1,0
80001b44:	00000513          	li	a0,0
80001b48:	00008067          	ret

80001b4c <__truncdfsf2>:
80001b4c:	00202673          	frrm	a2
80001b50:	0145d313          	srli	t1,a1,0x14
80001b54:	7ff37313          	andi	t1,t1,2047
80001b58:	00c59793          	slli	a5,a1,0xc
80001b5c:	00130813          	addi	a6,t1,1
80001b60:	0097d793          	srli	a5,a5,0x9
80001b64:	01d55713          	srli	a4,a0,0x1d
80001b68:	7fe87813          	andi	a6,a6,2046
80001b6c:	01f5d593          	srli	a1,a1,0x1f
80001b70:	00f76733          	or	a4,a4,a5
80001b74:	00351693          	slli	a3,a0,0x3
80001b78:	18080263          	beqz	a6,80001cfc <__truncdfsf2+0x1b0>
80001b7c:	c8030813          	addi	a6,t1,-896
80001b80:	0fe00893          	li	a7,254
80001b84:	0b08d263          	bge	a7,a6,80001c28 <__truncdfsf2+0xdc>
80001b88:	28060e63          	beqz	a2,80001e24 <__truncdfsf2+0x2d8>
80001b8c:	00300793          	li	a5,3
80001b90:	06f61a63          	bne	a2,a5,80001c04 <__truncdfsf2+0xb8>
80001b94:	28058863          	beqz	a1,80001e24 <__truncdfsf2+0x2d8>
80001b98:	fff00793          	li	a5,-1
80001b9c:	00000713          	li	a4,0
80001ba0:	00088313          	mv	t1,a7
80001ba4:	00500813          	li	a6,5
80001ba8:	00300693          	li	a3,3
80001bac:	1ed60c63          	beq	a2,a3,80001da4 <__truncdfsf2+0x258>
80001bb0:	00061a63          	bnez	a2,80001bc4 <__truncdfsf2+0x78>
80001bb4:	00f7f693          	andi	a3,a5,15
80001bb8:	00400513          	li	a0,4
80001bbc:	00a68463          	beq	a3,a0,80001bc4 <__truncdfsf2+0x78>
80001bc0:	00a787b3          	add	a5,a5,a0
80001bc4:	00070863          	beqz	a4,80001bd4 <__truncdfsf2+0x88>
80001bc8:	00187713          	andi	a4,a6,1
80001bcc:	00171713          	slli	a4,a4,0x1
80001bd0:	00e86833          	or	a6,a6,a4
80001bd4:	00579713          	slli	a4,a5,0x5
80001bd8:	1e074463          	bltz	a4,80001dc0 <__truncdfsf2+0x274>
80001bdc:	0037d793          	srli	a5,a5,0x3
80001be0:	00979793          	slli	a5,a5,0x9
80001be4:	0097d793          	srli	a5,a5,0x9
80001be8:	01731513          	slli	a0,t1,0x17
80001bec:	00f56533          	or	a0,a0,a5
80001bf0:	01f59793          	slli	a5,a1,0x1f
80001bf4:	00f56533          	or	a0,a0,a5
80001bf8:	00080463          	beqz	a6,80001c00 <__truncdfsf2+0xb4>
80001bfc:	00182073          	csrs	fflags,a6
80001c00:	00008067          	ret
80001c04:	00200793          	li	a5,2
80001c08:	1af61463          	bne	a2,a5,80001db0 <__truncdfsf2+0x264>
80001c0c:	20059c63          	bnez	a1,80001e24 <__truncdfsf2+0x2d8>
80001c10:	00000713          	li	a4,0
80001c14:	fff00793          	li	a5,-1
80001c18:	00088313          	mv	t1,a7
80001c1c:	00500813          	li	a6,5
80001c20:	20f5e7b3          	sh3add	a5,a1,a5
80001c24:	fa1ff06f          	j	80001bc4 <__truncdfsf2+0x78>
80001c28:	0b004663          	bgtz	a6,80001cd4 <__truncdfsf2+0x188>
80001c2c:	fe900513          	li	a0,-23
80001c30:	00100793          	li	a5,1
80001c34:	02a84a63          	blt	a6,a0,80001c68 <__truncdfsf2+0x11c>
80001c38:	01e00893          	li	a7,30
80001c3c:	410888b3          	sub	a7,a7,a6
80001c40:	01f00793          	li	a5,31
80001c44:	29771713          	bseti	a4,a4,0x17
80001c48:	0517ce63          	blt	a5,a7,80001ca4 <__truncdfsf2+0x158>
80001c4c:	c8230513          	addi	a0,t1,-894
80001c50:	0116d8b3          	srl	a7,a3,a7
80001c54:	00a696b3          	sll	a3,a3,a0
80001c58:	00d036b3          	snez	a3,a3
80001c5c:	00a71733          	sll	a4,a4,a0
80001c60:	00e6e6b3          	or	a3,a3,a4
80001c64:	00d8e7b3          	or	a5,a7,a3
80001c68:	00179713          	slli	a4,a5,0x1
80001c6c:	00777693          	andi	a3,a4,7
80001c70:	10068c63          	beqz	a3,80001d88 <__truncdfsf2+0x23c>
80001c74:	00200693          	li	a3,2
80001c78:	0ed60e63          	beq	a2,a3,80001d74 <__truncdfsf2+0x228>
80001c7c:	00300693          	li	a3,3
80001c80:	0cd60263          	beq	a2,a3,80001d44 <__truncdfsf2+0x1f8>
80001c84:	0e061a63          	bnez	a2,80001d78 <__truncdfsf2+0x22c>
80001c88:	00f77693          	andi	a3,a4,15
80001c8c:	00400513          	li	a0,4
80001c90:	00a70733          	add	a4,a4,a0
80001c94:	0aa69c63          	bne	a3,a0,80001d4c <__truncdfsf2+0x200>
80001c98:	00000313          	li	t1,0
80001c9c:	00100713          	li	a4,1
80001ca0:	0b80006f          	j	80001d58 <__truncdfsf2+0x20c>
80001ca4:	ffe00793          	li	a5,-2
80001ca8:	410787b3          	sub	a5,a5,a6
80001cac:	02000513          	li	a0,32
80001cb0:	00f757b3          	srl	a5,a4,a5
80001cb4:	00000813          	li	a6,0
80001cb8:	00a88663          	beq	a7,a0,80001cc4 <__truncdfsf2+0x178>
80001cbc:	ca230813          	addi	a6,t1,-862
80001cc0:	01071833          	sll	a6,a4,a6
80001cc4:	00d86833          	or	a6,a6,a3
80001cc8:	01003833          	snez	a6,a6
80001ccc:	0107e7b3          	or	a5,a5,a6
80001cd0:	f99ff06f          	j	80001c68 <__truncdfsf2+0x11c>
80001cd4:	00651513          	slli	a0,a0,0x6
80001cd8:	00371713          	slli	a4,a4,0x3
80001cdc:	00a03533          	snez	a0,a0
80001ce0:	00e56533          	or	a0,a0,a4
80001ce4:	01d6d693          	srli	a3,a3,0x1d
80001ce8:	00d567b3          	or	a5,a0,a3
80001cec:	00080313          	mv	t1,a6
80001cf0:	00000713          	li	a4,0
80001cf4:	00000813          	li	a6,0
80001cf8:	0640006f          	j	80001d5c <__truncdfsf2+0x210>
80001cfc:	00d767b3          	or	a5,a4,a3
80001d00:	00031863          	bnez	t1,80001d10 <__truncdfsf2+0x1c4>
80001d04:	ec078ee3          	beqz	a5,80001be0 <__truncdfsf2+0x94>
80001d08:	00100793          	li	a5,1
80001d0c:	f5dff06f          	j	80001c68 <__truncdfsf2+0x11c>
80001d10:	10078e63          	beqz	a5,80001e2c <__truncdfsf2+0x2e0>
80001d14:	7ff00793          	li	a5,2047
80001d18:	00f31863          	bne	t1,a5,80001d28 <__truncdfsf2+0x1dc>
80001d1c:	01675813          	srli	a6,a4,0x16
80001d20:	00184813          	xori	a6,a6,1
80001d24:	00481813          	slli	a6,a6,0x4
80001d28:	00076793          	ori	a5,a4,0
80001d2c:	29679793          	bseti	a5,a5,0x16
80001d30:	0e078e63          	beqz	a5,80001e2c <__truncdfsf2+0x2e0>
80001d34:	00000593          	li	a1,0
80001d38:	0ff00313          	li	t1,255
80001d3c:	004007b7          	lui	a5,0x400
80001d40:	ea1ff06f          	j	80001be0 <__truncdfsf2+0x94>
80001d44:	04059863          	bnez	a1,80001d94 <__truncdfsf2+0x248>
80001d48:	00870713          	addi	a4,a4,8 # 1000008 <copy_loop+0xffffe4>
80001d4c:	49b75713          	bexti	a4,a4,0x1b
80001d50:	00174713          	xori	a4,a4,1
80001d54:	00000313          	li	t1,0
80001d58:	00100813          	li	a6,1
80001d5c:	0077f693          	andi	a3,a5,7
80001d60:	e60682e3          	beqz	a3,80001bc4 <__truncdfsf2+0x78>
80001d64:	00200693          	li	a3,2
80001d68:	00100813          	li	a6,1
80001d6c:	e2d61ee3          	bne	a2,a3,80001ba8 <__truncdfsf2+0x5c>
80001d70:	eb1ff06f          	j	80001c20 <__truncdfsf2+0xd4>
80001d74:	fc059ae3          	bnez	a1,80001d48 <__truncdfsf2+0x1fc>
80001d78:	00100713          	li	a4,1
80001d7c:	00000313          	li	t1,0
80001d80:	00070813          	mv	a6,a4
80001d84:	fd9ff06f          	j	80001d5c <__truncdfsf2+0x210>
80001d88:	00000313          	li	t1,0
80001d8c:	00100713          	li	a4,1
80001d90:	f65ff06f          	j	80001cf4 <__truncdfsf2+0x1a8>
80001d94:	00058713          	mv	a4,a1
80001d98:	00058813          	mv	a6,a1
80001d9c:	00000313          	li	t1,0
80001da0:	fbdff06f          	j	80001d5c <__truncdfsf2+0x210>
80001da4:	e20590e3          	bnez	a1,80001bc4 <__truncdfsf2+0x78>
80001da8:	00878793          	addi	a5,a5,8 # 400008 <copy_loop+0x3fffe4>
80001dac:	e19ff06f          	j	80001bc4 <__truncdfsf2+0x78>
80001db0:	00088313          	mv	t1,a7
80001db4:	fff00793          	li	a5,-1
80001db8:	00500813          	li	a6,5
80001dbc:	e19ff06f          	j	80001bd4 <__truncdfsf2+0x88>
80001dc0:	00130313          	addi	t1,t1,1
80001dc4:	0ff00713          	li	a4,255
80001dc8:	00e30c63          	beq	t1,a4,80001de0 <__truncdfsf2+0x294>
80001dcc:	1f800737          	lui	a4,0x1f800
80001dd0:	0037d793          	srli	a5,a5,0x3
80001dd4:	fff70713          	addi	a4,a4,-1 # 1f7fffff <copy_loop+0x1f7fffdb>
80001dd8:	00e7f7b3          	and	a5,a5,a4
80001ddc:	e05ff06f          	j	80001be0 <__truncdfsf2+0x94>
80001de0:	00000793          	li	a5,0
80001de4:	02060463          	beqz	a2,80001e0c <__truncdfsf2+0x2c0>
80001de8:	00300713          	li	a4,3
80001dec:	00e61a63          	bne	a2,a4,80001e00 <__truncdfsf2+0x2b4>
80001df0:	00058e63          	beqz	a1,80001e0c <__truncdfsf2+0x2c0>
80001df4:	fff00793          	li	a5,-1
80001df8:	0fe00313          	li	t1,254
80001dfc:	0100006f          	j	80001e0c <__truncdfsf2+0x2c0>
80001e00:	00200713          	li	a4,2
80001e04:	fee618e3          	bne	a2,a4,80001df4 <__truncdfsf2+0x2a8>
80001e08:	fe0586e3          	beqz	a1,80001df4 <__truncdfsf2+0x2a8>
80001e0c:	0ff00713          	li	a4,255
80001e10:	00586813          	ori	a6,a6,5
80001e14:	0037d793          	srli	a5,a5,0x3
80001e18:	f0e30ce3          	beq	t1,a4,80001d30 <__truncdfsf2+0x1e4>
80001e1c:	0fe00313          	li	t1,254
80001e20:	dc1ff06f          	j	80001be0 <__truncdfsf2+0x94>
80001e24:	00000793          	li	a5,0
80001e28:	00500813          	li	a6,5
80001e2c:	0ff00313          	li	t1,255
80001e30:	db1ff06f          	j	80001be0 <__truncdfsf2+0x94>
