
output.elf:     file format elf32-littleriscv


Disassembly of section .boot:

00000000 <boot_program>:
   0:	88000137          	.word	0x88000137
   4:	00800293          	.word	0x00800293
   8:	3002a073          	.word	0x3002a073
   c:	fff00293          	.word	0xfff00293
  10:	3042a073          	.word	0x3042a073
  14:	04800293          	.word	0x04800293
  18:	80000337          	.word	0x80000337
  1c:	000043b7          	.word	0x000043b7
  20:	fff38393          	.word	0xfff38393

00000024 <copy_loop>:
  24:	0002a503          	.word	0x0002a503
  28:	00a32023          	.word	0x00a32023
  2c:	00428293          	.word	0x00428293
  30:	00430313          	.word	0x00430313
  34:	fe72c8e3          	.word	0xfe72c8e3
  38:	80001317          	.word	0x80001317
  3c:	7e430313          	.word	0x7e430313
  40:	000300e7          	.word	0x000300e7
  44:	c0001073          	.word	0xc0001073

Disassembly of section .text:

80000000 <_ZN9Serial_IO4initEmbN4UART12parityMode_eENS0_10stopBits_eENS0_12dataLenght_eE>:
80000000:	800037b7          	lui	a5,0x80003
80000004:	00004837          	lui	a6,0x4
80000008:	bd07ae23          	sw	a6,-1060(a5) # 80002bdc <_ZN9Serial_IO6statusE>
8000000c:	bdc7a803          	lw	a6,-1060(a5)
80000010:	00480813          	addi	a6,a6,4 # 4004 <copy_loop+0x3fe0>
80000014:	800038b7          	lui	a7,0x80003
80000018:	bd08ac23          	sw	a6,-1064(a7) # 80002bd8 <_ZN9Serial_IO8bufferTXE>
8000001c:	bdc7a803          	lw	a6,-1060(a5)
80000020:	bdc7a883          	lw	a7,-1060(a5)
80000024:	0015f593          	andi	a1,a1,1
80000028:	00b59813          	slli	a6,a1,0xb
8000002c:	0008a583          	lw	a1,0(a7)
80000030:	48b59593          	bclri	a1,a1,0xb
80000034:	0105e5b3          	or	a1,a1,a6
80000038:	00b8a023          	sw	a1,0(a7)
8000003c:	bdc7a803          	lw	a6,-1060(a5)
80000040:	00377713          	andi	a4,a4,3
80000044:	00e71593          	slli	a1,a4,0xe
80000048:	00082703          	lw	a4,0(a6)
8000004c:	48e71713          	bclri	a4,a4,0xe
80000050:	48f71713          	bclri	a4,a4,0xf
80000054:	00b76733          	or	a4,a4,a1
80000058:	00e82023          	sw	a4,0(a6)
8000005c:	bdc7a583          	lw	a1,-1060(a5)
80000060:	0016f693          	andi	a3,a3,1
80000064:	00d69693          	slli	a3,a3,0xd
80000068:	0005a703          	lw	a4,0(a1)
8000006c:	48d71713          	bclri	a4,a4,0xd
80000070:	00d76733          	or	a4,a4,a3
80000074:	00e5a023          	sw	a4,0(a1)
80000078:	bdc7a683          	lw	a3,-1060(a5)
8000007c:	00167613          	andi	a2,a2,1
80000080:	00c61713          	slli	a4,a2,0xc
80000084:	0006a603          	lw	a2,0(a3)
80000088:	48c61613          	bclri	a2,a2,0xc
8000008c:	00e66633          	or	a2,a2,a4
80000090:	00c6a023          	sw	a2,0(a3)
80000094:	00451513          	slli	a0,a0,0x4
80000098:	05f5e737          	lui	a4,0x5f5e
8000009c:	10070713          	addi	a4,a4,256 # 5f5e100 <copy_loop+0x5f5e0dc>
800000a0:	02a75733          	divu	a4,a4,a0
800000a4:	fff70713          	addi	a4,a4,-1
800000a8:	bdc7a603          	lw	a2,-1060(a5)
800000ac:	01171713          	slli	a4,a4,0x11
800000b0:	00062683          	lw	a3,0(a2)
800000b4:	00f69693          	slli	a3,a3,0xf
800000b8:	00f6d693          	srli	a3,a3,0xf
800000bc:	00e6e733          	or	a4,a3,a4
800000c0:	00e62023          	sw	a4,0(a2)
800000c4:	bdc7a683          	lw	a3,-1060(a5)
800000c8:	0006a703          	lw	a4,0(a3)
800000cc:	20076713          	ori	a4,a4,512
800000d0:	00e6a023          	sw	a4,0(a3)
800000d4:	bdc7a703          	lw	a4,-1060(a5)
800000d8:	00072783          	lw	a5,0(a4)
800000dc:	4007e793          	ori	a5,a5,1024
800000e0:	00f72023          	sw	a5,0(a4)
800000e4:	00008067          	ret

800000e8 <_ZN9Serial_IO5writeEc>:
800000e8:	80003737          	lui	a4,0x80003
800000ec:	bdc72783          	lw	a5,-1060(a4) # 80002bdc <_ZN9Serial_IO6statusE>
800000f0:	0007a783          	lw	a5,0(a5)
800000f4:	4837d793          	bexti	a5,a5,0x3
800000f8:	fe079ae3          	bnez	a5,800000ec <_ZN9Serial_IO5writeEc+0x4>
800000fc:	800037b7          	lui	a5,0x80003
80000100:	bd87a783          	lw	a5,-1064(a5) # 80002bd8 <_ZN9Serial_IO8bufferTXE>
80000104:	00a78023          	sb	a0,0(a5)
80000108:	00008067          	ret

8000010c <_ZN9Serial_IO5writeEPKcm>:
8000010c:	02058c63          	beqz	a1,80000144 <_ZN9Serial_IO5writeEPKcm+0x38>
80000110:	800037b7          	lui	a5,0x80003
80000114:	bd87a803          	lw	a6,-1064(a5) # 80002bd8 <_ZN9Serial_IO8bufferTXE>
80000118:	00050693          	mv	a3,a0
8000011c:	00b50633          	add	a2,a0,a1
80000120:	80003737          	lui	a4,0x80003
80000124:	bdc72783          	lw	a5,-1060(a4) # 80002bdc <_ZN9Serial_IO6statusE>
80000128:	0007a783          	lw	a5,0(a5)
8000012c:	4837d793          	bexti	a5,a5,0x3
80000130:	fe079ae3          	bnez	a5,80000124 <_ZN9Serial_IO5writeEPKcm+0x18>
80000134:	0006c783          	lbu	a5,0(a3)
80000138:	00f80023          	sb	a5,0(a6)
8000013c:	00168693          	addi	a3,a3,1
80000140:	fec692e3          	bne	a3,a2,80000124 <_ZN9Serial_IO5writeEPKcm+0x18>
80000144:	00008067          	ret

80000148 <_ZN9Serial_IO5writeEPKc>:
80000148:	ff010113          	addi	sp,sp,-16
8000014c:	00112623          	sw	ra,12(sp)
80000150:	00054783          	lbu	a5,0(a0)
80000154:	02078463          	beqz	a5,8000017c <_ZN9Serial_IO5writeEPKc+0x34>
80000158:	00000593          	li	a1,0
8000015c:	00158593          	addi	a1,a1,1
80000160:	00b507b3          	add	a5,a0,a1
80000164:	0007c783          	lbu	a5,0(a5)
80000168:	fe079ae3          	bnez	a5,8000015c <_ZN9Serial_IO5writeEPKc+0x14>
8000016c:	fa1ff0ef          	jal	8000010c <_ZN9Serial_IO5writeEPKcm>
80000170:	00c12083          	lw	ra,12(sp)
80000174:	01010113          	addi	sp,sp,16
80000178:	00008067          	ret
8000017c:	00000593          	li	a1,0
80000180:	fedff06f          	j	8000016c <_ZN9Serial_IO5writeEPKc+0x24>

80000184 <_ZN16AudioSynthesizerC1Ev>:
80000184:	000107b7          	lui	a5,0x10
80000188:	02078793          	addi	a5,a5,32 # 10020 <copy_loop+0xfffc>
8000018c:	00f52223          	sw	a5,4(a0)
80000190:	00f52423          	sw	a5,8(a0)
80000194:	00011637          	lui	a2,0x11
80000198:	02060613          	addi	a2,a2,32 # 11020 <copy_loop+0x10ffc>
8000019c:	00c52623          	sw	a2,12(a0)
800001a0:	000117b7          	lui	a5,0x11
800001a4:	02478793          	addi	a5,a5,36 # 11024 <copy_loop+0x11000>
800001a8:	00f52823          	sw	a5,16(a0)
800001ac:	000117b7          	lui	a5,0x11
800001b0:	02878793          	addi	a5,a5,40 # 11028 <copy_loop+0x11004>
800001b4:	00f52a23          	sw	a5,20(a0)
800001b8:	000117b7          	lui	a5,0x11
800001bc:	02c78793          	addi	a5,a5,44 # 1102c <copy_loop+0x11008>
800001c0:	00f52c23          	sw	a5,24(a0)
800001c4:	000117b7          	lui	a5,0x11
800001c8:	03078793          	addi	a5,a5,48 # 11030 <copy_loop+0x1100c>
800001cc:	00f52e23          	sw	a5,28(a0)
800001d0:	000117b7          	lui	a5,0x11
800001d4:	03478793          	addi	a5,a5,52 # 11034 <copy_loop+0x11010>
800001d8:	02f52023          	sw	a5,32(a0)
800001dc:	000117b7          	lui	a5,0x11
800001e0:	03878793          	addi	a5,a5,56 # 11038 <copy_loop+0x11014>
800001e4:	02f52223          	sw	a5,36(a0)
800001e8:	000117b7          	lui	a5,0x11
800001ec:	03c78793          	addi	a5,a5,60 # 1103c <copy_loop+0x11018>
800001f0:	02f52423          	sw	a5,40(a0)
800001f4:	000116b7          	lui	a3,0x11
800001f8:	04068693          	addi	a3,a3,64 # 11040 <copy_loop+0x1101c>
800001fc:	02d52623          	sw	a3,44(a0)
80000200:	000117b7          	lui	a5,0x11
80000204:	04478793          	addi	a5,a5,68 # 11044 <copy_loop+0x11020>
80000208:	02f52823          	sw	a5,48(a0)
8000020c:	000117b7          	lui	a5,0x11
80000210:	04878793          	addi	a5,a5,72 # 11048 <copy_loop+0x11024>
80000214:	02f52a23          	sw	a5,52(a0)
80000218:	000117b7          	lui	a5,0x11
8000021c:	04c78793          	addi	a5,a5,76 # 1104c <copy_loop+0x11028>
80000220:	02f52c23          	sw	a5,56(a0)
80000224:	000117b7          	lui	a5,0x11
80000228:	05078793          	addi	a5,a5,80 # 11050 <copy_loop+0x1102c>
8000022c:	02f52e23          	sw	a5,60(a0)
80000230:	000117b7          	lui	a5,0x11
80000234:	05478793          	addi	a5,a5,84 # 11054 <copy_loop+0x11030>
80000238:	04f52023          	sw	a5,64(a0)
8000023c:	000117b7          	lui	a5,0x11
80000240:	05878793          	addi	a5,a5,88 # 11058 <copy_loop+0x11034>
80000244:	04f52223          	sw	a5,68(a0)
80000248:	000117b7          	lui	a5,0x11
8000024c:	05c78793          	addi	a5,a5,92 # 1105c <copy_loop+0x11038>
80000250:	04f52423          	sw	a5,72(a0)
80000254:	00011737          	lui	a4,0x11
80000258:	06070713          	addi	a4,a4,96 # 11060 <copy_loop+0x1103c>
8000025c:	04e52623          	sw	a4,76(a0)
80000260:	000117b7          	lui	a5,0x11
80000264:	06478793          	addi	a5,a5,100 # 11064 <copy_loop+0x11040>
80000268:	04f52823          	sw	a5,80(a0)
8000026c:	000117b7          	lui	a5,0x11
80000270:	06878793          	addi	a5,a5,104 # 11068 <copy_loop+0x11044>
80000274:	04f52a23          	sw	a5,84(a0)
80000278:	000117b7          	lui	a5,0x11
8000027c:	06c78793          	addi	a5,a5,108 # 1106c <copy_loop+0x11048>
80000280:	04f52c23          	sw	a5,88(a0)
80000284:	000117b7          	lui	a5,0x11
80000288:	07078793          	addi	a5,a5,112 # 11070 <copy_loop+0x1104c>
8000028c:	04f52e23          	sw	a5,92(a0)
80000290:	000117b7          	lui	a5,0x11
80000294:	07478793          	addi	a5,a5,116 # 11074 <copy_loop+0x11050>
80000298:	06f52023          	sw	a5,96(a0)
8000029c:	000117b7          	lui	a5,0x11
800002a0:	07878793          	addi	a5,a5,120 # 11078 <copy_loop+0x11054>
800002a4:	06f52223          	sw	a5,100(a0)
800002a8:	000117b7          	lui	a5,0x11
800002ac:	07c78793          	addi	a5,a5,124 # 1107c <copy_loop+0x11058>
800002b0:	06f52423          	sw	a5,104(a0)
800002b4:	000117b7          	lui	a5,0x11
800002b8:	08078793          	addi	a5,a5,128 # 11080 <copy_loop+0x1105c>
800002bc:	06f52623          	sw	a5,108(a0)
800002c0:	000115b7          	lui	a1,0x11
800002c4:	08458593          	addi	a1,a1,132 # 11084 <copy_loop+0x11060>
800002c8:	06b52823          	sw	a1,112(a0)
800002cc:	000115b7          	lui	a1,0x11
800002d0:	08858593          	addi	a1,a1,136 # 11088 <copy_loop+0x11064>
800002d4:	06b52a23          	sw	a1,116(a0)
800002d8:	000115b7          	lui	a1,0x11
800002dc:	08c58593          	addi	a1,a1,140 # 1108c <copy_loop+0x11068>
800002e0:	06b52c23          	sw	a1,120(a0)
800002e4:	000115b7          	lui	a1,0x11
800002e8:	09058593          	addi	a1,a1,144 # 11090 <copy_loop+0x1106c>
800002ec:	06b52e23          	sw	a1,124(a0)
800002f0:	000115b7          	lui	a1,0x11
800002f4:	09458593          	addi	a1,a1,148 # 11094 <copy_loop+0x11070>
800002f8:	08b52023          	sw	a1,128(a0)
800002fc:	000115b7          	lui	a1,0x11
80000300:	09858593          	addi	a1,a1,152 # 11098 <copy_loop+0x11074>
80000304:	08b52223          	sw	a1,132(a0)
80000308:	000115b7          	lui	a1,0x11
8000030c:	09c58593          	addi	a1,a1,156 # 1109c <copy_loop+0x11078>
80000310:	08b52423          	sw	a1,136(a0)
80000314:	000115b7          	lui	a1,0x11
80000318:	0a058593          	addi	a1,a1,160 # 110a0 <copy_loop+0x1107c>
8000031c:	08b52623          	sw	a1,140(a0)
80000320:	00062583          	lw	a1,0(a2)
80000324:	ff75f593          	andi	a1,a1,-9
80000328:	00b62023          	sw	a1,0(a2)
8000032c:	00062583          	lw	a1,0(a2)
80000330:	ffd5f593          	andi	a1,a1,-3
80000334:	00b62023          	sw	a1,0(a2)
80000338:	0006a603          	lw	a2,0(a3)
8000033c:	ff767613          	andi	a2,a2,-9
80000340:	00c6a023          	sw	a2,0(a3)
80000344:	0006a603          	lw	a2,0(a3)
80000348:	ffd67613          	andi	a2,a2,-3
8000034c:	00c6a023          	sw	a2,0(a3)
80000350:	00072683          	lw	a3,0(a4)
80000354:	ff76f693          	andi	a3,a3,-9
80000358:	00d72023          	sw	a3,0(a4)
8000035c:	00072683          	lw	a3,0(a4)
80000360:	ffd6f693          	andi	a3,a3,-3
80000364:	00d72023          	sw	a3,0(a4)
80000368:	0007a703          	lw	a4,0(a5)
8000036c:	ff777713          	andi	a4,a4,-9
80000370:	00e7a023          	sw	a4,0(a5)
80000374:	0007a703          	lw	a4,0(a5)
80000378:	ffd77713          	andi	a4,a4,-3
8000037c:	00e7a023          	sw	a4,0(a5)
80000380:	00100793          	li	a5,1
80000384:	00f52023          	sw	a5,0(a0)
80000388:	00008067          	ret

8000038c <_ZN16AudioSynthesizer10selectWaveENS_6wave_eE>:
8000038c:	00b52023          	sw	a1,0(a0)
80000390:	00008067          	ret

80000394 <_ZN16AudioSynthesizer7setWaveEb>:
80000394:	00052783          	lw	a5,0(a0)
80000398:	00200713          	li	a4,2
8000039c:	06e78c63          	beq	a5,a4,80000414 <_ZN16AudioSynthesizer7setWaveEb+0x80>
800003a0:	02f76463          	bltu	a4,a5,800003c8 <_ZN16AudioSynthesizer7setWaveEb+0x34>
800003a4:	04078863          	beqz	a5,800003f4 <_ZN16AudioSynthesizer7setWaveEb+0x60>
800003a8:	02c52703          	lw	a4,44(a0)
800003ac:	0015f593          	andi	a1,a1,1
800003b0:	00159593          	slli	a1,a1,0x1
800003b4:	00072783          	lw	a5,0(a4)
800003b8:	ffd7f793          	andi	a5,a5,-3
800003bc:	00b7e7b3          	or	a5,a5,a1
800003c0:	00f72023          	sw	a5,0(a4)
800003c4:	00008067          	ret
800003c8:	00300713          	li	a4,3
800003cc:	02e79263          	bne	a5,a4,800003f0 <_ZN16AudioSynthesizer7setWaveEb+0x5c>
800003d0:	06c52703          	lw	a4,108(a0)
800003d4:	0015f593          	andi	a1,a1,1
800003d8:	00159593          	slli	a1,a1,0x1
800003dc:	00072783          	lw	a5,0(a4)
800003e0:	ffd7f793          	andi	a5,a5,-3
800003e4:	00b7e7b3          	or	a5,a5,a1
800003e8:	00f72023          	sw	a5,0(a4)
800003ec:	00008067          	ret
800003f0:	00008067          	ret
800003f4:	00c52703          	lw	a4,12(a0)
800003f8:	0015f593          	andi	a1,a1,1
800003fc:	00159593          	slli	a1,a1,0x1
80000400:	00072783          	lw	a5,0(a4)
80000404:	ffd7f793          	andi	a5,a5,-3
80000408:	00b7e7b3          	or	a5,a5,a1
8000040c:	00f72023          	sw	a5,0(a4)
80000410:	00008067          	ret
80000414:	04c52703          	lw	a4,76(a0)
80000418:	0015f593          	andi	a1,a1,1
8000041c:	00159593          	slli	a1,a1,0x1
80000420:	00072783          	lw	a5,0(a4)
80000424:	ffd7f793          	andi	a5,a5,-3
80000428:	00b7e7b3          	or	a5,a5,a1
8000042c:	00f72023          	sw	a5,0(a4)
80000430:	00008067          	ret

80000434 <_ZN16AudioSynthesizer11restartWaveEv>:
80000434:	00052783          	lw	a5,0(a0)
80000438:	00200713          	li	a4,2
8000043c:	04e78a63          	beq	a5,a4,80000490 <_ZN16AudioSynthesizer11restartWaveEv+0x5c>
80000440:	00f76e63          	bltu	a4,a5,8000045c <_ZN16AudioSynthesizer11restartWaveEv+0x28>
80000444:	02078c63          	beqz	a5,8000047c <_ZN16AudioSynthesizer11restartWaveEv+0x48>
80000448:	02c52703          	lw	a4,44(a0)
8000044c:	00072783          	lw	a5,0(a4)
80000450:	0017e793          	ori	a5,a5,1
80000454:	00f72023          	sw	a5,0(a4)
80000458:	00008067          	ret
8000045c:	00300713          	li	a4,3
80000460:	00e79c63          	bne	a5,a4,80000478 <_ZN16AudioSynthesizer11restartWaveEv+0x44>
80000464:	06c52703          	lw	a4,108(a0)
80000468:	00072783          	lw	a5,0(a4)
8000046c:	0017e793          	ori	a5,a5,1
80000470:	00f72023          	sw	a5,0(a4)
80000474:	00008067          	ret
80000478:	00008067          	ret
8000047c:	00c52703          	lw	a4,12(a0)
80000480:	00072783          	lw	a5,0(a4)
80000484:	0017e793          	ori	a5,a5,1
80000488:	00f72023          	sw	a5,0(a4)
8000048c:	00008067          	ret
80000490:	04c52703          	lw	a4,76(a0)
80000494:	00072783          	lw	a5,0(a4)
80000498:	0017e793          	ori	a5,a5,1
8000049c:	00f72023          	sw	a5,0(a4)
800004a0:	00008067          	ret

800004a4 <_ZN16AudioSynthesizer12setFrequencyEm>:
800004a4:	ff010113          	addi	sp,sp,-16
800004a8:	00112623          	sw	ra,12(sp)
800004ac:	00812423          	sw	s0,8(sp)
800004b0:	00050413          	mv	s0,a0
800004b4:	00058793          	mv	a5,a1
800004b8:	00052703          	lw	a4,0(a0)
800004bc:	00200693          	li	a3,2
800004c0:	0ad70e63          	beq	a4,a3,8000057c <_ZN16AudioSynthesizer12setFrequencyEm+0xd8>
800004c4:	04e6e263          	bltu	a3,a4,80000508 <_ZN16AudioSynthesizer12setFrequencyEm+0x64>
800004c8:	00912223          	sw	s1,4(sp)
800004cc:	06070a63          	beqz	a4,80000540 <_ZN16AudioSynthesizer12setFrequencyEm+0x9c>
800004d0:	03052483          	lw	s1,48(a0)
800004d4:	ffc00513          	li	a0,-4
800004d8:	00300713          	li	a4,3
800004dc:	02e58733          	mul	a4,a1,a4
800004e0:	02a5b5b3          	mulhu	a1,a1,a0
800004e4:	05f5e637          	lui	a2,0x5f5e
800004e8:	10060613          	addi	a2,a2,256 # 5f5e100 <copy_loop+0x5f5e0dc>
800004ec:	00000693          	li	a3,0
800004f0:	02a78533          	mul	a0,a5,a0
800004f4:	00b705b3          	add	a1,a4,a1
800004f8:	6b4010ef          	jal	80001bac <__udivdi3>
800004fc:	00a4a023          	sw	a0,0(s1)
80000500:	00412483          	lw	s1,4(sp)
80000504:	0640006f          	j	80000568 <_ZN16AudioSynthesizer12setFrequencyEm+0xc4>
80000508:	00300693          	li	a3,3
8000050c:	04d71e63          	bne	a4,a3,80000568 <_ZN16AudioSynthesizer12setFrequencyEm+0xc4>
80000510:	00912223          	sw	s1,4(sp)
80000514:	07052483          	lw	s1,112(a0)
80000518:	fff00593          	li	a1,-1
8000051c:	02b7b5b3          	mulhu	a1,a5,a1
80000520:	05f5e637          	lui	a2,0x5f5e
80000524:	10060613          	addi	a2,a2,256 # 5f5e100 <copy_loop+0x5f5e0dc>
80000528:	00000693          	li	a3,0
8000052c:	40f00533          	neg	a0,a5
80000530:	67c010ef          	jal	80001bac <__udivdi3>
80000534:	00a4a023          	sw	a0,0(s1)
80000538:	00412483          	lw	s1,4(sp)
8000053c:	02c0006f          	j	80000568 <_ZN16AudioSynthesizer12setFrequencyEm+0xc4>
80000540:	01052483          	lw	s1,16(a0)
80000544:	fff00593          	li	a1,-1
80000548:	02b7b5b3          	mulhu	a1,a5,a1
8000054c:	05f5e637          	lui	a2,0x5f5e
80000550:	10060613          	addi	a2,a2,256 # 5f5e100 <copy_loop+0x5f5e0dc>
80000554:	00000693          	li	a3,0
80000558:	40f00533          	neg	a0,a5
8000055c:	650010ef          	jal	80001bac <__udivdi3>
80000560:	00a4a023          	sw	a0,0(s1)
80000564:	00412483          	lw	s1,4(sp)
80000568:	00040513          	mv	a0,s0
8000056c:	00c12083          	lw	ra,12(sp)
80000570:	00812403          	lw	s0,8(sp)
80000574:	01010113          	addi	sp,sp,16
80000578:	00008067          	ret
8000057c:	00912223          	sw	s1,4(sp)
80000580:	05052483          	lw	s1,80(a0)
80000584:	ffe00513          	li	a0,-2
80000588:	02a5b5b3          	mulhu	a1,a1,a0
8000058c:	05f5e637          	lui	a2,0x5f5e
80000590:	10060613          	addi	a2,a2,256 # 5f5e100 <copy_loop+0x5f5e0dc>
80000594:	00000693          	li	a3,0
80000598:	02a78533          	mul	a0,a5,a0
8000059c:	00b785b3          	add	a1,a5,a1
800005a0:	60c010ef          	jal	80001bac <__udivdi3>
800005a4:	00a4a023          	sw	a0,0(s1)
800005a8:	00412483          	lw	s1,4(sp)
800005ac:	fbdff06f          	j	80000568 <_ZN16AudioSynthesizer12setFrequencyEm+0xc4>

800005b0 <_ZN16AudioSynthesizer7setGainEt>:
800005b0:	00052783          	lw	a5,0(a0)
800005b4:	00200713          	li	a4,2
800005b8:	08e78263          	beq	a5,a4,8000063c <_ZN16AudioSynthesizer7setGainEt+0x8c>
800005bc:	02f76663          	bltu	a4,a5,800005e8 <_ZN16AudioSynthesizer7setGainEt+0x38>
800005c0:	04078c63          	beqz	a5,80000618 <_ZN16AudioSynthesizer7setGainEt+0x68>
800005c4:	02c52683          	lw	a3,44(a0)
800005c8:	00559593          	slli	a1,a1,0x5
800005cc:	0006a783          	lw	a5,0(a3)
800005d0:	ffe00737          	lui	a4,0xffe00
800005d4:	01f70713          	addi	a4,a4,31 # ffe0001f <_ZN9Serial_IO6statusE+0x7fdfd443>
800005d8:	00e7f7b3          	and	a5,a5,a4
800005dc:	00b7e7b3          	or	a5,a5,a1
800005e0:	00f6a023          	sw	a5,0(a3)
800005e4:	00008067          	ret
800005e8:	00300713          	li	a4,3
800005ec:	02e79463          	bne	a5,a4,80000614 <_ZN16AudioSynthesizer7setGainEt+0x64>
800005f0:	06c52683          	lw	a3,108(a0)
800005f4:	00559593          	slli	a1,a1,0x5
800005f8:	0006a783          	lw	a5,0(a3)
800005fc:	ffe00737          	lui	a4,0xffe00
80000600:	01f70713          	addi	a4,a4,31 # ffe0001f <_ZN9Serial_IO6statusE+0x7fdfd443>
80000604:	00e7f7b3          	and	a5,a5,a4
80000608:	00b7e7b3          	or	a5,a5,a1
8000060c:	00f6a023          	sw	a5,0(a3)
80000610:	00008067          	ret
80000614:	00008067          	ret
80000618:	00c52683          	lw	a3,12(a0)
8000061c:	00559593          	slli	a1,a1,0x5
80000620:	0006a783          	lw	a5,0(a3)
80000624:	ffe00737          	lui	a4,0xffe00
80000628:	01f70713          	addi	a4,a4,31 # ffe0001f <_ZN9Serial_IO6statusE+0x7fdfd443>
8000062c:	00e7f7b3          	and	a5,a5,a4
80000630:	00b7e7b3          	or	a5,a5,a1
80000634:	00f6a023          	sw	a5,0(a3)
80000638:	00008067          	ret
8000063c:	04c52683          	lw	a3,76(a0)
80000640:	00559593          	slli	a1,a1,0x5
80000644:	0006a783          	lw	a5,0(a3)
80000648:	ffe00737          	lui	a4,0xffe00
8000064c:	01f70713          	addi	a4,a4,31 # ffe0001f <_ZN9Serial_IO6statusE+0x7fdfd443>
80000650:	00e7f7b3          	and	a5,a5,a4
80000654:	00b7e7b3          	or	a5,a5,a1
80000658:	00f6a023          	sw	a5,0(a3)
8000065c:	00008067          	ret

80000660 <_ZN16AudioSynthesizer18setSquareDutyCycleEfPNS_7error_eE>:
80000660:	08c52783          	lw	a5,140(a0)
80000664:	80003737          	lui	a4,0x80003
80000668:	b9c72703          	lw	a4,-1124(a4) # 80002b9c <__clz_tab+0x100>
8000066c:	10e5f5d3          	fmul.s	a1,a1,a4
80000670:	c01595d3          	fcvt.wu.s	a1,a1,rtz
80000674:	00b7a023          	sw	a1,0(a5)
80000678:	00008067          	ret

8000067c <_ZN16AudioSynthesizer13setCustomWaveEtmPNS_7error_eE>:
8000067c:	40000793          	li	a5,1024
80000680:	00c7f863          	bgeu	a5,a2,80000690 <_ZN16AudioSynthesizer13setCustomWaveEtmPNS_7error_eE+0x14>
80000684:	00300793          	li	a5,3
80000688:	00f6a023          	sw	a5,0(a3)
8000068c:	00008067          	ret
80000690:	00852783          	lw	a5,8(a0)
80000694:	20f64633          	sh2add	a2,a2,a5
80000698:	00b62023          	sw	a1,0(a2)
8000069c:	00008067          	ret

800006a0 <_ZN16AudioSynthesizer7setADSREb>:
800006a0:	00052783          	lw	a5,0(a0)
800006a4:	00200713          	li	a4,2
800006a8:	06e78c63          	beq	a5,a4,80000720 <_ZN16AudioSynthesizer7setADSREb+0x80>
800006ac:	02f76463          	bltu	a4,a5,800006d4 <_ZN16AudioSynthesizer7setADSREb+0x34>
800006b0:	04078863          	beqz	a5,80000700 <_ZN16AudioSynthesizer7setADSREb+0x60>
800006b4:	02c52703          	lw	a4,44(a0)
800006b8:	0015f593          	andi	a1,a1,1
800006bc:	00359593          	slli	a1,a1,0x3
800006c0:	00072783          	lw	a5,0(a4)
800006c4:	ff77f793          	andi	a5,a5,-9
800006c8:	00b7e7b3          	or	a5,a5,a1
800006cc:	00f72023          	sw	a5,0(a4)
800006d0:	00008067          	ret
800006d4:	00300713          	li	a4,3
800006d8:	02e79263          	bne	a5,a4,800006fc <_ZN16AudioSynthesizer7setADSREb+0x5c>
800006dc:	06c52703          	lw	a4,108(a0)
800006e0:	0015f593          	andi	a1,a1,1
800006e4:	00359593          	slli	a1,a1,0x3
800006e8:	00072783          	lw	a5,0(a4)
800006ec:	ff77f793          	andi	a5,a5,-9
800006f0:	00b7e7b3          	or	a5,a5,a1
800006f4:	00f72023          	sw	a5,0(a4)
800006f8:	00008067          	ret
800006fc:	00008067          	ret
80000700:	00c52703          	lw	a4,12(a0)
80000704:	0015f593          	andi	a1,a1,1
80000708:	00359593          	slli	a1,a1,0x3
8000070c:	00072783          	lw	a5,0(a4)
80000710:	ff77f793          	andi	a5,a5,-9
80000714:	00b7e7b3          	or	a5,a5,a1
80000718:	00f72023          	sw	a5,0(a4)
8000071c:	00008067          	ret
80000720:	04c52703          	lw	a4,76(a0)
80000724:	0015f593          	andi	a1,a1,1
80000728:	00359593          	slli	a1,a1,0x3
8000072c:	00072783          	lw	a5,0(a4)
80000730:	ff77f793          	andi	a5,a5,-9
80000734:	00b7e7b3          	or	a5,a5,a1
80000738:	00f72023          	sw	a5,0(a4)
8000073c:	00008067          	ret

80000740 <_ZN16AudioSynthesizer10isIdleADSREv>:
80000740:	00052783          	lw	a5,0(a0)
80000744:	00200713          	li	a4,2
80000748:	04e78663          	beq	a5,a4,80000794 <_ZN16AudioSynthesizer10isIdleADSREv+0x54>
8000074c:	00f76c63          	bltu	a4,a5,80000764 <_ZN16AudioSynthesizer10isIdleADSREv+0x24>
80000750:	02078a63          	beqz	a5,80000784 <_ZN16AudioSynthesizer10isIdleADSREv+0x44>
80000754:	02c52783          	lw	a5,44(a0)
80000758:	0007a503          	lw	a0,0(a5)
8000075c:	48455513          	bexti	a0,a0,0x4
80000760:	00008067          	ret
80000764:	00300713          	li	a4,3
80000768:	00e79a63          	bne	a5,a4,8000077c <_ZN16AudioSynthesizer10isIdleADSREv+0x3c>
8000076c:	06c52783          	lw	a5,108(a0)
80000770:	0007a503          	lw	a0,0(a5)
80000774:	48455513          	bexti	a0,a0,0x4
80000778:	00008067          	ret
8000077c:	00000513          	li	a0,0
80000780:	00008067          	ret
80000784:	00c52783          	lw	a5,12(a0)
80000788:	0007a503          	lw	a0,0(a5)
8000078c:	48455513          	bexti	a0,a0,0x4
80000790:	00008067          	ret
80000794:	04c52783          	lw	a5,76(a0)
80000798:	0007a503          	lw	a0,0(a5)
8000079c:	48455513          	bexti	a0,a0,0x4
800007a0:	00008067          	ret

800007a4 <_ZN16AudioSynthesizer13setModulationEmmmmtt>:
800007a4:	01079793          	slli	a5,a5,0x10
800007a8:	01081813          	slli	a6,a6,0x10
800007ac:	000188b7          	lui	a7,0x18
800007b0:	6a088893          	addi	a7,a7,1696 # 186a0 <copy_loop+0x1867c>
800007b4:	031585b3          	mul	a1,a1,a7
800007b8:	02b7d5b3          	divu	a1,a5,a1
800007bc:	41078333          	sub	t1,a5,a6
800007c0:	03160633          	mul	a2,a2,a7
800007c4:	02c35333          	divu	t1,t1,a2
800007c8:	03170733          	mul	a4,a4,a7
800007cc:	02e85733          	divu	a4,a6,a4
800007d0:	031686b3          	mul	a3,a3,a7
800007d4:	00052603          	lw	a2,0(a0)
800007d8:	00200893          	li	a7,2
800007dc:	0f160263          	beq	a2,a7,800008c0 <_ZN16AudioSynthesizer13setModulationEmmmmtt+0x11c>
800007e0:	04c8e663          	bltu	a7,a2,8000082c <_ZN16AudioSynthesizer13setModulationEmmmmtt+0x88>
800007e4:	08060c63          	beqz	a2,8000087c <_ZN16AudioSynthesizer13setModulationEmmmmtt+0xd8>
800007e8:	03452603          	lw	a2,52(a0)
800007ec:	00b62023          	sw	a1,0(a2)
800007f0:	03852603          	lw	a2,56(a0)
800007f4:	00662023          	sw	t1,0(a2)
800007f8:	03c52603          	lw	a2,60(a0)
800007fc:	00e62023          	sw	a4,0(a2)
80000800:	04052703          	lw	a4,64(a0)
80000804:	00d72023          	sw	a3,0(a4)
80000808:	04452703          	lw	a4,68(a0)
8000080c:	00f72023          	sw	a5,0(a4)
80000810:	04852783          	lw	a5,72(a0)
80000814:	0107a023          	sw	a6,0(a5)
80000818:	02c52703          	lw	a4,44(a0)
8000081c:	00072783          	lw	a5,0(a4)
80000820:	0047e793          	ori	a5,a5,4
80000824:	00f72023          	sw	a5,0(a4)
80000828:	00008067          	ret
8000082c:	00300893          	li	a7,3
80000830:	05161463          	bne	a2,a7,80000878 <_ZN16AudioSynthesizer13setModulationEmmmmtt+0xd4>
80000834:	07452603          	lw	a2,116(a0)
80000838:	00b62023          	sw	a1,0(a2)
8000083c:	07852603          	lw	a2,120(a0)
80000840:	00662023          	sw	t1,0(a2)
80000844:	07c52603          	lw	a2,124(a0)
80000848:	00e62023          	sw	a4,0(a2)
8000084c:	08052703          	lw	a4,128(a0)
80000850:	00d72023          	sw	a3,0(a4)
80000854:	08452703          	lw	a4,132(a0)
80000858:	00f72023          	sw	a5,0(a4)
8000085c:	08852783          	lw	a5,136(a0)
80000860:	0107a023          	sw	a6,0(a5)
80000864:	06c52703          	lw	a4,108(a0)
80000868:	00072783          	lw	a5,0(a4)
8000086c:	0047e793          	ori	a5,a5,4
80000870:	00f72023          	sw	a5,0(a4)
80000874:	00008067          	ret
80000878:	00008067          	ret
8000087c:	01452603          	lw	a2,20(a0)
80000880:	00b62023          	sw	a1,0(a2)
80000884:	01852603          	lw	a2,24(a0)
80000888:	00662023          	sw	t1,0(a2)
8000088c:	01c52603          	lw	a2,28(a0)
80000890:	00e62023          	sw	a4,0(a2)
80000894:	02052703          	lw	a4,32(a0)
80000898:	00d72023          	sw	a3,0(a4)
8000089c:	02452703          	lw	a4,36(a0)
800008a0:	00f72023          	sw	a5,0(a4)
800008a4:	02852783          	lw	a5,40(a0)
800008a8:	0107a023          	sw	a6,0(a5)
800008ac:	00c52703          	lw	a4,12(a0)
800008b0:	00072783          	lw	a5,0(a4)
800008b4:	0047e793          	ori	a5,a5,4
800008b8:	00f72023          	sw	a5,0(a4)
800008bc:	00008067          	ret
800008c0:	05452603          	lw	a2,84(a0)
800008c4:	00b62023          	sw	a1,0(a2)
800008c8:	05852603          	lw	a2,88(a0)
800008cc:	00662023          	sw	t1,0(a2)
800008d0:	05c52603          	lw	a2,92(a0)
800008d4:	00e62023          	sw	a4,0(a2)
800008d8:	06052703          	lw	a4,96(a0)
800008dc:	00d72023          	sw	a3,0(a4)
800008e0:	06452703          	lw	a4,100(a0)
800008e4:	00f72023          	sw	a5,0(a4)
800008e8:	06852783          	lw	a5,104(a0)
800008ec:	0107a023          	sw	a6,0(a5)
800008f0:	04c52703          	lw	a4,76(a0)
800008f4:	00072783          	lw	a5,0(a4)
800008f8:	0047e793          	ori	a5,a5,4
800008fc:	00f72023          	sw	a5,0(a4)
80000900:	00008067          	ret

80000904 <_ZN4PRNG6randomEv>:
80000904:	0000e7b7          	lui	a5,0xe
80000908:	0007a503          	lw	a0,0(a5) # e000 <copy_loop+0xdfdc>
8000090c:	0047a583          	lw	a1,4(a5)
80000910:	00008067          	ret

80000914 <_ZN5TimerC1Em>:
80000914:	000017b7          	lui	a5,0x1
80000918:	c0078793          	addi	a5,a5,-1024 # c00 <copy_loop+0xbdc>
8000091c:	00f585b3          	add	a1,a1,a5
80000920:	00359593          	slli	a1,a1,0x3
80000924:	00b52023          	sw	a1,0(a0)
80000928:	00858793          	addi	a5,a1,8
8000092c:	00f52223          	sw	a5,4(a0)
80000930:	00b52423          	sw	a1,8(a0)
80000934:	01058793          	addi	a5,a1,16
80000938:	00f52623          	sw	a5,12(a0)
8000093c:	00c52703          	lw	a4,12(a0)
80000940:	00072783          	lw	a5,0(a4)
80000944:	ffe7f793          	andi	a5,a5,-2
80000948:	00f72023          	sw	a5,0(a4)
8000094c:	00c52703          	lw	a4,12(a0)
80000950:	00072783          	lw	a5,0(a4)
80000954:	ffb7f793          	andi	a5,a5,-5
80000958:	00f72023          	sw	a5,0(a4)
8000095c:	00000793          	li	a5,0
80000960:	00000813          	li	a6,0
80000964:	00f5a423          	sw	a5,8(a1)
80000968:	0105a623          	sw	a6,12(a1)
8000096c:	00852783          	lw	a5,8(a0)
80000970:	fff00613          	li	a2,-1
80000974:	fff00693          	li	a3,-1
80000978:	00c7a023          	sw	a2,0(a5)
8000097c:	00d7a223          	sw	a3,4(a5)
80000980:	00c52703          	lw	a4,12(a0)
80000984:	00072783          	lw	a5,0(a4)
80000988:	ffd7f793          	andi	a5,a5,-3
8000098c:	00f72023          	sw	a5,0(a4)
80000990:	00008067          	ret

80000994 <_ZN5TimerD1Ev>:
80000994:	00c52703          	lw	a4,12(a0)
80000998:	00072783          	lw	a5,0(a4)
8000099c:	ffe7f793          	andi	a5,a5,-2
800009a0:	00f72023          	sw	a5,0(a4)
800009a4:	00c52703          	lw	a4,12(a0)
800009a8:	00072783          	lw	a5,0(a4)
800009ac:	ffb7f793          	andi	a5,a5,-5
800009b0:	00f72023          	sw	a5,0(a4)
800009b4:	00452783          	lw	a5,4(a0)
800009b8:	00000693          	li	a3,0
800009bc:	00000713          	li	a4,0
800009c0:	00d7a023          	sw	a3,0(a5)
800009c4:	00e7a223          	sw	a4,4(a5)
800009c8:	00852783          	lw	a5,8(a0)
800009cc:	fff00613          	li	a2,-1
800009d0:	fff00693          	li	a3,-1
800009d4:	00c7a023          	sw	a2,0(a5)
800009d8:	00d7a223          	sw	a3,4(a5)
800009dc:	00c52703          	lw	a4,12(a0)
800009e0:	00072783          	lw	a5,0(a4)
800009e4:	ffd7f793          	andi	a5,a5,-3
800009e8:	00f72023          	sw	a5,0(a4)
800009ec:	00008067          	ret

800009f0 <_ZN5Timer4initEyNS_11timerMode_eE>:
800009f0:	00060893          	mv	a7,a2
800009f4:	00c52603          	lw	a2,12(a0)
800009f8:	00062703          	lw	a4,0(a2)
800009fc:	ffb77713          	andi	a4,a4,-5
80000a00:	00e62023          	sw	a4,0(a2)
80000a04:	00852703          	lw	a4,8(a0)
80000a08:	00b72023          	sw	a1,0(a4)
80000a0c:	01172223          	sw	a7,4(a4)
80000a10:	00c52603          	lw	a2,12(a0)
80000a14:	0016f693          	andi	a3,a3,1
80000a18:	00169693          	slli	a3,a3,0x1
80000a1c:	00062703          	lw	a4,0(a2)
80000a20:	ffd77713          	andi	a4,a4,-3
80000a24:	00d76733          	or	a4,a4,a3
80000a28:	00e62023          	sw	a4,0(a2)
80000a2c:	00452783          	lw	a5,4(a0)
80000a30:	00000693          	li	a3,0
80000a34:	00000713          	li	a4,0
80000a38:	00d7a023          	sw	a3,0(a5)
80000a3c:	00e7a223          	sw	a4,4(a5)
80000a40:	00008067          	ret

80000a44 <_ZN5Timer5delayEy>:
80000a44:	00c52703          	lw	a4,12(a0)
80000a48:	00072783          	lw	a5,0(a4)
80000a4c:	ffe7f793          	andi	a5,a5,-2
80000a50:	00f72023          	sw	a5,0(a4)
80000a54:	00452783          	lw	a5,4(a0)
80000a58:	00000693          	li	a3,0
80000a5c:	00000713          	li	a4,0
80000a60:	00d7a023          	sw	a3,0(a5)
80000a64:	00e7a223          	sw	a4,4(a5)
80000a68:	000186b7          	lui	a3,0x18
80000a6c:	6a068693          	addi	a3,a3,1696 # 186a0 <copy_loop+0x1867c>
80000a70:	02d60633          	mul	a2,a2,a3
80000a74:	02d5b7b3          	mulhu	a5,a1,a3
80000a78:	02d58733          	mul	a4,a1,a3
80000a7c:	00f607b3          	add	a5,a2,a5
80000a80:	00852683          	lw	a3,8(a0)
80000a84:	00e6a023          	sw	a4,0(a3)
80000a88:	00f6a223          	sw	a5,4(a3)
80000a8c:	00c52703          	lw	a4,12(a0)
80000a90:	00072783          	lw	a5,0(a4)
80000a94:	0017e793          	ori	a5,a5,1
80000a98:	00f72023          	sw	a5,0(a4)
80000a9c:	00c52703          	lw	a4,12(a0)
80000aa0:	00072783          	lw	a5,0(a4)
80000aa4:	ff77f793          	andi	a5,a5,-9
80000aa8:	00f72023          	sw	a5,0(a4)
80000aac:	00c52783          	lw	a5,12(a0)
80000ab0:	0007a783          	lw	a5,0(a5)
80000ab4:	4837d793          	bexti	a5,a5,0x3
80000ab8:	fe078ae3          	beqz	a5,80000aac <_ZN5Timer5delayEy+0x68>
80000abc:	00008067          	ret

80000ac0 <_ZN9Serial_IO7vprintfEPKcPv>:
80000ac0:	f8010113          	addi	sp,sp,-128
80000ac4:	06112e23          	sw	ra,124(sp)
80000ac8:	06812c23          	sw	s0,120(sp)
80000acc:	00050413          	mv	s0,a0
80000ad0:	00054503          	lbu	a0,0(a0)
80000ad4:	2a0508e3          	beqz	a0,80001584 <_ZN9Serial_IO7vprintfEPKcPv+0xac4>
80000ad8:	06912a23          	sw	s1,116(sp)
80000adc:	07212823          	sw	s2,112(sp)
80000ae0:	07312623          	sw	s3,108(sp)
80000ae4:	07412423          	sw	s4,104(sp)
80000ae8:	07512223          	sw	s5,100(sp)
80000aec:	07612023          	sw	s6,96(sp)
80000af0:	05712e23          	sw	s7,92(sp)
80000af4:	05812c23          	sw	s8,88(sp)
80000af8:	00058b93          	mv	s7,a1
80000afc:	00000b13          	li	s6,0
80000b00:	02500913          	li	s2,37
80000b04:	02e00a13          	li	s4,46
80000b08:	01600993          	li	s3,22
80000b0c:	80003ab7          	lui	s5,0x80003
80000b10:	2050006f          	j	80001514 <_ZN9Serial_IO7vprintfEPKcPv+0xa54>
80000b14:	004b8c13          	addi	s8,s7,4
80000b18:	000bab03          	lw	s6,0(s7)
80000b1c:	41fb5b93          	srai	s7,s6,0x1f
80000b20:	120b4463          	bltz	s6,80000c48 <_ZN9Serial_IO7vprintfEPKcPv+0x188>
80000b24:	00000593          	li	a1,0
80000b28:	ccccd6b7          	lui	a3,0xccccd
80000b2c:	ccd68693          	addi	a3,a3,-819 # cccccccd <_ZN9Serial_IO6statusE+0x4ccca0f1>
80000b30:	ccccd637          	lui	a2,0xccccd
80000b34:	ccc60613          	addi	a2,a2,-820 # cccccccc <_ZN9Serial_IO6statusE+0x4ccca0f0>
80000b38:	00010513          	mv	a0,sp
80000b3c:	017b07b3          	add	a5,s6,s7
80000b40:	0167b733          	sltu	a4,a5,s6
80000b44:	00e787b3          	add	a5,a5,a4
80000b48:	02d7b733          	mulhu	a4,a5,a3
80000b4c:	00275813          	srli	a6,a4,0x2
80000b50:	ffc77713          	andi	a4,a4,-4
80000b54:	01070733          	add	a4,a4,a6
80000b58:	40e787b3          	sub	a5,a5,a4
80000b5c:	40fb07b3          	sub	a5,s6,a5
80000b60:	02d787b3          	mul	a5,a5,a3
80000b64:	0017d793          	srli	a5,a5,0x1
80000b68:	20f7c7b3          	sh2add	a5,a5,a5
80000b6c:	00179793          	slli	a5,a5,0x1
80000b70:	40fb07b3          	sub	a5,s6,a5
80000b74:	03078793          	addi	a5,a5,48
80000b78:	000b0313          	mv	t1,s6
80000b7c:	000b8893          	mv	a7,s7
80000b80:	017b0733          	add	a4,s6,s7
80000b84:	01673833          	sltu	a6,a4,s6
80000b88:	01070733          	add	a4,a4,a6
80000b8c:	02d73833          	mulhu	a6,a4,a3
80000b90:	00285e13          	srli	t3,a6,0x2
80000b94:	ffc87813          	andi	a6,a6,-4
80000b98:	01c80833          	add	a6,a6,t3
80000b9c:	41070733          	sub	a4,a4,a6
80000ba0:	40eb0733          	sub	a4,s6,a4
80000ba4:	00eb3833          	sltu	a6,s6,a4
80000ba8:	410b8833          	sub	a6,s7,a6
80000bac:	02d80833          	mul	a6,a6,a3
80000bb0:	02c70e33          	mul	t3,a4,a2
80000bb4:	01c80833          	add	a6,a6,t3
80000bb8:	02d70e33          	mul	t3,a4,a3
80000bbc:	02d73733          	mulhu	a4,a4,a3
80000bc0:	00e80733          	add	a4,a6,a4
80000bc4:	01f71b13          	slli	s6,a4,0x1f
80000bc8:	001e5813          	srli	a6,t3,0x1
80000bcc:	010b6b33          	or	s6,s6,a6
80000bd0:	00175b93          	srli	s7,a4,0x1
80000bd4:	00058813          	mv	a6,a1
80000bd8:	00158593          	addi	a1,a1,1
80000bdc:	00b50733          	add	a4,a0,a1
80000be0:	fef70fa3          	sb	a5,-1(a4)
80000be4:	f4089ce3          	bnez	a7,80000b3c <_ZN9Serial_IO7vprintfEPKcPv+0x7c>
80000be8:	00089663          	bnez	a7,80000bf4 <_ZN9Serial_IO7vprintfEPKcPv+0x134>
80000bec:	00900793          	li	a5,9
80000bf0:	f467e6e3          	bltu	a5,t1,80000b3c <_ZN9Serial_IO7vprintfEPKcPv+0x7c>
80000bf4:	0015d893          	srli	a7,a1,0x1
80000bf8:	00100793          	li	a5,1
80000bfc:	02b7f863          	bgeu	a5,a1,80000c2c <_ZN9Serial_IO7vprintfEPKcPv+0x16c>
80000c00:	010107b3          	add	a5,sp,a6
80000c04:	00010713          	mv	a4,sp
80000c08:	00078513          	mv	a0,a5
80000c0c:	0007c683          	lbu	a3,0(a5)
80000c10:	00074603          	lbu	a2,0(a4)
80000c14:	00c78023          	sb	a2,0(a5)
80000c18:	00d70023          	sb	a3,0(a4)
80000c1c:	fff78793          	addi	a5,a5,-1
80000c20:	00170713          	addi	a4,a4,1
80000c24:	40f506b3          	sub	a3,a0,a5
80000c28:	ff16e2e3          	bltu	a3,a7,80000c0c <_ZN9Serial_IO7vprintfEPKcPv+0x14c>
80000c2c:	00010513          	mv	a0,sp
80000c30:	cdcff0ef          	jal	8000010c <_ZN9Serial_IO5writeEPKcm>
80000c34:	00000513          	li	a0,0
80000c38:	cb0ff0ef          	jal	800000e8 <_ZN9Serial_IO5writeEc>
80000c3c:	000c0b93          	mv	s7,s8
80000c40:	00048b13          	mv	s6,s1
80000c44:	0c10006f          	j	80001504 <_ZN9Serial_IO7vprintfEPKcPv+0xa44>
80000c48:	016037b3          	snez	a5,s6
80000c4c:	41700bb3          	neg	s7,s7
80000c50:	40fb8bb3          	sub	s7,s7,a5
80000c54:	41600b33          	neg	s6,s6
80000c58:	02d00513          	li	a0,45
80000c5c:	c8cff0ef          	jal	800000e8 <_ZN9Serial_IO5writeEc>
80000c60:	ec5ff06f          	j	80000b24 <_ZN9Serial_IO7vprintfEPKcPv+0x64>
80000c64:	007b8793          	addi	a5,s7,7
80000c68:	ff87f793          	andi	a5,a5,-8
80000c6c:	00878b93          	addi	s7,a5,8
80000c70:	0007a703          	lw	a4,0(a5)
80000c74:	0047a783          	lw	a5,4(a5)
80000c78:	00070b13          	mv	s6,a4
80000c7c:	00078c13          	mv	s8,a5
80000c80:	1207c263          	bltz	a5,80000da4 <_ZN9Serial_IO7vprintfEPKcPv+0x2e4>
80000c84:	00000593          	li	a1,0
80000c88:	ccccd6b7          	lui	a3,0xccccd
80000c8c:	ccd68693          	addi	a3,a3,-819 # cccccccd <_ZN9Serial_IO6statusE+0x4ccca0f1>
80000c90:	ccccd637          	lui	a2,0xccccd
80000c94:	ccc60613          	addi	a2,a2,-820 # cccccccc <_ZN9Serial_IO6statusE+0x4ccca0f0>
80000c98:	00010513          	mv	a0,sp
80000c9c:	018b07b3          	add	a5,s6,s8
80000ca0:	0167b733          	sltu	a4,a5,s6
80000ca4:	00e787b3          	add	a5,a5,a4
80000ca8:	02d7b733          	mulhu	a4,a5,a3
80000cac:	00275813          	srli	a6,a4,0x2
80000cb0:	ffc77713          	andi	a4,a4,-4
80000cb4:	01070733          	add	a4,a4,a6
80000cb8:	40e787b3          	sub	a5,a5,a4
80000cbc:	40fb07b3          	sub	a5,s6,a5
80000cc0:	02d787b3          	mul	a5,a5,a3
80000cc4:	0017d793          	srli	a5,a5,0x1
80000cc8:	20f7c7b3          	sh2add	a5,a5,a5
80000ccc:	00179793          	slli	a5,a5,0x1
80000cd0:	40fb07b3          	sub	a5,s6,a5
80000cd4:	03078793          	addi	a5,a5,48
80000cd8:	000b0313          	mv	t1,s6
80000cdc:	000c0893          	mv	a7,s8
80000ce0:	018b0733          	add	a4,s6,s8
80000ce4:	01673833          	sltu	a6,a4,s6
80000ce8:	01070733          	add	a4,a4,a6
80000cec:	02d73833          	mulhu	a6,a4,a3
80000cf0:	00285e13          	srli	t3,a6,0x2
80000cf4:	ffc87813          	andi	a6,a6,-4
80000cf8:	01c80833          	add	a6,a6,t3
80000cfc:	41070733          	sub	a4,a4,a6
80000d00:	40eb0733          	sub	a4,s6,a4
80000d04:	00eb3833          	sltu	a6,s6,a4
80000d08:	410c0833          	sub	a6,s8,a6
80000d0c:	02d80833          	mul	a6,a6,a3
80000d10:	02c70e33          	mul	t3,a4,a2
80000d14:	01c80833          	add	a6,a6,t3
80000d18:	02d70e33          	mul	t3,a4,a3
80000d1c:	02d73733          	mulhu	a4,a4,a3
80000d20:	00e80733          	add	a4,a6,a4
80000d24:	01f71b13          	slli	s6,a4,0x1f
80000d28:	001e5813          	srli	a6,t3,0x1
80000d2c:	010b6b33          	or	s6,s6,a6
80000d30:	00175c13          	srli	s8,a4,0x1
80000d34:	00058813          	mv	a6,a1
80000d38:	00158593          	addi	a1,a1,1
80000d3c:	00b50733          	add	a4,a0,a1
80000d40:	fef70fa3          	sb	a5,-1(a4)
80000d44:	f4089ce3          	bnez	a7,80000c9c <_ZN9Serial_IO7vprintfEPKcPv+0x1dc>
80000d48:	00089663          	bnez	a7,80000d54 <_ZN9Serial_IO7vprintfEPKcPv+0x294>
80000d4c:	00900793          	li	a5,9
80000d50:	f467e6e3          	bltu	a5,t1,80000c9c <_ZN9Serial_IO7vprintfEPKcPv+0x1dc>
80000d54:	0015d893          	srli	a7,a1,0x1
80000d58:	00100793          	li	a5,1
80000d5c:	02b7f863          	bgeu	a5,a1,80000d8c <_ZN9Serial_IO7vprintfEPKcPv+0x2cc>
80000d60:	010107b3          	add	a5,sp,a6
80000d64:	00010713          	mv	a4,sp
80000d68:	00078513          	mv	a0,a5
80000d6c:	0007c683          	lbu	a3,0(a5)
80000d70:	00074603          	lbu	a2,0(a4)
80000d74:	00c78023          	sb	a2,0(a5)
80000d78:	00d70023          	sb	a3,0(a4)
80000d7c:	fff78793          	addi	a5,a5,-1
80000d80:	00170713          	addi	a4,a4,1
80000d84:	40f506b3          	sub	a3,a0,a5
80000d88:	ff16e2e3          	bltu	a3,a7,80000d6c <_ZN9Serial_IO7vprintfEPKcPv+0x2ac>
80000d8c:	00010513          	mv	a0,sp
80000d90:	b7cff0ef          	jal	8000010c <_ZN9Serial_IO5writeEPKcm>
80000d94:	00000513          	li	a0,0
80000d98:	b50ff0ef          	jal	800000e8 <_ZN9Serial_IO5writeEc>
80000d9c:	00048b13          	mv	s6,s1
80000da0:	7640006f          	j	80001504 <_ZN9Serial_IO7vprintfEPKcPv+0xa44>
80000da4:	00e03c33          	snez	s8,a4
80000da8:	40f007b3          	neg	a5,a5
80000dac:	40e00b33          	neg	s6,a4
80000db0:	41878c33          	sub	s8,a5,s8
80000db4:	02d00513          	li	a0,45
80000db8:	b30ff0ef          	jal	800000e8 <_ZN9Serial_IO5writeEc>
80000dbc:	ec9ff06f          	j	80000c84 <_ZN9Serial_IO7vprintfEPKcPv+0x1c4>
80000dc0:	004b8b13          	addi	s6,s7,4
80000dc4:	000ba683          	lw	a3,0(s7)
80000dc8:	00000893          	li	a7,0
80000dcc:	00000593          	li	a1,0
80000dd0:	ccccd637          	lui	a2,0xccccd
80000dd4:	ccd60613          	addi	a2,a2,-819 # cccccccd <_ZN9Serial_IO6statusE+0x4ccca0f1>
80000dd8:	ccccd537          	lui	a0,0xccccd
80000ddc:	ccc50513          	addi	a0,a0,-820 # cccccccc <_ZN9Serial_IO6statusE+0x4ccca0f0>
80000de0:	00010813          	mv	a6,sp
80000de4:	011687b3          	add	a5,a3,a7
80000de8:	00d7b733          	sltu	a4,a5,a3
80000dec:	00e787b3          	add	a5,a5,a4
80000df0:	02c7b733          	mulhu	a4,a5,a2
80000df4:	00275313          	srli	t1,a4,0x2
80000df8:	ffc77713          	andi	a4,a4,-4
80000dfc:	00670733          	add	a4,a4,t1
80000e00:	40e787b3          	sub	a5,a5,a4
80000e04:	40f687b3          	sub	a5,a3,a5
80000e08:	02c787b3          	mul	a5,a5,a2
80000e0c:	0017d793          	srli	a5,a5,0x1
80000e10:	20f7c7b3          	sh2add	a5,a5,a5
80000e14:	00179793          	slli	a5,a5,0x1
80000e18:	40f687b3          	sub	a5,a3,a5
80000e1c:	03078793          	addi	a5,a5,48
80000e20:	00068e93          	mv	t4,a3
80000e24:	00088e13          	mv	t3,a7
80000e28:	01168733          	add	a4,a3,a7
80000e2c:	00d73333          	sltu	t1,a4,a3
80000e30:	00670733          	add	a4,a4,t1
80000e34:	02c73333          	mulhu	t1,a4,a2
80000e38:	00235f13          	srli	t5,t1,0x2
80000e3c:	ffc37313          	andi	t1,t1,-4
80000e40:	01e30333          	add	t1,t1,t5
80000e44:	40670733          	sub	a4,a4,t1
80000e48:	40e68733          	sub	a4,a3,a4
80000e4c:	00e6b6b3          	sltu	a3,a3,a4
80000e50:	40d886b3          	sub	a3,a7,a3
80000e54:	02c686b3          	mul	a3,a3,a2
80000e58:	02a708b3          	mul	a7,a4,a0
80000e5c:	011686b3          	add	a3,a3,a7
80000e60:	02c708b3          	mul	a7,a4,a2
80000e64:	02c73733          	mulhu	a4,a4,a2
80000e68:	00e68733          	add	a4,a3,a4
80000e6c:	01f71693          	slli	a3,a4,0x1f
80000e70:	0018d893          	srli	a7,a7,0x1
80000e74:	0116e6b3          	or	a3,a3,a7
80000e78:	00175893          	srli	a7,a4,0x1
80000e7c:	00058313          	mv	t1,a1
80000e80:	00158593          	addi	a1,a1,1
80000e84:	00b80733          	add	a4,a6,a1
80000e88:	fef70fa3          	sb	a5,-1(a4)
80000e8c:	f40e1ce3          	bnez	t3,80000de4 <_ZN9Serial_IO7vprintfEPKcPv+0x324>
80000e90:	000e1663          	bnez	t3,80000e9c <_ZN9Serial_IO7vprintfEPKcPv+0x3dc>
80000e94:	00900793          	li	a5,9
80000e98:	f5d7e6e3          	bltu	a5,t4,80000de4 <_ZN9Serial_IO7vprintfEPKcPv+0x324>
80000e9c:	0015d813          	srli	a6,a1,0x1
80000ea0:	00100793          	li	a5,1
80000ea4:	02b7f863          	bgeu	a5,a1,80000ed4 <_ZN9Serial_IO7vprintfEPKcPv+0x414>
80000ea8:	006107b3          	add	a5,sp,t1
80000eac:	00010713          	mv	a4,sp
80000eb0:	00078513          	mv	a0,a5
80000eb4:	0007c683          	lbu	a3,0(a5)
80000eb8:	00074603          	lbu	a2,0(a4)
80000ebc:	00c78023          	sb	a2,0(a5)
80000ec0:	00d70023          	sb	a3,0(a4)
80000ec4:	fff78793          	addi	a5,a5,-1
80000ec8:	00170713          	addi	a4,a4,1
80000ecc:	40f506b3          	sub	a3,a0,a5
80000ed0:	ff06e2e3          	bltu	a3,a6,80000eb4 <_ZN9Serial_IO7vprintfEPKcPv+0x3f4>
80000ed4:	00010513          	mv	a0,sp
80000ed8:	a34ff0ef          	jal	8000010c <_ZN9Serial_IO5writeEPKcm>
80000edc:	00000513          	li	a0,0
80000ee0:	a08ff0ef          	jal	800000e8 <_ZN9Serial_IO5writeEc>
80000ee4:	000b0b93          	mv	s7,s6
80000ee8:	00048b13          	mv	s6,s1
80000eec:	6180006f          	j	80001504 <_ZN9Serial_IO7vprintfEPKcPv+0xa44>
80000ef0:	002b0b13          	addi	s6,s6,2
80000ef4:	016407b3          	add	a5,s0,s6
80000ef8:	0007c783          	lbu	a5,0(a5)
80000efc:	06400713          	li	a4,100
80000f00:	10e78a63          	beq	a5,a4,80001014 <_ZN9Serial_IO7vprintfEPKcPv+0x554>
80000f04:	06800713          	li	a4,104
80000f08:	06e78063          	beq	a5,a4,80000f68 <_ZN9Serial_IO7vprintfEPKcPv+0x4a8>
80000f0c:	06200713          	li	a4,98
80000f10:	1ae79e63          	bne	a5,a4,800010cc <_ZN9Serial_IO7vprintfEPKcPv+0x60c>
80000f14:	004b8493          	addi	s1,s7,4
80000f18:	000bc783          	lbu	a5,0(s7)
80000f1c:	0047d713          	srli	a4,a5,0x4
80000f20:	00f7f793          	andi	a5,a5,15
80000f24:	00900613          	li	a2,9
80000f28:	03078693          	addi	a3,a5,48
80000f2c:	00f67463          	bgeu	a2,a5,80000f34 <_ZN9Serial_IO7vprintfEPKcPv+0x474>
80000f30:	03778693          	addi	a3,a5,55
80000f34:	00900613          	li	a2,9
80000f38:	03770793          	addi	a5,a4,55
80000f3c:	00e66463          	bltu	a2,a4,80000f44 <_ZN9Serial_IO7vprintfEPKcPv+0x484>
80000f40:	03070793          	addi	a5,a4,48
80000f44:	00d100a3          	sb	a3,1(sp)
80000f48:	00f10023          	sb	a5,0(sp)
80000f4c:	00200593          	li	a1,2
80000f50:	00010513          	mv	a0,sp
80000f54:	9b8ff0ef          	jal	8000010c <_ZN9Serial_IO5writeEPKcm>
80000f58:	00000513          	li	a0,0
80000f5c:	98cff0ef          	jal	800000e8 <_ZN9Serial_IO5writeEc>
80000f60:	00048b93          	mv	s7,s1
80000f64:	5a00006f          	j	80001504 <_ZN9Serial_IO7vprintfEPKcPv+0xa44>
80000f68:	004b8493          	addi	s1,s7,4
80000f6c:	000ba703          	lw	a4,0(s7)
80000f70:	01071793          	slli	a5,a4,0x10
80000f74:	0107d793          	srli	a5,a5,0x10
80000f78:	0047d693          	srli	a3,a5,0x4
80000f7c:	00f6f693          	andi	a3,a3,15
80000f80:	00f77713          	andi	a4,a4,15
80000f84:	00900593          	li	a1,9
80000f88:	03070613          	addi	a2,a4,48
80000f8c:	00e5f463          	bgeu	a1,a4,80000f94 <_ZN9Serial_IO7vprintfEPKcPv+0x4d4>
80000f90:	03770613          	addi	a2,a4,55
80000f94:	00c10023          	sb	a2,0(sp)
80000f98:	00900613          	li	a2,9
80000f9c:	03768713          	addi	a4,a3,55
80000fa0:	00d66463          	bltu	a2,a3,80000fa8 <_ZN9Serial_IO7vprintfEPKcPv+0x4e8>
80000fa4:	03068713          	addi	a4,a3,48
80000fa8:	00e100a3          	sb	a4,1(sp)
80000fac:	00c7d713          	srli	a4,a5,0xc
80000fb0:	0087d793          	srli	a5,a5,0x8
80000fb4:	00f7f793          	andi	a5,a5,15
80000fb8:	00900613          	li	a2,9
80000fbc:	03078693          	addi	a3,a5,48
80000fc0:	00f67463          	bgeu	a2,a5,80000fc8 <_ZN9Serial_IO7vprintfEPKcPv+0x508>
80000fc4:	03778693          	addi	a3,a5,55
80000fc8:	00d10123          	sb	a3,2(sp)
80000fcc:	00900693          	li	a3,9
80000fd0:	03770793          	addi	a5,a4,55
80000fd4:	00e6e463          	bltu	a3,a4,80000fdc <_ZN9Serial_IO7vprintfEPKcPv+0x51c>
80000fd8:	03070793          	addi	a5,a4,48
80000fdc:	00014703          	lbu	a4,0(sp)
80000fe0:	00e101a3          	sb	a4,3(sp)
80000fe4:	00f10023          	sb	a5,0(sp)
80000fe8:	00214783          	lbu	a5,2(sp)
80000fec:	00114703          	lbu	a4,1(sp)
80000ff0:	00e10123          	sb	a4,2(sp)
80000ff4:	00f100a3          	sb	a5,1(sp)
80000ff8:	00400593          	li	a1,4
80000ffc:	00010513          	mv	a0,sp
80001000:	90cff0ef          	jal	8000010c <_ZN9Serial_IO5writeEPKcm>
80001004:	00000513          	li	a0,0
80001008:	8e0ff0ef          	jal	800000e8 <_ZN9Serial_IO5writeEc>
8000100c:	00048b93          	mv	s7,s1
80001010:	4f40006f          	j	80001504 <_ZN9Serial_IO7vprintfEPKcPv+0xa44>
80001014:	007b8793          	addi	a5,s7,7
80001018:	ff87f793          	andi	a5,a5,-8
8000101c:	00878b93          	addi	s7,a5,8
80001020:	0007a703          	lw	a4,0(a5)
80001024:	0047a503          	lw	a0,4(a5)
80001028:	00010593          	mv	a1,sp
8000102c:	01010893          	addi	a7,sp,16
80001030:	00010693          	mv	a3,sp
80001034:	00900813          	li	a6,9
80001038:	0300006f          	j	80001068 <_ZN9Serial_IO7vprintfEPKcPv+0x5a8>
8000103c:	03060613          	addi	a2,a2,48
80001040:	00c68023          	sb	a2,0(a3)
80001044:	03c0006f          	j	80001080 <_ZN9Serial_IO7vprintfEPKcPv+0x5c0>
80001048:	03778793          	addi	a5,a5,55
8000104c:	00f680a3          	sb	a5,1(a3)
80001050:	01851793          	slli	a5,a0,0x18
80001054:	00875713          	srli	a4,a4,0x8
80001058:	00e7e733          	or	a4,a5,a4
8000105c:	00855513          	srli	a0,a0,0x8
80001060:	00268693          	addi	a3,a3,2
80001064:	03168663          	beq	a3,a7,80001090 <_ZN9Serial_IO7vprintfEPKcPv+0x5d0>
80001068:	00475793          	srli	a5,a4,0x4
8000106c:	00f7f793          	andi	a5,a5,15
80001070:	00f77613          	andi	a2,a4,15
80001074:	fcc874e3          	bgeu	a6,a2,8000103c <_ZN9Serial_IO7vprintfEPKcPv+0x57c>
80001078:	03760613          	addi	a2,a2,55
8000107c:	00c68023          	sb	a2,0(a3)
80001080:	fcf864e3          	bltu	a6,a5,80001048 <_ZN9Serial_IO7vprintfEPKcPv+0x588>
80001084:	03078793          	addi	a5,a5,48
80001088:	00f680a3          	sb	a5,1(a3)
8000108c:	fc5ff06f          	j	80001050 <_ZN9Serial_IO7vprintfEPKcPv+0x590>
80001090:	00858613          	addi	a2,a1,8
80001094:	00058793          	mv	a5,a1
80001098:	00f5c703          	lbu	a4,15(a1)
8000109c:	0007c683          	lbu	a3,0(a5)
800010a0:	00d587a3          	sb	a3,15(a1)
800010a4:	00e78023          	sb	a4,0(a5)
800010a8:	fff58593          	addi	a1,a1,-1
800010ac:	00178793          	addi	a5,a5,1
800010b0:	fec794e3          	bne	a5,a2,80001098 <_ZN9Serial_IO7vprintfEPKcPv+0x5d8>
800010b4:	01000593          	li	a1,16
800010b8:	00010513          	mv	a0,sp
800010bc:	850ff0ef          	jal	8000010c <_ZN9Serial_IO5writeEPKcm>
800010c0:	00000513          	li	a0,0
800010c4:	824ff0ef          	jal	800000e8 <_ZN9Serial_IO5writeEc>
800010c8:	43c0006f          	j	80001504 <_ZN9Serial_IO7vprintfEPKcPv+0xa44>
800010cc:	004b8b13          	addi	s6,s7,4
800010d0:	000ba583          	lw	a1,0(s7)
800010d4:	00010693          	mv	a3,sp
800010d8:	00810813          	addi	a6,sp,8
800010dc:	00010713          	mv	a4,sp
800010e0:	00900513          	li	a0,9
800010e4:	0240006f          	j	80001108 <_ZN9Serial_IO7vprintfEPKcPv+0x648>
800010e8:	03060613          	addi	a2,a2,48
800010ec:	00c70023          	sb	a2,0(a4)
800010f0:	0300006f          	j	80001120 <_ZN9Serial_IO7vprintfEPKcPv+0x660>
800010f4:	03778793          	addi	a5,a5,55
800010f8:	00f700a3          	sb	a5,1(a4)
800010fc:	0085d593          	srli	a1,a1,0x8
80001100:	00270713          	addi	a4,a4,2
80001104:	02e80663          	beq	a6,a4,80001130 <_ZN9Serial_IO7vprintfEPKcPv+0x670>
80001108:	0045d793          	srli	a5,a1,0x4
8000110c:	00f7f793          	andi	a5,a5,15
80001110:	00f5f613          	andi	a2,a1,15
80001114:	fcc57ae3          	bgeu	a0,a2,800010e8 <_ZN9Serial_IO7vprintfEPKcPv+0x628>
80001118:	03760613          	addi	a2,a2,55
8000111c:	00c70023          	sb	a2,0(a4)
80001120:	fcf56ae3          	bltu	a0,a5,800010f4 <_ZN9Serial_IO7vprintfEPKcPv+0x634>
80001124:	03078793          	addi	a5,a5,48
80001128:	00f700a3          	sb	a5,1(a4)
8000112c:	fd1ff06f          	j	800010fc <_ZN9Serial_IO7vprintfEPKcPv+0x63c>
80001130:	00468593          	addi	a1,a3,4
80001134:	00068793          	mv	a5,a3
80001138:	0076c703          	lbu	a4,7(a3)
8000113c:	0007c603          	lbu	a2,0(a5)
80001140:	00c683a3          	sb	a2,7(a3)
80001144:	00e78023          	sb	a4,0(a5)
80001148:	fff68693          	addi	a3,a3,-1
8000114c:	00178793          	addi	a5,a5,1
80001150:	fef594e3          	bne	a1,a5,80001138 <_ZN9Serial_IO7vprintfEPKcPv+0x678>
80001154:	00800593          	li	a1,8
80001158:	00010513          	mv	a0,sp
8000115c:	fb1fe0ef          	jal	8000010c <_ZN9Serial_IO5writeEPKcm>
80001160:	00000513          	li	a0,0
80001164:	f85fe0ef          	jal	800000e8 <_ZN9Serial_IO5writeEc>
80001168:	000b0b93          	mv	s7,s6
8000116c:	00048b13          	mv	s6,s1
80001170:	3940006f          	j	80001504 <_ZN9Serial_IO7vprintfEPKcPv+0xa44>
80001174:	002b0b13          	addi	s6,s6,2
80001178:	016407b3          	add	a5,s0,s6
8000117c:	0007c783          	lbu	a5,0(a5)
80001180:	06400713          	li	a4,100
80001184:	0ae78063          	beq	a5,a4,80001224 <_ZN9Serial_IO7vprintfEPKcPv+0x764>
80001188:	06800713          	li	a4,104
8000118c:	04e78863          	beq	a5,a4,800011dc <_ZN9Serial_IO7vprintfEPKcPv+0x71c>
80001190:	06200713          	li	a4,98
80001194:	0ee79663          	bne	a5,a4,80001280 <_ZN9Serial_IO7vprintfEPKcPv+0x7c0>
80001198:	004b8493          	addi	s1,s7,4
8000119c:	000bc683          	lbu	a3,0(s7)
800011a0:	00010793          	mv	a5,sp
800011a4:	ff810613          	addi	a2,sp,-8
800011a8:	0016f713          	andi	a4,a3,1
800011ac:	03070713          	addi	a4,a4,48
800011b0:	00e783a3          	sb	a4,7(a5)
800011b4:	0016d693          	srli	a3,a3,0x1
800011b8:	fff78793          	addi	a5,a5,-1
800011bc:	fec796e3          	bne	a5,a2,800011a8 <_ZN9Serial_IO7vprintfEPKcPv+0x6e8>
800011c0:	00800593          	li	a1,8
800011c4:	00010513          	mv	a0,sp
800011c8:	f45fe0ef          	jal	8000010c <_ZN9Serial_IO5writeEPKcm>
800011cc:	00000513          	li	a0,0
800011d0:	f19fe0ef          	jal	800000e8 <_ZN9Serial_IO5writeEc>
800011d4:	00048b93          	mv	s7,s1
800011d8:	32c0006f          	j	80001504 <_ZN9Serial_IO7vprintfEPKcPv+0xa44>
800011dc:	004b8493          	addi	s1,s7,4
800011e0:	000bd683          	lhu	a3,0(s7)
800011e4:	00f10793          	addi	a5,sp,15
800011e8:	00010613          	mv	a2,sp
800011ec:	0016f713          	andi	a4,a3,1
800011f0:	03070713          	addi	a4,a4,48
800011f4:	00e78023          	sb	a4,0(a5)
800011f8:	0016d693          	srli	a3,a3,0x1
800011fc:	00078713          	mv	a4,a5
80001200:	fff78793          	addi	a5,a5,-1
80001204:	fee614e3          	bne	a2,a4,800011ec <_ZN9Serial_IO7vprintfEPKcPv+0x72c>
80001208:	01000593          	li	a1,16
8000120c:	00010513          	mv	a0,sp
80001210:	efdfe0ef          	jal	8000010c <_ZN9Serial_IO5writeEPKcm>
80001214:	00000513          	li	a0,0
80001218:	ed1fe0ef          	jal	800000e8 <_ZN9Serial_IO5writeEc>
8000121c:	00048b93          	mv	s7,s1
80001220:	2e40006f          	j	80001504 <_ZN9Serial_IO7vprintfEPKcPv+0xa44>
80001224:	007b8713          	addi	a4,s7,7
80001228:	ff877713          	andi	a4,a4,-8
8000122c:	00870b93          	addi	s7,a4,8
80001230:	00072783          	lw	a5,0(a4)
80001234:	00472603          	lw	a2,4(a4)
80001238:	03f10713          	addi	a4,sp,63
8000123c:	00010593          	mv	a1,sp
80001240:	0017f693          	andi	a3,a5,1
80001244:	03068693          	addi	a3,a3,48
80001248:	00d70023          	sb	a3,0(a4)
8000124c:	01f61693          	slli	a3,a2,0x1f
80001250:	0017d793          	srli	a5,a5,0x1
80001254:	00f6e7b3          	or	a5,a3,a5
80001258:	00165613          	srli	a2,a2,0x1
8000125c:	00070693          	mv	a3,a4
80001260:	fff70713          	addi	a4,a4,-1
80001264:	fcb69ee3          	bne	a3,a1,80001240 <_ZN9Serial_IO7vprintfEPKcPv+0x780>
80001268:	04000593          	li	a1,64
8000126c:	00010513          	mv	a0,sp
80001270:	e9dfe0ef          	jal	8000010c <_ZN9Serial_IO5writeEPKcm>
80001274:	00000513          	li	a0,0
80001278:	e71fe0ef          	jal	800000e8 <_ZN9Serial_IO5writeEc>
8000127c:	2880006f          	j	80001504 <_ZN9Serial_IO7vprintfEPKcPv+0xa44>
80001280:	004b8b13          	addi	s6,s7,4
80001284:	000ba683          	lw	a3,0(s7)
80001288:	01f10793          	addi	a5,sp,31
8000128c:	00010613          	mv	a2,sp
80001290:	0016f713          	andi	a4,a3,1
80001294:	03070713          	addi	a4,a4,48
80001298:	00e78023          	sb	a4,0(a5)
8000129c:	0016d693          	srli	a3,a3,0x1
800012a0:	00078713          	mv	a4,a5
800012a4:	fff78793          	addi	a5,a5,-1
800012a8:	fec714e3          	bne	a4,a2,80001290 <_ZN9Serial_IO7vprintfEPKcPv+0x7d0>
800012ac:	02000593          	li	a1,32
800012b0:	00010513          	mv	a0,sp
800012b4:	e59fe0ef          	jal	8000010c <_ZN9Serial_IO5writeEPKcm>
800012b8:	00000513          	li	a0,0
800012bc:	e2dfe0ef          	jal	800000e8 <_ZN9Serial_IO5writeEc>
800012c0:	000b0b93          	mv	s7,s6
800012c4:	00048b13          	mv	s6,s1
800012c8:	23c0006f          	j	80001504 <_ZN9Serial_IO7vprintfEPKcPv+0xa44>
800012cc:	002b0b13          	addi	s6,s6,2
800012d0:	016407b3          	add	a5,s0,s6
800012d4:	0007c703          	lbu	a4,0(a5)
800012d8:	fd070793          	addi	a5,a4,-48
800012dc:	0ff7f793          	zext.b	a5,a5
800012e0:	00900693          	li	a3,9
800012e4:	04f6e263          	bltu	a3,a5,80001328 <_ZN9Serial_IO7vprintfEPKcPv+0x868>
800012e8:	00000493          	li	s1,0
800012ec:	2094c4b3          	sh2add	s1,s1,s1
800012f0:	20e4a4b3          	sh1add	s1,s1,a4
800012f4:	fd048493          	addi	s1,s1,-48
800012f8:	001b0b13          	addi	s6,s6,1
800012fc:	016407b3          	add	a5,s0,s6
80001300:	0007c703          	lbu	a4,0(a5)
80001304:	fd070793          	addi	a5,a4,-48
80001308:	0ff7f793          	zext.b	a5,a5
8000130c:	fef6f0e3          	bgeu	a3,a5,800012ec <_ZN9Serial_IO7vprintfEPKcPv+0x82c>
80001310:	06600793          	li	a5,102
80001314:	00f70e63          	beq	a4,a5,80001330 <_ZN9Serial_IO7vprintfEPKcPv+0x870>
80001318:	80003537          	lui	a0,0x80003
8000131c:	8c850513          	addi	a0,a0,-1848 # 800028c8 <__clzsi2+0x4c>
80001320:	e29fe0ef          	jal	80000148 <_ZN9Serial_IO5writeEPKc>
80001324:	1e00006f          	j	80001504 <_ZN9Serial_IO7vprintfEPKcPv+0xa44>
80001328:	00000493          	li	s1,0
8000132c:	fe5ff06f          	j	80001310 <_ZN9Serial_IO7vprintfEPKcPv+0x850>
80001330:	05912a23          	sw	s9,84(sp)
80001334:	05a12823          	sw	s10,80(sp)
80001338:	05b12623          	sw	s11,76(sp)
8000133c:	007b8793          	addi	a5,s7,7
80001340:	ff87f793          	andi	a5,a5,-8
80001344:	00878b93          	addi	s7,a5,8
80001348:	0007a503          	lw	a0,0(a5)
8000134c:	0047a583          	lw	a1,4(a5)
80001350:	244010ef          	jal	80002594 <__truncdfsf2>
80001354:	00050c13          	mv	s8,a0
80001358:	00000793          	li	a5,0
8000135c:	a0f517d3          	flt.s	a5,a0,a5
80001360:	16079e63          	bnez	a5,800014dc <_ZN9Serial_IO7vprintfEPKcPv+0xa1c>
80001364:	c00c1553          	fcvt.w.s	a0,s8,rtz
80001368:	d00577d3          	fcvt.s.w	a5,a0
8000136c:	08fc7c53          	fsub.s	s8,s8,a5
80001370:	00050693          	mv	a3,a0
80001374:	41f55513          	srai	a0,a0,0x1f
80001378:	00000593          	li	a1,0
8000137c:	ccccd637          	lui	a2,0xccccd
80001380:	ccd60613          	addi	a2,a2,-819 # cccccccd <_ZN9Serial_IO6statusE+0x4ccca0f1>
80001384:	ccccd837          	lui	a6,0xccccd
80001388:	ccc80813          	addi	a6,a6,-820 # cccccccc <_ZN9Serial_IO6statusE+0x4ccca0f0>
8000138c:	00010893          	mv	a7,sp
80001390:	00a687b3          	add	a5,a3,a0
80001394:	00d7b733          	sltu	a4,a5,a3
80001398:	00e787b3          	add	a5,a5,a4
8000139c:	02c7b733          	mulhu	a4,a5,a2
800013a0:	00275313          	srli	t1,a4,0x2
800013a4:	ffc77713          	andi	a4,a4,-4
800013a8:	00670733          	add	a4,a4,t1
800013ac:	40e787b3          	sub	a5,a5,a4
800013b0:	40f687b3          	sub	a5,a3,a5
800013b4:	02c787b3          	mul	a5,a5,a2
800013b8:	0017d793          	srli	a5,a5,0x1
800013bc:	20f7c7b3          	sh2add	a5,a5,a5
800013c0:	00179793          	slli	a5,a5,0x1
800013c4:	40f687b3          	sub	a5,a3,a5
800013c8:	03078793          	addi	a5,a5,48
800013cc:	00068e13          	mv	t3,a3
800013d0:	00050313          	mv	t1,a0
800013d4:	00a68733          	add	a4,a3,a0
800013d8:	00d73eb3          	sltu	t4,a4,a3
800013dc:	01d70733          	add	a4,a4,t4
800013e0:	02c73eb3          	mulhu	t4,a4,a2
800013e4:	002edf13          	srli	t5,t4,0x2
800013e8:	ffcefe93          	andi	t4,t4,-4
800013ec:	01ee8eb3          	add	t4,t4,t5
800013f0:	41d70733          	sub	a4,a4,t4
800013f4:	40e68733          	sub	a4,a3,a4
800013f8:	00e6b6b3          	sltu	a3,a3,a4
800013fc:	40d506b3          	sub	a3,a0,a3
80001400:	02c686b3          	mul	a3,a3,a2
80001404:	03070533          	mul	a0,a4,a6
80001408:	00a686b3          	add	a3,a3,a0
8000140c:	02c70533          	mul	a0,a4,a2
80001410:	02c73733          	mulhu	a4,a4,a2
80001414:	00e68733          	add	a4,a3,a4
80001418:	01f71693          	slli	a3,a4,0x1f
8000141c:	00155513          	srli	a0,a0,0x1
80001420:	00a6e6b3          	or	a3,a3,a0
80001424:	00175513          	srli	a0,a4,0x1
80001428:	00058e93          	mv	t4,a1
8000142c:	00158593          	addi	a1,a1,1
80001430:	00b88733          	add	a4,a7,a1
80001434:	fef70fa3          	sb	a5,-1(a4)
80001438:	f4031ce3          	bnez	t1,80001390 <_ZN9Serial_IO7vprintfEPKcPv+0x8d0>
8000143c:	00031663          	bnez	t1,80001448 <_ZN9Serial_IO7vprintfEPKcPv+0x988>
80001440:	00900793          	li	a5,9
80001444:	f5c7e6e3          	bltu	a5,t3,80001390 <_ZN9Serial_IO7vprintfEPKcPv+0x8d0>
80001448:	0015d813          	srli	a6,a1,0x1
8000144c:	00100793          	li	a5,1
80001450:	02b7f863          	bgeu	a5,a1,80001480 <_ZN9Serial_IO7vprintfEPKcPv+0x9c0>
80001454:	01d107b3          	add	a5,sp,t4
80001458:	00010713          	mv	a4,sp
8000145c:	00078513          	mv	a0,a5
80001460:	0007c683          	lbu	a3,0(a5)
80001464:	00074603          	lbu	a2,0(a4)
80001468:	00c78023          	sb	a2,0(a5)
8000146c:	00d70023          	sb	a3,0(a4)
80001470:	fff78793          	addi	a5,a5,-1
80001474:	00170713          	addi	a4,a4,1
80001478:	40f506b3          	sub	a3,a0,a5
8000147c:	ff06e2e3          	bltu	a3,a6,80001460 <_ZN9Serial_IO7vprintfEPKcPv+0x9a0>
80001480:	00010513          	mv	a0,sp
80001484:	c89fe0ef          	jal	8000010c <_ZN9Serial_IO5writeEPKcm>
80001488:	00000513          	li	a0,0
8000148c:	c5dfe0ef          	jal	800000e8 <_ZN9Serial_IO5writeEc>
80001490:	02e00513          	li	a0,46
80001494:	c55fe0ef          	jal	800000e8 <_ZN9Serial_IO5writeEc>
80001498:	0a048e63          	beqz	s1,80001554 <_ZN9Serial_IO7vprintfEPKcPv+0xa94>
8000149c:	00000d13          	li	s10,0
800014a0:	800037b7          	lui	a5,0x80003
800014a4:	ba07ad83          	lw	s11,-1120(a5) # 80002ba0 <__clz_tab+0x104>
800014a8:	11bc7c53          	fmul.s	s8,s8,s11
800014ac:	c00c1cd3          	fcvt.w.s	s9,s8,rtz
800014b0:	030c8513          	addi	a0,s9,48
800014b4:	0ff57513          	zext.b	a0,a0
800014b8:	c31fe0ef          	jal	800000e8 <_ZN9Serial_IO5writeEc>
800014bc:	d00cfcd3          	fcvt.s.w	s9,s9
800014c0:	099c7c53          	fsub.s	s8,s8,s9
800014c4:	001d0d13          	addi	s10,s10,1
800014c8:	fe9d10e3          	bne	s10,s1,800014a8 <_ZN9Serial_IO7vprintfEPKcPv+0x9e8>
800014cc:	05412c83          	lw	s9,84(sp)
800014d0:	05012d03          	lw	s10,80(sp)
800014d4:	04c12d83          	lw	s11,76(sp)
800014d8:	02c0006f          	j	80001504 <_ZN9Serial_IO7vprintfEPKcPv+0xa44>
800014dc:	02d00513          	li	a0,45
800014e0:	c09fe0ef          	jal	800000e8 <_ZN9Serial_IO5writeEc>
800014e4:	218c1c53          	fneg.s	s8,s8
800014e8:	e7dff06f          	j	80001364 <_ZN9Serial_IO7vprintfEPKcPv+0x8a4>
800014ec:	80003537          	lui	a0,0x80003
800014f0:	8c850513          	addi	a0,a0,-1848 # 800028c8 <__clzsi2+0x4c>
800014f4:	c55fe0ef          	jal	80000148 <_ZN9Serial_IO5writeEPKc>
800014f8:	00048b13          	mv	s6,s1
800014fc:	0080006f          	j	80001504 <_ZN9Serial_IO7vprintfEPKcPv+0xa44>
80001500:	be9fe0ef          	jal	800000e8 <_ZN9Serial_IO5writeEc>
80001504:	001b0b13          	addi	s6,s6,1
80001508:	016407b3          	add	a5,s0,s6
8000150c:	0007c503          	lbu	a0,0(a5)
80001510:	04050a63          	beqz	a0,80001564 <_ZN9Serial_IO7vprintfEPKcPv+0xaa4>
80001514:	ff2516e3          	bne	a0,s2,80001500 <_ZN9Serial_IO7vprintfEPKcPv+0xa40>
80001518:	001b0493          	addi	s1,s6,1
8000151c:	009407b3          	add	a5,s0,s1
80001520:	0007c783          	lbu	a5,0(a5)
80001524:	db4784e3          	beq	a5,s4,800012cc <_ZN9Serial_IO7vprintfEPKcPv+0x80c>
80001528:	f9e78713          	addi	a4,a5,-98
8000152c:	0ff77713          	zext.b	a4,a4
80001530:	fae9eee3          	bltu	s3,a4,800014ec <_ZN9Serial_IO7vprintfEPKcPv+0xa2c>
80001534:	f9e78793          	addi	a5,a5,-98
80001538:	0ff7f713          	zext.b	a4,a5
8000153c:	fae9e8e3          	bltu	s3,a4,800014ec <_ZN9Serial_IO7vprintfEPKcPv+0xa2c>
80001540:	00070793          	mv	a5,a4
80001544:	a04a8713          	addi	a4,s5,-1532 # 80002a04 <__clzsi2+0x188>
80001548:	20e7c7b3          	sh2add	a5,a5,a4
8000154c:	0007a783          	lw	a5,0(a5)
80001550:	00078067          	jr	a5
80001554:	05412c83          	lw	s9,84(sp)
80001558:	05012d03          	lw	s10,80(sp)
8000155c:	04c12d83          	lw	s11,76(sp)
80001560:	fa5ff06f          	j	80001504 <_ZN9Serial_IO7vprintfEPKcPv+0xa44>
80001564:	07412483          	lw	s1,116(sp)
80001568:	07012903          	lw	s2,112(sp)
8000156c:	06c12983          	lw	s3,108(sp)
80001570:	06812a03          	lw	s4,104(sp)
80001574:	06412a83          	lw	s5,100(sp)
80001578:	06012b03          	lw	s6,96(sp)
8000157c:	05c12b83          	lw	s7,92(sp)
80001580:	05812c03          	lw	s8,88(sp)
80001584:	07c12083          	lw	ra,124(sp)
80001588:	07812403          	lw	s0,120(sp)
8000158c:	08010113          	addi	sp,sp,128
80001590:	00008067          	ret

80001594 <_ZN9Serial_IO6printfEPKcz>:
80001594:	fc010113          	addi	sp,sp,-64
80001598:	00112e23          	sw	ra,28(sp)
8000159c:	02b12223          	sw	a1,36(sp)
800015a0:	02c12423          	sw	a2,40(sp)
800015a4:	02d12623          	sw	a3,44(sp)
800015a8:	02e12823          	sw	a4,48(sp)
800015ac:	02f12a23          	sw	a5,52(sp)
800015b0:	03012c23          	sw	a6,56(sp)
800015b4:	03112e23          	sw	a7,60(sp)
800015b8:	02410593          	addi	a1,sp,36
800015bc:	00b12623          	sw	a1,12(sp)
800015c0:	d00ff0ef          	jal	80000ac0 <_ZN9Serial_IO7vprintfEPKcPv>
800015c4:	00000513          	li	a0,0
800015c8:	b21fe0ef          	jal	800000e8 <_ZN9Serial_IO5writeEc>
800015cc:	01c12083          	lw	ra,28(sp)
800015d0:	04010113          	addi	sp,sp,64
800015d4:	00008067          	ret

800015d8 <_Z8testWaveN16AudioSynthesizer6wave_eERS_R5Timer>:
800015d8:	fe010113          	addi	sp,sp,-32
800015dc:	00912a23          	sw	s1,20(sp)
800015e0:	00058493          	mv	s1,a1
800015e4:	01412423          	sw	s4,8(sp)
800015e8:	00050593          	mv	a1,a0
800015ec:	00050a13          	mv	s4,a0
800015f0:	00048513          	mv	a0,s1
800015f4:	00112e23          	sw	ra,28(sp)
800015f8:	01212823          	sw	s2,16(sp)
800015fc:	00812c23          	sw	s0,24(sp)
80001600:	00060913          	mv	s2,a2
80001604:	01312623          	sw	s3,12(sp)
80001608:	d85fe0ef          	jal	8000038c <_ZN16AudioSynthesizer10selectWaveENS_6wave_eE>
8000160c:	1b800593          	li	a1,440
80001610:	00048513          	mv	a0,s1
80001614:	e91fe0ef          	jal	800004a4 <_ZN16AudioSynthesizer12setFrequencyEm>
80001618:	000085b7          	lui	a1,0x8
8000161c:	f95fe0ef          	jal	800005b0 <_ZN16AudioSynthesizer7setGainEt>
80001620:	00100593          	li	a1,1
80001624:	00048513          	mv	a0,s1
80001628:	d6dfe0ef          	jal	80000394 <_ZN16AudioSynthesizer7setWaveEb>
8000162c:	e09fe0ef          	jal	80000434 <_ZN16AudioSynthesizer11restartWaveEv>
80001630:	00300793          	li	a5,3
80001634:	14fa0663          	beq	s4,a5,80001780 <_Z8testWaveN16AudioSynthesizer6wave_eERS_R5Timer+0x1a8>
80001638:	000015b7          	lui	a1,0x1
8000163c:	fa058593          	addi	a1,a1,-96 # fa0 <copy_loop+0xf7c>
80001640:	00000613          	li	a2,0
80001644:	00090513          	mv	a0,s2
80001648:	bfcff0ef          	jal	80000a44 <_ZN5Timer5delayEy>
8000164c:	80003537          	lui	a0,0x80003
80001650:	8e050513          	addi	a0,a0,-1824 # 800028e0 <__clzsi2+0x64>
80001654:	000039b7          	lui	s3,0x3
80001658:	af1fe0ef          	jal	80000148 <_ZN9Serial_IO5writeEPKc>
8000165c:	8c898993          	addi	s3,s3,-1848 # 28c8 <copy_loop+0x28a4>
80001660:	1b800413          	li	s0,440
80001664:	00040593          	mv	a1,s0
80001668:	00048513          	mv	a0,s1
8000166c:	e39fe0ef          	jal	800004a4 <_ZN16AudioSynthesizer12setFrequencyEm>
80001670:	00090513          	mv	a0,s2
80001674:	00200593          	li	a1,2
80001678:	00000613          	li	a2,0
8000167c:	00a40413          	addi	s0,s0,10
80001680:	bc4ff0ef          	jal	80000a44 <_ZN5Timer5delayEy>
80001684:	ff3410e3          	bne	s0,s3,80001664 <_Z8testWaveN16AudioSynthesizer6wave_eERS_R5Timer+0x8c>
80001688:	1b800593          	li	a1,440
8000168c:	00048513          	mv	a0,s1
80001690:	e15fe0ef          	jal	800004a4 <_ZN16AudioSynthesizer12setFrequencyEm>
80001694:	00300793          	li	a5,3
80001698:	10fa0063          	beq	s4,a5,80001798 <_Z8testWaveN16AudioSynthesizer6wave_eERS_R5Timer+0x1c0>
8000169c:	80003537          	lui	a0,0x80003
800016a0:	93450513          	addi	a0,a0,-1740 # 80002934 <__clzsi2+0xb8>
800016a4:	000049b7          	lui	s3,0x4
800016a8:	aa1fe0ef          	jal	80000148 <_ZN9Serial_IO5writeEPKc>
800016ac:	18098993          	addi	s3,s3,384 # 4180 <copy_loop+0x415c>
800016b0:	00008437          	lui	s0,0x8
800016b4:	00040593          	mv	a1,s0
800016b8:	00048513          	mv	a0,s1
800016bc:	ff040413          	addi	s0,s0,-16 # 7ff0 <copy_loop+0x7fcc>
800016c0:	ef1fe0ef          	jal	800005b0 <_ZN16AudioSynthesizer7setGainEt>
800016c4:	01041413          	slli	s0,s0,0x10
800016c8:	00090513          	mv	a0,s2
800016cc:	00200593          	li	a1,2
800016d0:	00000613          	li	a2,0
800016d4:	01045413          	srli	s0,s0,0x10
800016d8:	b6cff0ef          	jal	80000a44 <_ZN5Timer5delayEy>
800016dc:	fd341ce3          	bne	s0,s3,800016b4 <_Z8testWaveN16AudioSynthesizer6wave_eERS_R5Timer+0xdc>
800016e0:	80003537          	lui	a0,0x80003
800016e4:	95450513          	addi	a0,a0,-1708 # 80002954 <__clzsi2+0xd8>
800016e8:	a61fe0ef          	jal	80000148 <_ZN9Serial_IO5writeEPKc>
800016ec:	1b800593          	li	a1,440
800016f0:	00048513          	mv	a0,s1
800016f4:	db1fe0ef          	jal	800004a4 <_ZN16AudioSynthesizer12setFrequencyEm>
800016f8:	000085b7          	lui	a1,0x8
800016fc:	eb5fe0ef          	jal	800005b0 <_ZN16AudioSynthesizer7setGainEt>
80001700:	00100593          	li	a1,1
80001704:	f9dfe0ef          	jal	800006a0 <_ZN16AudioSynthesizer7setADSREb>
80001708:	00200413          	li	s0,2
8000170c:	00100913          	li	s2,1
80001710:	00001737          	lui	a4,0x1
80001714:	00070693          	mv	a3,a4
80001718:	bb868693          	addi	a3,a3,-1096
8000171c:	38870713          	addi	a4,a4,904 # 1388 <copy_loop+0x1364>
80001720:	00006837          	lui	a6,0x6
80001724:	000087b7          	lui	a5,0x8
80001728:	06400613          	li	a2,100
8000172c:	3e800593          	li	a1,1000
80001730:	00048513          	mv	a0,s1
80001734:	870ff0ef          	jal	800007a4 <_ZN16AudioSynthesizer13setModulationEmmmmtt>
80001738:	00048513          	mv	a0,s1
8000173c:	804ff0ef          	jal	80000740 <_ZN16AudioSynthesizer10isIdleADSREv>
80001740:	fe050ce3          	beqz	a0,80001738 <_Z8testWaveN16AudioSynthesizer6wave_eERS_R5Timer+0x160>
80001744:	03241a63          	bne	s0,s2,80001778 <_Z8testWaveN16AudioSynthesizer6wave_eERS_R5Timer+0x1a0>
80001748:	00048513          	mv	a0,s1
8000174c:	00000593          	li	a1,0
80001750:	c45fe0ef          	jal	80000394 <_ZN16AudioSynthesizer7setWaveEb>
80001754:	01812403          	lw	s0,24(sp)
80001758:	01c12083          	lw	ra,28(sp)
8000175c:	01412483          	lw	s1,20(sp)
80001760:	01012903          	lw	s2,16(sp)
80001764:	00c12983          	lw	s3,12(sp)
80001768:	00812a03          	lw	s4,8(sp)
8000176c:	00000593          	li	a1,0
80001770:	02010113          	addi	sp,sp,32
80001774:	f2dfe06f          	j	800006a0 <_ZN16AudioSynthesizer7setADSREb>
80001778:	00100413          	li	s0,1
8000177c:	f95ff06f          	j	80001710 <_Z8testWaveN16AudioSynthesizer6wave_eERS_R5Timer+0x138>
80001780:	800037b7          	lui	a5,0x80003
80001784:	ba47a583          	lw	a1,-1116(a5) # 80002ba4 <__clz_tab+0x108>
80001788:	00000613          	li	a2,0
8000178c:	00048513          	mv	a0,s1
80001790:	ed1fe0ef          	jal	80000660 <_ZN16AudioSynthesizer18setSquareDutyCycleEfPNS_7error_eE>
80001794:	ea5ff06f          	j	80001638 <_Z8testWaveN16AudioSynthesizer6wave_eERS_R5Timer+0x60>
80001798:	80003537          	lui	a0,0x80003
8000179c:	90050513          	addi	a0,a0,-1792 # 80002900 <__clzsi2+0x84>
800017a0:	01512223          	sw	s5,4(sp)
800017a4:	01612023          	sw	s6,0(sp)
800017a8:	9a1fe0ef          	jal	80000148 <_ZN9Serial_IO5writeEPKc>
800017ac:	800037b7          	lui	a5,0x80003
800017b0:	ba87ab03          	lw	s6,-1112(a5) # 80002ba8 <__clz_tab+0x10c>
800017b4:	00000993          	li	s3,0
800017b8:	80003ab7          	lui	s5,0x80003
800017bc:	3e800a13          	li	s4,1000
800017c0:	d009f553          	fcvt.s.w	a0,s3
800017c4:	000b0593          	mv	a1,s6
800017c8:	00198993          	addi	s3,s3,1
800017cc:	00d000ef          	jal	80001fd8 <__divsf3>
800017d0:	00050593          	mv	a1,a0
800017d4:	00000613          	li	a2,0
800017d8:	00050413          	mv	s0,a0
800017dc:	00048513          	mv	a0,s1
800017e0:	e81fe0ef          	jal	80000660 <_ZN16AudioSynthesizer18setSquareDutyCycleEfPNS_7error_eE>
800017e4:	00040513          	mv	a0,s0
800017e8:	491000ef          	jal	80002478 <__extendsfdf2>
800017ec:	00050613          	mv	a2,a0
800017f0:	00058693          	mv	a3,a1
800017f4:	920a8513          	addi	a0,s5,-1760 # 80002920 <__clzsi2+0xa4>
800017f8:	d9dff0ef          	jal	80001594 <_ZN9Serial_IO6printfEPKcz>
800017fc:	00090513          	mv	a0,s2
80001800:	00200593          	li	a1,2
80001804:	00000613          	li	a2,0
80001808:	a3cff0ef          	jal	80000a44 <_ZN5Timer5delayEy>
8000180c:	fb499ae3          	bne	s3,s4,800017c0 <_Z8testWaveN16AudioSynthesizer6wave_eERS_R5Timer+0x1e8>
80001810:	00412a83          	lw	s5,4(sp)
80001814:	00012b03          	lw	s6,0(sp)
80001818:	e85ff06f          	j	8000169c <_Z8testWaveN16AudioSynthesizer6wave_eERS_R5Timer+0xc4>

8000181c <audio_synthesizer>:
8000181c:	f4010113          	addi	sp,sp,-192
80001820:	00010513          	mv	a0,sp
80001824:	00000593          	li	a1,0
80001828:	0a112e23          	sw	ra,188(sp)
8000182c:	0a812c23          	sw	s0,184(sp)
80001830:	0a912a23          	sw	s1,180(sp)
80001834:	0b212823          	sw	s2,176(sp)
80001838:	0b312623          	sw	s3,172(sp)
8000183c:	0b412423          	sw	s4,168(sp)
80001840:	8d4ff0ef          	jal	80000914 <_ZN5TimerC1Em>
80001844:	0001c537          	lui	a0,0x1c
80001848:	00300713          	li	a4,3
8000184c:	00000693          	li	a3,0
80001850:	00000613          	li	a2,0
80001854:	00100593          	li	a1,1
80001858:	20050513          	addi	a0,a0,512 # 1c200 <copy_loop+0x1c1dc>
8000185c:	fa4fe0ef          	jal	80000000 <_ZN9Serial_IO4initEmbN4UART12parityMode_eENS0_10stopBits_eENS0_12dataLenght_eE>
80001860:	01010513          	addi	a0,sp,16
80001864:	921fe0ef          	jal	80000184 <_ZN16AudioSynthesizerC1Ev>
80001868:	00100693          	li	a3,1
8000186c:	fff00593          	li	a1,-1
80001870:	fff00613          	li	a2,-1
80001874:	00010513          	mv	a0,sp
80001878:	978ff0ef          	jal	800009f0 <_ZN5Timer4initEyNS_11timerMode_eE>
8000187c:	80003537          	lui	a0,0x80003
80001880:	96c50513          	addi	a0,a0,-1684 # 8000296c <__clzsi2+0xf0>
80001884:	8c5fe0ef          	jal	80000148 <_ZN9Serial_IO5writeEPKc>
80001888:	00010613          	mv	a2,sp
8000188c:	01010593          	addi	a1,sp,16
80001890:	00100513          	li	a0,1
80001894:	d45ff0ef          	jal	800015d8 <_Z8testWaveN16AudioSynthesizer6wave_eERS_R5Timer>
80001898:	80003537          	lui	a0,0x80003
8000189c:	98050513          	addi	a0,a0,-1664 # 80002980 <__clzsi2+0x104>
800018a0:	8a9fe0ef          	jal	80000148 <_ZN9Serial_IO5writeEPKc>
800018a4:	00010613          	mv	a2,sp
800018a8:	01010593          	addi	a1,sp,16
800018ac:	00200513          	li	a0,2
800018b0:	d29ff0ef          	jal	800015d8 <_Z8testWaveN16AudioSynthesizer6wave_eERS_R5Timer>
800018b4:	80003537          	lui	a0,0x80003
800018b8:	99850513          	addi	a0,a0,-1640 # 80002998 <__clzsi2+0x11c>
800018bc:	88dfe0ef          	jal	80000148 <_ZN9Serial_IO5writeEPKc>
800018c0:	00010613          	mv	a2,sp
800018c4:	01010593          	addi	a1,sp,16
800018c8:	00300513          	li	a0,3
800018cc:	d0dff0ef          	jal	800015d8 <_Z8testWaveN16AudioSynthesizer6wave_eERS_R5Timer>
800018d0:	00000413          	li	s0,0
800018d4:	40000493          	li	s1,1024
800018d8:	00541593          	slli	a1,s0,0x5
800018dc:	01059593          	slli	a1,a1,0x10
800018e0:	00040613          	mv	a2,s0
800018e4:	0105d593          	srli	a1,a1,0x10
800018e8:	00000693          	li	a3,0
800018ec:	01010513          	addi	a0,sp,16
800018f0:	00140413          	addi	s0,s0,1
800018f4:	d89fe0ef          	jal	8000067c <_ZN16AudioSynthesizer13setCustomWaveEtmPNS_7error_eE>
800018f8:	fe9410e3          	bne	s0,s1,800018d8 <audio_synthesizer+0xbc>
800018fc:	80003537          	lui	a0,0x80003
80001900:	9ac50513          	addi	a0,a0,-1620 # 800029ac <__clzsi2+0x130>
80001904:	845fe0ef          	jal	80000148 <_ZN9Serial_IO5writeEPKc>
80001908:	00010613          	mv	a2,sp
8000190c:	01010593          	addi	a1,sp,16
80001910:	00000513          	li	a0,0
80001914:	cc5ff0ef          	jal	800015d8 <_Z8testWaveN16AudioSynthesizer6wave_eERS_R5Timer>
80001918:	800037b7          	lui	a5,0x80003
8000191c:	ba47aa03          	lw	s4,-1116(a5) # 80002ba4 <__clz_tab+0x108>
80001920:	00a00913          	li	s2,10
80001924:	800039b7          	lui	s3,0x80003
80001928:	15e00493          	li	s1,350
8000192c:	9c098513          	addi	a0,s3,-1600 # 800029c0 <__clzsi2+0x144>
80001930:	819fe0ef          	jal	80000148 <_ZN9Serial_IO5writeEPKc>
80001934:	00300593          	li	a1,3
80001938:	01010513          	addi	a0,sp,16
8000193c:	a51fe0ef          	jal	8000038c <_ZN16AudioSynthesizer10selectWaveENS_6wave_eE>
80001940:	00100593          	li	a1,1
80001944:	01010513          	addi	a0,sp,16
80001948:	a4dfe0ef          	jal	80000394 <_ZN16AudioSynthesizer7setWaveEb>
8000194c:	00000613          	li	a2,0
80001950:	000a0593          	mv	a1,s4
80001954:	d0dfe0ef          	jal	80000660 <_ZN16AudioSynthesizer18setSquareDutyCycleEfPNS_7error_eE>
80001958:	32000593          	li	a1,800
8000195c:	b49fe0ef          	jal	800004a4 <_ZN16AudioSynthesizer12setFrequencyEm>
80001960:	000085b7          	lui	a1,0x8
80001964:	c4dfe0ef          	jal	800005b0 <_ZN16AudioSynthesizer7setGainEt>
80001968:	32000413          	li	s0,800
8000196c:	00040593          	mv	a1,s0
80001970:	01010513          	addi	a0,sp,16
80001974:	b31fe0ef          	jal	800004a4 <_ZN16AudioSynthesizer12setFrequencyEm>
80001978:	00010513          	mv	a0,sp
8000197c:	01400593          	li	a1,20
80001980:	00000613          	li	a2,0
80001984:	fce40413          	addi	s0,s0,-50
80001988:	8bcff0ef          	jal	80000a44 <_ZN5Timer5delayEy>
8000198c:	fe9410e3          	bne	s0,s1,8000196c <audio_synthesizer+0x150>
80001990:	00000593          	li	a1,0
80001994:	01010513          	addi	a0,sp,16
80001998:	9fdfe0ef          	jal	80000394 <_ZN16AudioSynthesizer7setWaveEb>
8000199c:	00010513          	mv	a0,sp
800019a0:	3e800593          	li	a1,1000
800019a4:	00000613          	li	a2,0
800019a8:	fff90913          	addi	s2,s2,-1
800019ac:	898ff0ef          	jal	80000a44 <_ZN5Timer5delayEy>
800019b0:	f6091ee3          	bnez	s2,8000192c <audio_synthesizer+0x110>
800019b4:	800037b7          	lui	a5,0x80003
800019b8:	bac7aa03          	lw	s4,-1108(a5) # 80002bac <__clz_tab+0x110>
800019bc:	00a00913          	li	s2,10
800019c0:	800039b7          	lui	s3,0x80003
800019c4:	27100493          	li	s1,625
800019c8:	9d098513          	addi	a0,s3,-1584 # 800029d0 <__clzsi2+0x154>
800019cc:	f7cfe0ef          	jal	80000148 <_ZN9Serial_IO5writeEPKc>
800019d0:	00300593          	li	a1,3
800019d4:	01010513          	addi	a0,sp,16
800019d8:	9b5fe0ef          	jal	8000038c <_ZN16AudioSynthesizer10selectWaveENS_6wave_eE>
800019dc:	00100593          	li	a1,1
800019e0:	01010513          	addi	a0,sp,16
800019e4:	9b1fe0ef          	jal	80000394 <_ZN16AudioSynthesizer7setWaveEb>
800019e8:	000a0593          	mv	a1,s4
800019ec:	00000613          	li	a2,0
800019f0:	c71fe0ef          	jal	80000660 <_ZN16AudioSynthesizer18setSquareDutyCycleEfPNS_7error_eE>
800019f4:	000085b7          	lui	a1,0x8
800019f8:	bb9fe0ef          	jal	800005b0 <_ZN16AudioSynthesizer7setGainEt>
800019fc:	0c800413          	li	s0,200
80001a00:	00040593          	mv	a1,s0
80001a04:	01010513          	addi	a0,sp,16
80001a08:	a9dfe0ef          	jal	800004a4 <_ZN16AudioSynthesizer12setFrequencyEm>
80001a0c:	00010513          	mv	a0,sp
80001a10:	01400593          	li	a1,20
80001a14:	00000613          	li	a2,0
80001a18:	01940413          	addi	s0,s0,25
80001a1c:	828ff0ef          	jal	80000a44 <_ZN5Timer5delayEy>
80001a20:	fe9410e3          	bne	s0,s1,80001a00 <audio_synthesizer+0x1e4>
80001a24:	00000593          	li	a1,0
80001a28:	01010513          	addi	a0,sp,16
80001a2c:	969fe0ef          	jal	80000394 <_ZN16AudioSynthesizer7setWaveEb>
80001a30:	00010513          	mv	a0,sp
80001a34:	3e800593          	li	a1,1000
80001a38:	00000613          	li	a2,0
80001a3c:	fff90913          	addi	s2,s2,-1
80001a40:	804ff0ef          	jal	80000a44 <_ZN5Timer5delayEy>
80001a44:	f80912e3          	bnez	s2,800019c8 <audio_synthesizer+0x1ac>
80001a48:	00a00413          	li	s0,10
80001a4c:	800034b7          	lui	s1,0x80003
80001a50:	9e048513          	addi	a0,s1,-1568 # 800029e0 <__clzsi2+0x164>
80001a54:	ef4fe0ef          	jal	80000148 <_ZN9Serial_IO5writeEPKc>
80001a58:	00200593          	li	a1,2
80001a5c:	01010513          	addi	a0,sp,16
80001a60:	92dfe0ef          	jal	8000038c <_ZN16AudioSynthesizer10selectWaveENS_6wave_eE>
80001a64:	00100593          	li	a1,1
80001a68:	01010513          	addi	a0,sp,16
80001a6c:	929fe0ef          	jal	80000394 <_ZN16AudioSynthesizer7setWaveEb>
80001a70:	06e00593          	li	a1,110
80001a74:	a31fe0ef          	jal	800004a4 <_ZN16AudioSynthesizer12setFrequencyEm>
80001a78:	000085b7          	lui	a1,0x8
80001a7c:	b35fe0ef          	jal	800005b0 <_ZN16AudioSynthesizer7setGainEt>
80001a80:	00000613          	li	a2,0
80001a84:	1f400593          	li	a1,500
80001a88:	00010513          	mv	a0,sp
80001a8c:	fb9fe0ef          	jal	80000a44 <_ZN5Timer5delayEy>
80001a90:	00000593          	li	a1,0
80001a94:	01010513          	addi	a0,sp,16
80001a98:	8fdfe0ef          	jal	80000394 <_ZN16AudioSynthesizer7setWaveEb>
80001a9c:	00010513          	mv	a0,sp
80001aa0:	3e800593          	li	a1,1000
80001aa4:	00000613          	li	a2,0
80001aa8:	fff40413          	addi	s0,s0,-1
80001aac:	f99fe0ef          	jal	80000a44 <_ZN5Timer5delayEy>
80001ab0:	fa0410e3          	bnez	s0,80001a50 <audio_synthesizer+0x234>
80001ab4:	000084b7          	lui	s1,0x8
80001ab8:	fff48493          	addi	s1,s1,-1 # 7fff <copy_loop+0x7fdb>
80001abc:	00a00993          	li	s3,10
80001ac0:	80003a37          	lui	s4,0x80003
80001ac4:	40000913          	li	s2,1024
80001ac8:	9f0a0513          	addi	a0,s4,-1552 # 800029f0 <__clzsi2+0x174>
80001acc:	e7cfe0ef          	jal	80000148 <_ZN9Serial_IO5writeEPKc>
80001ad0:	00000413          	li	s0,0
80001ad4:	e31fe0ef          	jal	80000904 <_ZN4PRNG6randomEv>
80001ad8:	009575b3          	and	a1,a0,s1
80001adc:	01059593          	slli	a1,a1,0x10
80001ae0:	00040613          	mv	a2,s0
80001ae4:	0105d593          	srli	a1,a1,0x10
80001ae8:	01010513          	addi	a0,sp,16
80001aec:	00000693          	li	a3,0
80001af0:	00140413          	addi	s0,s0,1
80001af4:	b89fe0ef          	jal	8000067c <_ZN16AudioSynthesizer13setCustomWaveEtmPNS_7error_eE>
80001af8:	fd241ee3          	bne	s0,s2,80001ad4 <audio_synthesizer+0x2b8>
80001afc:	00000593          	li	a1,0
80001b00:	01010513          	addi	a0,sp,16
80001b04:	889fe0ef          	jal	8000038c <_ZN16AudioSynthesizer10selectWaveENS_6wave_eE>
80001b08:	00100593          	li	a1,1
80001b0c:	01010513          	addi	a0,sp,16
80001b10:	885fe0ef          	jal	80000394 <_ZN16AudioSynthesizer7setWaveEb>
80001b14:	000085b7          	lui	a1,0x8
80001b18:	a99fe0ef          	jal	800005b0 <_ZN16AudioSynthesizer7setGainEt>
80001b1c:	3e800593          	li	a1,1000
80001b20:	985fe0ef          	jal	800004a4 <_ZN16AudioSynthesizer12setFrequencyEm>
80001b24:	00100593          	li	a1,1
80001b28:	01010513          	addi	a0,sp,16
80001b2c:	b75fe0ef          	jal	800006a0 <_ZN16AudioSynthesizer7setADSREb>
80001b30:	00006837          	lui	a6,0x6
80001b34:	000087b7          	lui	a5,0x8
80001b38:	0c800713          	li	a4,200
80001b3c:	3e800693          	li	a3,1000
80001b40:	06400613          	li	a2,100
80001b44:	03200593          	li	a1,50
80001b48:	c5dfe0ef          	jal	800007a4 <_ZN16AudioSynthesizer13setModulationEmmmmtt>
80001b4c:	01010513          	addi	a0,sp,16
80001b50:	bf1fe0ef          	jal	80000740 <_ZN16AudioSynthesizer10isIdleADSREv>
80001b54:	fe050ce3          	beqz	a0,80001b4c <audio_synthesizer+0x330>
80001b58:	00000593          	li	a1,0
80001b5c:	01010513          	addi	a0,sp,16
80001b60:	b41fe0ef          	jal	800006a0 <_ZN16AudioSynthesizer7setADSREb>
80001b64:	00000593          	li	a1,0
80001b68:	82dfe0ef          	jal	80000394 <_ZN16AudioSynthesizer7setWaveEb>
80001b6c:	00010513          	mv	a0,sp
80001b70:	3e800593          	li	a1,1000
80001b74:	00000613          	li	a2,0
80001b78:	fff98993          	addi	s3,s3,-1
80001b7c:	ec9fe0ef          	jal	80000a44 <_ZN5Timer5delayEy>
80001b80:	f40994e3          	bnez	s3,80001ac8 <audio_synthesizer+0x2ac>
80001b84:	00010513          	mv	a0,sp
80001b88:	e0dfe0ef          	jal	80000994 <_ZN5TimerD1Ev>
80001b8c:	0bc12083          	lw	ra,188(sp)
80001b90:	0b812403          	lw	s0,184(sp)
80001b94:	0b412483          	lw	s1,180(sp)
80001b98:	0b012903          	lw	s2,176(sp)
80001b9c:	0ac12983          	lw	s3,172(sp)
80001ba0:	0a812a03          	lw	s4,168(sp)
80001ba4:	0c010113          	addi	sp,sp,192
80001ba8:	00008067          	ret

80001bac <__udivdi3>:
80001bac:	00050893          	mv	a7,a0
80001bb0:	00058313          	mv	t1,a1
80001bb4:	00060713          	mv	a4,a2
80001bb8:	00050813          	mv	a6,a0
80001bbc:	00058793          	mv	a5,a1
80001bc0:	28069263          	bnez	a3,80001e44 <__udivdi3+0x298>
80001bc4:	800035b7          	lui	a1,0x80003
80001bc8:	a9c58593          	addi	a1,a1,-1380 # 80002a9c <__clz_tab>
80001bcc:	0ec37663          	bgeu	t1,a2,80001cb8 <__udivdi3+0x10c>
80001bd0:	000106b7          	lui	a3,0x10
80001bd4:	0cd67863          	bgeu	a2,a3,80001ca4 <__udivdi3+0xf8>
80001bd8:	10063693          	sltiu	a3,a2,256
80001bdc:	0016b693          	seqz	a3,a3
80001be0:	00369693          	slli	a3,a3,0x3
80001be4:	00d65533          	srl	a0,a2,a3
80001be8:	00a585b3          	add	a1,a1,a0
80001bec:	0005c583          	lbu	a1,0(a1)
80001bf0:	02000513          	li	a0,32
80001bf4:	00d586b3          	add	a3,a1,a3
80001bf8:	40d505b3          	sub	a1,a0,a3
80001bfc:	00d50c63          	beq	a0,a3,80001c14 <__udivdi3+0x68>
80001c00:	00b317b3          	sll	a5,t1,a1
80001c04:	00d8d6b3          	srl	a3,a7,a3
80001c08:	00b61733          	sll	a4,a2,a1
80001c0c:	00f6e7b3          	or	a5,a3,a5
80001c10:	00b89833          	sll	a6,a7,a1
80001c14:	01075593          	srli	a1,a4,0x10
80001c18:	02b7d333          	divu	t1,a5,a1
80001c1c:	01071613          	slli	a2,a4,0x10
80001c20:	01065613          	srli	a2,a2,0x10
80001c24:	02b7f7b3          	remu	a5,a5,a1
80001c28:	00030513          	mv	a0,t1
80001c2c:	026608b3          	mul	a7,a2,t1
80001c30:	01079693          	slli	a3,a5,0x10
80001c34:	01085793          	srli	a5,a6,0x10
80001c38:	00d7e7b3          	or	a5,a5,a3
80001c3c:	0117fe63          	bgeu	a5,a7,80001c58 <__udivdi3+0xac>
80001c40:	00f707b3          	add	a5,a4,a5
80001c44:	fff30513          	addi	a0,t1,-1
80001c48:	00e7e863          	bltu	a5,a4,80001c58 <__udivdi3+0xac>
80001c4c:	0117f663          	bgeu	a5,a7,80001c58 <__udivdi3+0xac>
80001c50:	ffe30513          	addi	a0,t1,-2
80001c54:	00e787b3          	add	a5,a5,a4
80001c58:	411787b3          	sub	a5,a5,a7
80001c5c:	02b7d8b3          	divu	a7,a5,a1
80001c60:	01081813          	slli	a6,a6,0x10
80001c64:	01085813          	srli	a6,a6,0x10
80001c68:	02b7f7b3          	remu	a5,a5,a1
80001c6c:	031606b3          	mul	a3,a2,a7
80001c70:	01079793          	slli	a5,a5,0x10
80001c74:	00f86833          	or	a6,a6,a5
80001c78:	00088793          	mv	a5,a7
80001c7c:	00d87c63          	bgeu	a6,a3,80001c94 <__udivdi3+0xe8>
80001c80:	01070833          	add	a6,a4,a6
80001c84:	fff88793          	addi	a5,a7,-1
80001c88:	00e86663          	bltu	a6,a4,80001c94 <__udivdi3+0xe8>
80001c8c:	00d87463          	bgeu	a6,a3,80001c94 <__udivdi3+0xe8>
80001c90:	ffe88793          	addi	a5,a7,-2
80001c94:	01051513          	slli	a0,a0,0x10
80001c98:	00f56533          	or	a0,a0,a5
80001c9c:	00000593          	li	a1,0
80001ca0:	00008067          	ret
80001ca4:	01000537          	lui	a0,0x1000
80001ca8:	01800693          	li	a3,24
80001cac:	f2a67ce3          	bgeu	a2,a0,80001be4 <__udivdi3+0x38>
80001cb0:	01000693          	li	a3,16
80001cb4:	f31ff06f          	j	80001be4 <__udivdi3+0x38>
80001cb8:	00000693          	li	a3,0
80001cbc:	00060c63          	beqz	a2,80001cd4 <__udivdi3+0x128>
80001cc0:	000107b7          	lui	a5,0x10
80001cc4:	0cf67063          	bgeu	a2,a5,80001d84 <__udivdi3+0x1d8>
80001cc8:	10063693          	sltiu	a3,a2,256
80001ccc:	0016b693          	seqz	a3,a3
80001cd0:	00369693          	slli	a3,a3,0x3
80001cd4:	00d657b3          	srl	a5,a2,a3
80001cd8:	00f585b3          	add	a1,a1,a5
80001cdc:	0005c783          	lbu	a5,0(a1)
80001ce0:	00d787b3          	add	a5,a5,a3
80001ce4:	02000693          	li	a3,32
80001ce8:	40f685b3          	sub	a1,a3,a5
80001cec:	0af69663          	bne	a3,a5,80001d98 <__udivdi3+0x1ec>
80001cf0:	40c307b3          	sub	a5,t1,a2
80001cf4:	00100593          	li	a1,1
80001cf8:	01075893          	srli	a7,a4,0x10
80001cfc:	0317de33          	divu	t3,a5,a7
80001d00:	01071613          	slli	a2,a4,0x10
80001d04:	01065613          	srli	a2,a2,0x10
80001d08:	01085693          	srli	a3,a6,0x10
80001d0c:	0317f7b3          	remu	a5,a5,a7
80001d10:	000e0513          	mv	a0,t3
80001d14:	03c60333          	mul	t1,a2,t3
80001d18:	01079793          	slli	a5,a5,0x10
80001d1c:	00f6e7b3          	or	a5,a3,a5
80001d20:	0067fe63          	bgeu	a5,t1,80001d3c <__udivdi3+0x190>
80001d24:	00f707b3          	add	a5,a4,a5
80001d28:	fffe0513          	addi	a0,t3,-1
80001d2c:	00e7e863          	bltu	a5,a4,80001d3c <__udivdi3+0x190>
80001d30:	0067f663          	bgeu	a5,t1,80001d3c <__udivdi3+0x190>
80001d34:	ffee0513          	addi	a0,t3,-2
80001d38:	00e787b3          	add	a5,a5,a4
80001d3c:	406787b3          	sub	a5,a5,t1
80001d40:	0317d333          	divu	t1,a5,a7
80001d44:	01081813          	slli	a6,a6,0x10
80001d48:	01085813          	srli	a6,a6,0x10
80001d4c:	0317f7b3          	remu	a5,a5,a7
80001d50:	026606b3          	mul	a3,a2,t1
80001d54:	01079793          	slli	a5,a5,0x10
80001d58:	00f86833          	or	a6,a6,a5
80001d5c:	00030793          	mv	a5,t1
80001d60:	00d87c63          	bgeu	a6,a3,80001d78 <__udivdi3+0x1cc>
80001d64:	01070833          	add	a6,a4,a6
80001d68:	fff30793          	addi	a5,t1,-1
80001d6c:	00e86663          	bltu	a6,a4,80001d78 <__udivdi3+0x1cc>
80001d70:	00d87463          	bgeu	a6,a3,80001d78 <__udivdi3+0x1cc>
80001d74:	ffe30793          	addi	a5,t1,-2
80001d78:	01051513          	slli	a0,a0,0x10
80001d7c:	00f56533          	or	a0,a0,a5
80001d80:	00008067          	ret
80001d84:	010007b7          	lui	a5,0x1000
80001d88:	01800693          	li	a3,24
80001d8c:	f4f674e3          	bgeu	a2,a5,80001cd4 <__udivdi3+0x128>
80001d90:	01000693          	li	a3,16
80001d94:	f41ff06f          	j	80001cd4 <__udivdi3+0x128>
80001d98:	00b61733          	sll	a4,a2,a1
80001d9c:	00f356b3          	srl	a3,t1,a5
80001da0:	01075513          	srli	a0,a4,0x10
80001da4:	00b31333          	sll	t1,t1,a1
80001da8:	00f8d7b3          	srl	a5,a7,a5
80001dac:	0067e7b3          	or	a5,a5,t1
80001db0:	02a6d333          	divu	t1,a3,a0
80001db4:	01071613          	slli	a2,a4,0x10
80001db8:	01065613          	srli	a2,a2,0x10
80001dbc:	00b89833          	sll	a6,a7,a1
80001dc0:	02a6f6b3          	remu	a3,a3,a0
80001dc4:	026608b3          	mul	a7,a2,t1
80001dc8:	01069593          	slli	a1,a3,0x10
80001dcc:	0107d693          	srli	a3,a5,0x10
80001dd0:	00b6e6b3          	or	a3,a3,a1
80001dd4:	00030593          	mv	a1,t1
80001dd8:	0116fe63          	bgeu	a3,a7,80001df4 <__udivdi3+0x248>
80001ddc:	00d706b3          	add	a3,a4,a3
80001de0:	fff30593          	addi	a1,t1,-1
80001de4:	00e6e863          	bltu	a3,a4,80001df4 <__udivdi3+0x248>
80001de8:	0116f663          	bgeu	a3,a7,80001df4 <__udivdi3+0x248>
80001dec:	ffe30593          	addi	a1,t1,-2
80001df0:	00e686b3          	add	a3,a3,a4
80001df4:	411686b3          	sub	a3,a3,a7
80001df8:	02a6d8b3          	divu	a7,a3,a0
80001dfc:	01079793          	slli	a5,a5,0x10
80001e00:	0107d793          	srli	a5,a5,0x10
80001e04:	02a6f6b3          	remu	a3,a3,a0
80001e08:	03160633          	mul	a2,a2,a7
80001e0c:	01069693          	slli	a3,a3,0x10
80001e10:	00d7e7b3          	or	a5,a5,a3
80001e14:	00088693          	mv	a3,a7
80001e18:	00c7fe63          	bgeu	a5,a2,80001e34 <__udivdi3+0x288>
80001e1c:	00f707b3          	add	a5,a4,a5
80001e20:	fff88693          	addi	a3,a7,-1
80001e24:	00e7e863          	bltu	a5,a4,80001e34 <__udivdi3+0x288>
80001e28:	00c7f663          	bgeu	a5,a2,80001e34 <__udivdi3+0x288>
80001e2c:	ffe88693          	addi	a3,a7,-2
80001e30:	00e787b3          	add	a5,a5,a4
80001e34:	01059593          	slli	a1,a1,0x10
80001e38:	40c787b3          	sub	a5,a5,a2
80001e3c:	00d5e5b3          	or	a1,a1,a3
80001e40:	eb9ff06f          	j	80001cf8 <__udivdi3+0x14c>
80001e44:	18d5e463          	bltu	a1,a3,80001fcc <__udivdi3+0x420>
80001e48:	000107b7          	lui	a5,0x10
80001e4c:	04f6f463          	bgeu	a3,a5,80001e94 <__udivdi3+0x2e8>
80001e50:	1006b793          	sltiu	a5,a3,256
80001e54:	0017b793          	seqz	a5,a5
80001e58:	00379793          	slli	a5,a5,0x3
80001e5c:	80003737          	lui	a4,0x80003
80001e60:	00f6d5b3          	srl	a1,a3,a5
80001e64:	a9c70713          	addi	a4,a4,-1380 # 80002a9c <__clz_tab>
80001e68:	00b70733          	add	a4,a4,a1
80001e6c:	00074703          	lbu	a4,0(a4)
80001e70:	00f70733          	add	a4,a4,a5
80001e74:	02000793          	li	a5,32
80001e78:	40e785b3          	sub	a1,a5,a4
80001e7c:	02e79663          	bne	a5,a4,80001ea8 <__udivdi3+0x2fc>
80001e80:	00100513          	li	a0,1
80001e84:	e066eee3          	bltu	a3,t1,80001ca0 <__udivdi3+0xf4>
80001e88:	00c8b533          	sltu	a0,a7,a2
80001e8c:	00153513          	seqz	a0,a0
80001e90:	00008067          	ret
80001e94:	01000737          	lui	a4,0x1000
80001e98:	01800793          	li	a5,24
80001e9c:	fce6f0e3          	bgeu	a3,a4,80001e5c <__udivdi3+0x2b0>
80001ea0:	01000793          	li	a5,16
80001ea4:	fb9ff06f          	j	80001e5c <__udivdi3+0x2b0>
80001ea8:	00e65533          	srl	a0,a2,a4
80001eac:	00b696b3          	sll	a3,a3,a1
80001eb0:	00e357b3          	srl	a5,t1,a4
80001eb4:	00d56533          	or	a0,a0,a3
80001eb8:	00b31333          	sll	t1,t1,a1
80001ebc:	00e8d733          	srl	a4,a7,a4
80001ec0:	00676733          	or	a4,a4,t1
80001ec4:	01055313          	srli	t1,a0,0x10
80001ec8:	0267deb3          	divu	t4,a5,t1
80001ecc:	01051813          	slli	a6,a0,0x10
80001ed0:	01085813          	srli	a6,a6,0x10
80001ed4:	01075693          	srli	a3,a4,0x10
80001ed8:	00b61633          	sll	a2,a2,a1
80001edc:	0267f7b3          	remu	a5,a5,t1
80001ee0:	03d80e33          	mul	t3,a6,t4
80001ee4:	01079793          	slli	a5,a5,0x10
80001ee8:	00f6e6b3          	or	a3,a3,a5
80001eec:	000e8793          	mv	a5,t4
80001ef0:	01c6fe63          	bgeu	a3,t3,80001f0c <__udivdi3+0x360>
80001ef4:	00d506b3          	add	a3,a0,a3
80001ef8:	fffe8793          	addi	a5,t4,-1
80001efc:	00a6e863          	bltu	a3,a0,80001f0c <__udivdi3+0x360>
80001f00:	01c6f663          	bgeu	a3,t3,80001f0c <__udivdi3+0x360>
80001f04:	ffee8793          	addi	a5,t4,-2
80001f08:	00a686b3          	add	a3,a3,a0
80001f0c:	41c686b3          	sub	a3,a3,t3
80001f10:	0266de33          	divu	t3,a3,t1
80001f14:	01071713          	slli	a4,a4,0x10
80001f18:	01075713          	srli	a4,a4,0x10
80001f1c:	0266f6b3          	remu	a3,a3,t1
80001f20:	03c80833          	mul	a6,a6,t3
80001f24:	01069693          	slli	a3,a3,0x10
80001f28:	00d76733          	or	a4,a4,a3
80001f2c:	000e0693          	mv	a3,t3
80001f30:	01077e63          	bgeu	a4,a6,80001f4c <__udivdi3+0x3a0>
80001f34:	00e50733          	add	a4,a0,a4
80001f38:	fffe0693          	addi	a3,t3,-1
80001f3c:	00a76863          	bltu	a4,a0,80001f4c <__udivdi3+0x3a0>
80001f40:	01077663          	bgeu	a4,a6,80001f4c <__udivdi3+0x3a0>
80001f44:	ffee0693          	addi	a3,t3,-2
80001f48:	00a70733          	add	a4,a4,a0
80001f4c:	01079793          	slli	a5,a5,0x10
80001f50:	00d7e533          	or	a0,a5,a3
80001f54:	01061313          	slli	t1,a2,0x10
80001f58:	01069693          	slli	a3,a3,0x10
80001f5c:	0106d693          	srli	a3,a3,0x10
80001f60:	01035313          	srli	t1,t1,0x10
80001f64:	01065613          	srli	a2,a2,0x10
80001f68:	41070733          	sub	a4,a4,a6
80001f6c:	01055813          	srli	a6,a0,0x10
80001f70:	02668e33          	mul	t3,a3,t1
80001f74:	02680333          	mul	t1,a6,t1
80001f78:	010e5793          	srli	a5,t3,0x10
80001f7c:	02c686b3          	mul	a3,a3,a2
80001f80:	006686b3          	add	a3,a3,t1
80001f84:	00d787b3          	add	a5,a5,a3
80001f88:	02c80833          	mul	a6,a6,a2
80001f8c:	0067f663          	bgeu	a5,t1,80001f98 <__udivdi3+0x3ec>
80001f90:	000106b7          	lui	a3,0x10
80001f94:	00d80833          	add	a6,a6,a3
80001f98:	0107d693          	srli	a3,a5,0x10
80001f9c:	010686b3          	add	a3,a3,a6
80001fa0:	02d76263          	bltu	a4,a3,80001fc4 <__udivdi3+0x418>
80001fa4:	ced71ce3          	bne	a4,a3,80001c9c <__udivdi3+0xf0>
80001fa8:	010e1e13          	slli	t3,t3,0x10
80001fac:	01079793          	slli	a5,a5,0x10
80001fb0:	010e5e13          	srli	t3,t3,0x10
80001fb4:	00b898b3          	sll	a7,a7,a1
80001fb8:	01c787b3          	add	a5,a5,t3
80001fbc:	00000593          	li	a1,0
80001fc0:	cef8f0e3          	bgeu	a7,a5,80001ca0 <__udivdi3+0xf4>
80001fc4:	fff50513          	addi	a0,a0,-1 # ffffff <copy_loop+0xffffdb>
80001fc8:	cd5ff06f          	j	80001c9c <__udivdi3+0xf0>
80001fcc:	00000593          	li	a1,0
80001fd0:	00000513          	li	a0,0
80001fd4:	00008067          	ret

80001fd8 <__divsf3>:
80001fd8:	fd010113          	addi	sp,sp,-48
80001fdc:	01612823          	sw	s6,16(sp)
80001fe0:	02112623          	sw	ra,44(sp)
80001fe4:	02812423          	sw	s0,40(sp)
80001fe8:	02912223          	sw	s1,36(sp)
80001fec:	03212023          	sw	s2,32(sp)
80001ff0:	01312e23          	sw	s3,28(sp)
80001ff4:	01412c23          	sw	s4,24(sp)
80001ff8:	01512a23          	sw	s5,20(sp)
80001ffc:	01712623          	sw	s7,12(sp)
80002000:	00058b13          	mv	s6,a1
80002004:	00202973          	frrm	s2
80002008:	01755a13          	srli	s4,a0,0x17
8000200c:	00951993          	slli	s3,a0,0x9
80002010:	0ffa7a13          	zext.b	s4,s4
80002014:	0099d993          	srli	s3,s3,0x9
80002018:	01f55a93          	srli	s5,a0,0x1f
8000201c:	020a0263          	beqz	s4,80002040 <__divsf3+0x68>
80002020:	0ff00793          	li	a5,255
80002024:	02fa0e63          	beq	s4,a5,80002060 <__divsf3+0x88>
80002028:	00399993          	slli	s3,s3,0x3
8000202c:	29a99993          	bseti	s3,s3,0x1a
80002030:	f81a0a13          	addi	s4,s4,-127
80002034:	00000b93          	li	s7,0
80002038:	00000493          	li	s1,0
8000203c:	0380006f          	j	80002074 <__divsf3+0x9c>
80002040:	08098a63          	beqz	s3,800020d4 <__divsf3+0xfc>
80002044:	00098513          	mv	a0,s3
80002048:	035000ef          	jal	8000287c <__clzsi2>
8000204c:	ffb50793          	addi	a5,a0,-5
80002050:	f8a00a13          	li	s4,-118
80002054:	00f999b3          	sll	s3,s3,a5
80002058:	40aa0a33          	sub	s4,s4,a0
8000205c:	fd9ff06f          	j	80002034 <__divsf3+0x5c>
80002060:	08098063          	beqz	s3,800020e0 <__divsf3+0x108>
80002064:	004004b7          	lui	s1,0x400
80002068:	0099b4b3          	sltu	s1,s3,s1
8000206c:	00449493          	slli	s1,s1,0x4
80002070:	00300b93          	li	s7,3
80002074:	017b5793          	srli	a5,s6,0x17
80002078:	009b1413          	slli	s0,s6,0x9
8000207c:	0ff7f793          	zext.b	a5,a5
80002080:	00945413          	srli	s0,s0,0x9
80002084:	01fb5b13          	srli	s6,s6,0x1f
80002088:	06078063          	beqz	a5,800020e8 <__divsf3+0x110>
8000208c:	0ff00713          	li	a4,255
80002090:	06e78c63          	beq	a5,a4,80002108 <__divsf3+0x130>
80002094:	00341413          	slli	s0,s0,0x3
80002098:	29a41413          	bseti	s0,s0,0x1a
8000209c:	f8178793          	addi	a5,a5,-127 # ff81 <copy_loop+0xff5d>
800020a0:	00000693          	li	a3,0
800020a4:	40fa0a33          	sub	s4,s4,a5
800020a8:	002b9793          	slli	a5,s7,0x2
800020ac:	00d7e7b3          	or	a5,a5,a3
800020b0:	fff78793          	addi	a5,a5,-1
800020b4:	00e00613          	li	a2,14
800020b8:	016ac733          	xor	a4,s5,s6
800020bc:	0cf66863          	bltu	a2,a5,8000218c <__divsf3+0x1b4>
800020c0:	80003637          	lui	a2,0x80003
800020c4:	a6060613          	addi	a2,a2,-1440 # 80002a60 <__clzsi2+0x1e4>
800020c8:	20c7c7b3          	sh2add	a5,a5,a2
800020cc:	0007a783          	lw	a5,0(a5)
800020d0:	00078067          	jr	a5
800020d4:	00000a13          	li	s4,0
800020d8:	00100b93          	li	s7,1
800020dc:	f5dff06f          	j	80002038 <__divsf3+0x60>
800020e0:	00200b93          	li	s7,2
800020e4:	f55ff06f          	j	80002038 <__divsf3+0x60>
800020e8:	02040e63          	beqz	s0,80002124 <__divsf3+0x14c>
800020ec:	00040513          	mv	a0,s0
800020f0:	78c000ef          	jal	8000287c <__clzsi2>
800020f4:	ffb50793          	addi	a5,a0,-5
800020f8:	00f41433          	sll	s0,s0,a5
800020fc:	f8a00793          	li	a5,-118
80002100:	40a787b3          	sub	a5,a5,a0
80002104:	f9dff06f          	j	800020a0 <__divsf3+0xc8>
80002108:	00200693          	li	a3,2
8000210c:	f8040ce3          	beqz	s0,800020a4 <__divsf3+0xcc>
80002110:	00400737          	lui	a4,0x400
80002114:	00300693          	li	a3,3
80002118:	f8e476e3          	bgeu	s0,a4,800020a4 <__divsf3+0xcc>
8000211c:	01000493          	li	s1,16
80002120:	f85ff06f          	j	800020a4 <__divsf3+0xcc>
80002124:	00000793          	li	a5,0
80002128:	00100693          	li	a3,1
8000212c:	f79ff06f          	j	800020a4 <__divsf3+0xcc>
80002130:	00400437          	lui	s0,0x400
80002134:	0ff00793          	li	a5,255
80002138:	00000713          	li	a4,0
8000213c:	01000493          	li	s1,16
80002140:	00941413          	slli	s0,s0,0x9
80002144:	01779513          	slli	a0,a5,0x17
80002148:	00945413          	srli	s0,s0,0x9
8000214c:	00856533          	or	a0,a0,s0
80002150:	01f71713          	slli	a4,a4,0x1f
80002154:	00e56533          	or	a0,a0,a4
80002158:	00048463          	beqz	s1,80002160 <__divsf3+0x188>
8000215c:	0014a073          	csrs	fflags,s1
80002160:	02c12083          	lw	ra,44(sp)
80002164:	02812403          	lw	s0,40(sp)
80002168:	02412483          	lw	s1,36(sp)
8000216c:	02012903          	lw	s2,32(sp)
80002170:	01c12983          	lw	s3,28(sp)
80002174:	01812a03          	lw	s4,24(sp)
80002178:	01412a83          	lw	s5,20(sp)
8000217c:	01012b03          	lw	s6,16(sp)
80002180:	00c12b83          	lw	s7,12(sp)
80002184:	03010113          	addi	sp,sp,48
80002188:	00008067          	ret
8000218c:	00541693          	slli	a3,s0,0x5
80002190:	1089fa63          	bgeu	s3,s0,800022a4 <__divsf3+0x2cc>
80002194:	fffa0a13          	addi	s4,s4,-1
80002198:	00000793          	li	a5,0
8000219c:	0106d593          	srli	a1,a3,0x10
800021a0:	02b9d833          	divu	a6,s3,a1
800021a4:	01069613          	slli	a2,a3,0x10
800021a8:	01065613          	srli	a2,a2,0x10
800021ac:	0107d793          	srli	a5,a5,0x10
800021b0:	02b9f9b3          	remu	s3,s3,a1
800021b4:	00080413          	mv	s0,a6
800021b8:	03060533          	mul	a0,a2,a6
800021bc:	01099993          	slli	s3,s3,0x10
800021c0:	0137e7b3          	or	a5,a5,s3
800021c4:	00a7fe63          	bgeu	a5,a0,800021e0 <__divsf3+0x208>
800021c8:	00f687b3          	add	a5,a3,a5
800021cc:	fff80413          	addi	s0,a6,-1 # 5fff <copy_loop+0x5fdb>
800021d0:	00d7e863          	bltu	a5,a3,800021e0 <__divsf3+0x208>
800021d4:	00a7f663          	bgeu	a5,a0,800021e0 <__divsf3+0x208>
800021d8:	ffe80413          	addi	s0,a6,-2
800021dc:	00d787b3          	add	a5,a5,a3
800021e0:	40a787b3          	sub	a5,a5,a0
800021e4:	02b7d533          	divu	a0,a5,a1
800021e8:	02b7f7b3          	remu	a5,a5,a1
800021ec:	00050593          	mv	a1,a0
800021f0:	02a60633          	mul	a2,a2,a0
800021f4:	01079793          	slli	a5,a5,0x10
800021f8:	02c7f263          	bgeu	a5,a2,8000221c <__divsf3+0x244>
800021fc:	00d78833          	add	a6,a5,a3
80002200:	00f838b3          	sltu	a7,a6,a5
80002204:	fff50593          	addi	a1,a0,-1
80002208:	00080793          	mv	a5,a6
8000220c:	00089863          	bnez	a7,8000221c <__divsf3+0x244>
80002210:	00c87663          	bgeu	a6,a2,8000221c <__divsf3+0x244>
80002214:	ffe50593          	addi	a1,a0,-2
80002218:	00d807b3          	add	a5,a6,a3
8000221c:	01041413          	slli	s0,s0,0x10
80002220:	40c787b3          	sub	a5,a5,a2
80002224:	00b46433          	or	s0,s0,a1
80002228:	00f037b3          	snez	a5,a5
8000222c:	00f46433          	or	s0,s0,a5
80002230:	07fa0793          	addi	a5,s4,127
80002234:	0ef05863          	blez	a5,80002324 <__divsf3+0x34c>
80002238:	00747693          	andi	a3,s0,7
8000223c:	02068663          	beqz	a3,80002268 <__divsf3+0x290>
80002240:	00200693          	li	a3,2
80002244:	0014e493          	ori	s1,s1,1
80002248:	0ad90c63          	beq	s2,a3,80002300 <__divsf3+0x328>
8000224c:	00300693          	li	a3,3
80002250:	0ad90263          	beq	s2,a3,800022f4 <__divsf3+0x31c>
80002254:	00091a63          	bnez	s2,80002268 <__divsf3+0x290>
80002258:	00f47693          	andi	a3,s0,15
8000225c:	00400613          	li	a2,4
80002260:	00c68463          	beq	a3,a2,80002268 <__divsf3+0x290>
80002264:	00c40433          	add	s0,s0,a2
80002268:	00441693          	slli	a3,s0,0x4
8000226c:	0006d663          	bgez	a3,80002278 <__divsf3+0x2a0>
80002270:	49b41413          	bclri	s0,s0,0x1b
80002274:	080a0793          	addi	a5,s4,128
80002278:	0fe00693          	li	a3,254
8000227c:	00345413          	srli	s0,s0,0x3
80002280:	ecf6d0e3          	bge	a3,a5,80002140 <__divsf3+0x168>
80002284:	00200793          	li	a5,2
80002288:	08f90a63          	beq	s2,a5,8000231c <__divsf3+0x344>
8000228c:	00300793          	li	a5,3
80002290:	06f90c63          	beq	s2,a5,80002308 <__divsf3+0x330>
80002294:	06091c63          	bnez	s2,8000230c <__divsf3+0x334>
80002298:	00000413          	li	s0,0
8000229c:	0ff00793          	li	a5,255
800022a0:	0740006f          	j	80002314 <__divsf3+0x33c>
800022a4:	01f99793          	slli	a5,s3,0x1f
800022a8:	0019d993          	srli	s3,s3,0x1
800022ac:	ef1ff06f          	j	8000219c <__divsf3+0x1c4>
800022b0:	000b0713          	mv	a4,s6
800022b4:	00200793          	li	a5,2
800022b8:	02f68063          	beq	a3,a5,800022d8 <__divsf3+0x300>
800022bc:	00300793          	li	a5,3
800022c0:	1af68463          	beq	a3,a5,80002468 <__divsf3+0x490>
800022c4:	00100793          	li	a5,1
800022c8:	f6f694e3          	bne	a3,a5,80002230 <__divsf3+0x258>
800022cc:	00000413          	li	s0,0
800022d0:	1580006f          	j	80002428 <__divsf3+0x450>
800022d4:	0084e493          	ori	s1,s1,8
800022d8:	00000413          	li	s0,0
800022dc:	0ff00793          	li	a5,255
800022e0:	e61ff06f          	j	80002140 <__divsf3+0x168>
800022e4:	000a8713          	mv	a4,s5
800022e8:	00098413          	mv	s0,s3
800022ec:	000b8693          	mv	a3,s7
800022f0:	fc5ff06f          	j	800022b4 <__divsf3+0x2dc>
800022f4:	f6071ae3          	bnez	a4,80002268 <__divsf3+0x290>
800022f8:	00840413          	addi	s0,s0,8 # 400008 <copy_loop+0x3fffe4>
800022fc:	f6dff06f          	j	80002268 <__divsf3+0x290>
80002300:	20876433          	sh3add	s0,a4,s0
80002304:	f65ff06f          	j	80002268 <__divsf3+0x290>
80002308:	f80708e3          	beqz	a4,80002298 <__divsf3+0x2c0>
8000230c:	fff00413          	li	s0,-1
80002310:	00068793          	mv	a5,a3
80002314:	0054e493          	ori	s1,s1,5
80002318:	e29ff06f          	j	80002140 <__divsf3+0x168>
8000231c:	f6071ee3          	bnez	a4,80002298 <__divsf3+0x2c0>
80002320:	fedff06f          	j	8000230c <__divsf3+0x334>
80002324:	0c079263          	bnez	a5,800023e8 <__divsf3+0x410>
80002328:	00747693          	andi	a3,s0,7
8000232c:	00040793          	mv	a5,s0
80002330:	02068663          	beqz	a3,8000235c <__divsf3+0x384>
80002334:	00200693          	li	a3,2
80002338:	0014e493          	ori	s1,s1,1
8000233c:	0ad90263          	beq	s2,a3,800023e0 <__divsf3+0x408>
80002340:	00300693          	li	a3,3
80002344:	08d90863          	beq	s2,a3,800023d4 <__divsf3+0x3fc>
80002348:	00091a63          	bnez	s2,8000235c <__divsf3+0x384>
8000234c:	00f47693          	andi	a3,s0,15
80002350:	00400613          	li	a2,4
80002354:	00c68463          	beq	a3,a2,8000235c <__divsf3+0x384>
80002358:	00c407b3          	add	a5,s0,a2
8000235c:	49b7d793          	bexti	a5,a5,0x1b
80002360:	0017c693          	xori	a3,a5,1
80002364:	00100793          	li	a5,1
80002368:	09ea0a13          	addi	s4,s4,158
8000236c:	01441a33          	sll	s4,s0,s4
80002370:	00f457b3          	srl	a5,s0,a5
80002374:	01403a33          	snez	s4,s4
80002378:	0147e7b3          	or	a5,a5,s4
8000237c:	0077f613          	andi	a2,a5,7
80002380:	02060663          	beqz	a2,800023ac <__divsf3+0x3d4>
80002384:	00200613          	li	a2,2
80002388:	0014e493          	ori	s1,s1,1
8000238c:	0ac90863          	beq	s2,a2,8000243c <__divsf3+0x464>
80002390:	00300613          	li	a2,3
80002394:	08c90e63          	beq	s2,a2,80002430 <__divsf3+0x458>
80002398:	00091a63          	bnez	s2,800023ac <__divsf3+0x3d4>
8000239c:	00f7f613          	andi	a2,a5,15
800023a0:	00400593          	li	a1,4
800023a4:	00b60463          	beq	a2,a1,800023ac <__divsf3+0x3d4>
800023a8:	00b787b3          	add	a5,a5,a1
800023ac:	00579613          	slli	a2,a5,0x5
800023b0:	08065a63          	bgez	a2,80002444 <__divsf3+0x46c>
800023b4:	0014e493          	ori	s1,s1,1
800023b8:	00000413          	li	s0,0
800023bc:	00100793          	li	a5,1
800023c0:	d80680e3          	beqz	a3,80002140 <__divsf3+0x168>
800023c4:	0014f693          	andi	a3,s1,1
800023c8:	00169693          	slli	a3,a3,0x1
800023cc:	00d4e4b3          	or	s1,s1,a3
800023d0:	d71ff06f          	j	80002140 <__divsf3+0x168>
800023d4:	f80714e3          	bnez	a4,8000235c <__divsf3+0x384>
800023d8:	00840793          	addi	a5,s0,8
800023dc:	f81ff06f          	j	8000235c <__divsf3+0x384>
800023e0:	208767b3          	sh3add	a5,a4,s0
800023e4:	f79ff06f          	j	8000235c <__divsf3+0x384>
800023e8:	00100693          	li	a3,1
800023ec:	40f687b3          	sub	a5,a3,a5
800023f0:	01b00613          	li	a2,27
800023f4:	f6f65ae3          	bge	a2,a5,80002368 <__divsf3+0x390>
800023f8:	02040663          	beqz	s0,80002424 <__divsf3+0x44c>
800023fc:	00200793          	li	a5,2
80002400:	0014e493          	ori	s1,s1,1
80002404:	04f90e63          	beq	s2,a5,80002460 <__divsf3+0x488>
80002408:	00300793          	li	a5,3
8000240c:	04f90263          	beq	s2,a5,80002450 <__divsf3+0x478>
80002410:	01203933          	snez	s2,s2
80002414:	41200933          	neg	s2,s2
80002418:	ffc97913          	andi	s2,s2,-4
8000241c:	00590913          	addi	s2,s2,5
80002420:	00395413          	srli	s0,s2,0x3
80002424:	0024e493          	ori	s1,s1,2
80002428:	00000793          	li	a5,0
8000242c:	d15ff06f          	j	80002140 <__divsf3+0x168>
80002430:	f6071ee3          	bnez	a4,800023ac <__divsf3+0x3d4>
80002434:	00878793          	addi	a5,a5,8
80002438:	f75ff06f          	j	800023ac <__divsf3+0x3d4>
8000243c:	20f767b3          	sh3add	a5,a4,a5
80002440:	f6dff06f          	j	800023ac <__divsf3+0x3d4>
80002444:	0037d413          	srli	s0,a5,0x3
80002448:	00000793          	li	a5,0
8000244c:	f75ff06f          	j	800023c0 <__divsf3+0x3e8>
80002450:	fff70913          	addi	s2,a4,-1 # 3fffff <copy_loop+0x3fffdb>
80002454:	00897913          	andi	s2,s2,8
80002458:	00190913          	addi	s2,s2,1
8000245c:	fc5ff06f          	j	80002420 <__divsf3+0x448>
80002460:	00371913          	slli	s2,a4,0x3
80002464:	ff5ff06f          	j	80002458 <__divsf3+0x480>
80002468:	00400437          	lui	s0,0x400
8000246c:	0ff00793          	li	a5,255
80002470:	00000713          	li	a4,0
80002474:	ccdff06f          	j	80002140 <__divsf3+0x168>

80002478 <__extendsfdf2>:
80002478:	fe010113          	addi	sp,sp,-32
8000247c:	00112e23          	sw	ra,28(sp)
80002480:	00812c23          	sw	s0,24(sp)
80002484:	00912a23          	sw	s1,20(sp)
80002488:	01212823          	sw	s2,16(sp)
8000248c:	01312623          	sw	s3,12(sp)
80002490:	01412423          	sw	s4,8(sp)
80002494:	002027f3          	frrm	a5
80002498:	01755993          	srli	s3,a0,0x17
8000249c:	0ff9f993          	zext.b	s3,s3
800024a0:	00198793          	addi	a5,s3,1
800024a4:	00951913          	slli	s2,a0,0x9
800024a8:	0fe7f793          	andi	a5,a5,254
800024ac:	00995913          	srli	s2,s2,0x9
800024b0:	01f55a13          	srli	s4,a0,0x1f
800024b4:	04078e63          	beqz	a5,80002510 <__extendsfdf2+0x98>
800024b8:	38098713          	addi	a4,s3,896
800024bc:	00395793          	srli	a5,s2,0x3
800024c0:	00000993          	li	s3,0
800024c4:	01d91913          	slli	s2,s2,0x1d
800024c8:	00c79793          	slli	a5,a5,0xc
800024cc:	00c7d793          	srli	a5,a5,0xc
800024d0:	01471713          	slli	a4,a4,0x14
800024d4:	01fa1513          	slli	a0,s4,0x1f
800024d8:	00f76733          	or	a4,a4,a5
800024dc:	00a767b3          	or	a5,a4,a0
800024e0:	00078593          	mv	a1,a5
800024e4:	00090513          	mv	a0,s2
800024e8:	00098463          	beqz	s3,800024f0 <__extendsfdf2+0x78>
800024ec:	00186073          	csrsi	fflags,16
800024f0:	01c12083          	lw	ra,28(sp)
800024f4:	01812403          	lw	s0,24(sp)
800024f8:	01412483          	lw	s1,20(sp)
800024fc:	01012903          	lw	s2,16(sp)
80002500:	00c12983          	lw	s3,12(sp)
80002504:	00812a03          	lw	s4,8(sp)
80002508:	02010113          	addi	sp,sp,32
8000250c:	00008067          	ret
80002510:	04099463          	bnez	s3,80002558 <__extendsfdf2+0xe0>
80002514:	06090463          	beqz	s2,8000257c <__extendsfdf2+0x104>
80002518:	00090513          	mv	a0,s2
8000251c:	360000ef          	jal	8000287c <__clzsi2>
80002520:	00a00793          	li	a5,10
80002524:	02a7c263          	blt	a5,a0,80002548 <__extendsfdf2+0xd0>
80002528:	00b00793          	li	a5,11
8000252c:	40a787b3          	sub	a5,a5,a0
80002530:	01550713          	addi	a4,a0,21
80002534:	00f957b3          	srl	a5,s2,a5
80002538:	00e91933          	sll	s2,s2,a4
8000253c:	38900713          	li	a4,905
80002540:	40a70733          	sub	a4,a4,a0
80002544:	f85ff06f          	j	800024c8 <__extendsfdf2+0x50>
80002548:	ff550793          	addi	a5,a0,-11
8000254c:	00f917b3          	sll	a5,s2,a5
80002550:	00000913          	li	s2,0
80002554:	fe9ff06f          	j	8000253c <__extendsfdf2+0xc4>
80002558:	02090863          	beqz	s2,80002588 <__extendsfdf2+0x110>
8000255c:	004009b7          	lui	s3,0x400
80002560:	013939b3          	sltu	s3,s2,s3
80002564:	00395793          	srli	a5,s2,0x3
80002568:	00499993          	slli	s3,s3,0x4
8000256c:	29379793          	bseti	a5,a5,0x13
80002570:	01d91913          	slli	s2,s2,0x1d
80002574:	7ff00713          	li	a4,2047
80002578:	f51ff06f          	j	800024c8 <__extendsfdf2+0x50>
8000257c:	00000793          	li	a5,0
80002580:	00000713          	li	a4,0
80002584:	f45ff06f          	j	800024c8 <__extendsfdf2+0x50>
80002588:	00000793          	li	a5,0
8000258c:	00000993          	li	s3,0
80002590:	fe5ff06f          	j	80002574 <__extendsfdf2+0xfc>

80002594 <__truncdfsf2>:
80002594:	00202673          	frrm	a2
80002598:	0145d313          	srli	t1,a1,0x14
8000259c:	7ff37313          	andi	t1,t1,2047
800025a0:	00c59793          	slli	a5,a1,0xc
800025a4:	00130813          	addi	a6,t1,1
800025a8:	0097d793          	srli	a5,a5,0x9
800025ac:	01d55713          	srli	a4,a0,0x1d
800025b0:	7fe87813          	andi	a6,a6,2046
800025b4:	01f5d593          	srli	a1,a1,0x1f
800025b8:	00f76733          	or	a4,a4,a5
800025bc:	00351693          	slli	a3,a0,0x3
800025c0:	18080263          	beqz	a6,80002744 <__truncdfsf2+0x1b0>
800025c4:	c8030813          	addi	a6,t1,-896
800025c8:	0fe00893          	li	a7,254
800025cc:	0b08d263          	bge	a7,a6,80002670 <__truncdfsf2+0xdc>
800025d0:	28060e63          	beqz	a2,8000286c <__truncdfsf2+0x2d8>
800025d4:	00300793          	li	a5,3
800025d8:	06f61a63          	bne	a2,a5,8000264c <__truncdfsf2+0xb8>
800025dc:	28058863          	beqz	a1,8000286c <__truncdfsf2+0x2d8>
800025e0:	fff00793          	li	a5,-1
800025e4:	00000713          	li	a4,0
800025e8:	00088313          	mv	t1,a7
800025ec:	00500813          	li	a6,5
800025f0:	00300693          	li	a3,3
800025f4:	1ed60c63          	beq	a2,a3,800027ec <__truncdfsf2+0x258>
800025f8:	00061a63          	bnez	a2,8000260c <__truncdfsf2+0x78>
800025fc:	00f7f693          	andi	a3,a5,15
80002600:	00400513          	li	a0,4
80002604:	00a68463          	beq	a3,a0,8000260c <__truncdfsf2+0x78>
80002608:	00a787b3          	add	a5,a5,a0
8000260c:	00070863          	beqz	a4,8000261c <__truncdfsf2+0x88>
80002610:	00187713          	andi	a4,a6,1
80002614:	00171713          	slli	a4,a4,0x1
80002618:	00e86833          	or	a6,a6,a4
8000261c:	00579713          	slli	a4,a5,0x5
80002620:	1e074463          	bltz	a4,80002808 <__truncdfsf2+0x274>
80002624:	0037d793          	srli	a5,a5,0x3
80002628:	00979793          	slli	a5,a5,0x9
8000262c:	0097d793          	srli	a5,a5,0x9
80002630:	01731513          	slli	a0,t1,0x17
80002634:	00f56533          	or	a0,a0,a5
80002638:	01f59793          	slli	a5,a1,0x1f
8000263c:	00f56533          	or	a0,a0,a5
80002640:	00080463          	beqz	a6,80002648 <__truncdfsf2+0xb4>
80002644:	00182073          	csrs	fflags,a6
80002648:	00008067          	ret
8000264c:	00200793          	li	a5,2
80002650:	1af61463          	bne	a2,a5,800027f8 <__truncdfsf2+0x264>
80002654:	20059c63          	bnez	a1,8000286c <__truncdfsf2+0x2d8>
80002658:	00000713          	li	a4,0
8000265c:	fff00793          	li	a5,-1
80002660:	00088313          	mv	t1,a7
80002664:	00500813          	li	a6,5
80002668:	20f5e7b3          	sh3add	a5,a1,a5
8000266c:	fa1ff06f          	j	8000260c <__truncdfsf2+0x78>
80002670:	0b004663          	bgtz	a6,8000271c <__truncdfsf2+0x188>
80002674:	fe900513          	li	a0,-23
80002678:	00100793          	li	a5,1
8000267c:	02a84a63          	blt	a6,a0,800026b0 <__truncdfsf2+0x11c>
80002680:	01e00893          	li	a7,30
80002684:	410888b3          	sub	a7,a7,a6
80002688:	01f00793          	li	a5,31
8000268c:	29771713          	bseti	a4,a4,0x17
80002690:	0517ce63          	blt	a5,a7,800026ec <__truncdfsf2+0x158>
80002694:	c8230513          	addi	a0,t1,-894
80002698:	0116d8b3          	srl	a7,a3,a7
8000269c:	00a696b3          	sll	a3,a3,a0
800026a0:	00d036b3          	snez	a3,a3
800026a4:	00a71733          	sll	a4,a4,a0
800026a8:	00e6e6b3          	or	a3,a3,a4
800026ac:	00d8e7b3          	or	a5,a7,a3
800026b0:	00179713          	slli	a4,a5,0x1
800026b4:	00777693          	andi	a3,a4,7
800026b8:	10068c63          	beqz	a3,800027d0 <__truncdfsf2+0x23c>
800026bc:	00200693          	li	a3,2
800026c0:	0ed60e63          	beq	a2,a3,800027bc <__truncdfsf2+0x228>
800026c4:	00300693          	li	a3,3
800026c8:	0cd60263          	beq	a2,a3,8000278c <__truncdfsf2+0x1f8>
800026cc:	0e061a63          	bnez	a2,800027c0 <__truncdfsf2+0x22c>
800026d0:	00f77693          	andi	a3,a4,15
800026d4:	00400513          	li	a0,4
800026d8:	00a70733          	add	a4,a4,a0
800026dc:	0aa69c63          	bne	a3,a0,80002794 <__truncdfsf2+0x200>
800026e0:	00000313          	li	t1,0
800026e4:	00100713          	li	a4,1
800026e8:	0b80006f          	j	800027a0 <__truncdfsf2+0x20c>
800026ec:	ffe00793          	li	a5,-2
800026f0:	410787b3          	sub	a5,a5,a6
800026f4:	02000513          	li	a0,32
800026f8:	00f757b3          	srl	a5,a4,a5
800026fc:	00000813          	li	a6,0
80002700:	00a88663          	beq	a7,a0,8000270c <__truncdfsf2+0x178>
80002704:	ca230813          	addi	a6,t1,-862
80002708:	01071833          	sll	a6,a4,a6
8000270c:	00d86833          	or	a6,a6,a3
80002710:	01003833          	snez	a6,a6
80002714:	0107e7b3          	or	a5,a5,a6
80002718:	f99ff06f          	j	800026b0 <__truncdfsf2+0x11c>
8000271c:	00651513          	slli	a0,a0,0x6
80002720:	00371713          	slli	a4,a4,0x3
80002724:	00a03533          	snez	a0,a0
80002728:	00e56533          	or	a0,a0,a4
8000272c:	01d6d693          	srli	a3,a3,0x1d
80002730:	00d567b3          	or	a5,a0,a3
80002734:	00080313          	mv	t1,a6
80002738:	00000713          	li	a4,0
8000273c:	00000813          	li	a6,0
80002740:	0640006f          	j	800027a4 <__truncdfsf2+0x210>
80002744:	00d767b3          	or	a5,a4,a3
80002748:	00031863          	bnez	t1,80002758 <__truncdfsf2+0x1c4>
8000274c:	ec078ee3          	beqz	a5,80002628 <__truncdfsf2+0x94>
80002750:	00100793          	li	a5,1
80002754:	f5dff06f          	j	800026b0 <__truncdfsf2+0x11c>
80002758:	10078e63          	beqz	a5,80002874 <__truncdfsf2+0x2e0>
8000275c:	7ff00793          	li	a5,2047
80002760:	00f31863          	bne	t1,a5,80002770 <__truncdfsf2+0x1dc>
80002764:	01675813          	srli	a6,a4,0x16
80002768:	00184813          	xori	a6,a6,1
8000276c:	00481813          	slli	a6,a6,0x4
80002770:	00076793          	ori	a5,a4,0
80002774:	29679793          	bseti	a5,a5,0x16
80002778:	0e078e63          	beqz	a5,80002874 <__truncdfsf2+0x2e0>
8000277c:	00000593          	li	a1,0
80002780:	0ff00313          	li	t1,255
80002784:	004007b7          	lui	a5,0x400
80002788:	ea1ff06f          	j	80002628 <__truncdfsf2+0x94>
8000278c:	04059863          	bnez	a1,800027dc <__truncdfsf2+0x248>
80002790:	00870713          	addi	a4,a4,8
80002794:	49b75713          	bexti	a4,a4,0x1b
80002798:	00174713          	xori	a4,a4,1
8000279c:	00000313          	li	t1,0
800027a0:	00100813          	li	a6,1
800027a4:	0077f693          	andi	a3,a5,7
800027a8:	e60682e3          	beqz	a3,8000260c <__truncdfsf2+0x78>
800027ac:	00200693          	li	a3,2
800027b0:	00100813          	li	a6,1
800027b4:	e2d61ee3          	bne	a2,a3,800025f0 <__truncdfsf2+0x5c>
800027b8:	eb1ff06f          	j	80002668 <__truncdfsf2+0xd4>
800027bc:	fc059ae3          	bnez	a1,80002790 <__truncdfsf2+0x1fc>
800027c0:	00100713          	li	a4,1
800027c4:	00000313          	li	t1,0
800027c8:	00070813          	mv	a6,a4
800027cc:	fd9ff06f          	j	800027a4 <__truncdfsf2+0x210>
800027d0:	00000313          	li	t1,0
800027d4:	00100713          	li	a4,1
800027d8:	f65ff06f          	j	8000273c <__truncdfsf2+0x1a8>
800027dc:	00058713          	mv	a4,a1
800027e0:	00058813          	mv	a6,a1
800027e4:	00000313          	li	t1,0
800027e8:	fbdff06f          	j	800027a4 <__truncdfsf2+0x210>
800027ec:	e20590e3          	bnez	a1,8000260c <__truncdfsf2+0x78>
800027f0:	00878793          	addi	a5,a5,8 # 400008 <copy_loop+0x3fffe4>
800027f4:	e19ff06f          	j	8000260c <__truncdfsf2+0x78>
800027f8:	00088313          	mv	t1,a7
800027fc:	fff00793          	li	a5,-1
80002800:	00500813          	li	a6,5
80002804:	e19ff06f          	j	8000261c <__truncdfsf2+0x88>
80002808:	00130313          	addi	t1,t1,1
8000280c:	0ff00713          	li	a4,255
80002810:	00e30c63          	beq	t1,a4,80002828 <__truncdfsf2+0x294>
80002814:	1f800737          	lui	a4,0x1f800
80002818:	0037d793          	srli	a5,a5,0x3
8000281c:	fff70713          	addi	a4,a4,-1 # 1f7fffff <copy_loop+0x1f7fffdb>
80002820:	00e7f7b3          	and	a5,a5,a4
80002824:	e05ff06f          	j	80002628 <__truncdfsf2+0x94>
80002828:	00000793          	li	a5,0
8000282c:	02060463          	beqz	a2,80002854 <__truncdfsf2+0x2c0>
80002830:	00300713          	li	a4,3
80002834:	00e61a63          	bne	a2,a4,80002848 <__truncdfsf2+0x2b4>
80002838:	00058e63          	beqz	a1,80002854 <__truncdfsf2+0x2c0>
8000283c:	fff00793          	li	a5,-1
80002840:	0fe00313          	li	t1,254
80002844:	0100006f          	j	80002854 <__truncdfsf2+0x2c0>
80002848:	00200713          	li	a4,2
8000284c:	fee618e3          	bne	a2,a4,8000283c <__truncdfsf2+0x2a8>
80002850:	fe0586e3          	beqz	a1,8000283c <__truncdfsf2+0x2a8>
80002854:	0ff00713          	li	a4,255
80002858:	00586813          	ori	a6,a6,5
8000285c:	0037d793          	srli	a5,a5,0x3
80002860:	f0e30ce3          	beq	t1,a4,80002778 <__truncdfsf2+0x1e4>
80002864:	0fe00313          	li	t1,254
80002868:	dc1ff06f          	j	80002628 <__truncdfsf2+0x94>
8000286c:	00000793          	li	a5,0
80002870:	00500813          	li	a6,5
80002874:	0ff00313          	li	t1,255
80002878:	db1ff06f          	j	80002628 <__truncdfsf2+0x94>

8000287c <__clzsi2>:
8000287c:	000107b7          	lui	a5,0x10
80002880:	02f57a63          	bgeu	a0,a5,800028b4 <__clzsi2+0x38>
80002884:	10053793          	sltiu	a5,a0,256
80002888:	0017b793          	seqz	a5,a5
8000288c:	00379793          	slli	a5,a5,0x3
80002890:	80003737          	lui	a4,0x80003
80002894:	02000693          	li	a3,32
80002898:	40f686b3          	sub	a3,a3,a5
8000289c:	00f55533          	srl	a0,a0,a5
800028a0:	a9c70793          	addi	a5,a4,-1380 # 80002a9c <__clz_tab>
800028a4:	00a787b3          	add	a5,a5,a0
800028a8:	0007c503          	lbu	a0,0(a5) # 10000 <copy_loop+0xffdc>
800028ac:	40a68533          	sub	a0,a3,a0
800028b0:	00008067          	ret
800028b4:	01000737          	lui	a4,0x1000
800028b8:	01800793          	li	a5,24
800028bc:	fce57ae3          	bgeu	a0,a4,80002890 <__clzsi2+0x14>
800028c0:	01000793          	li	a5,16
800028c4:	fcdff06f          	j	80002890 <__clzsi2+0x14>
