
out/firmware.elf:     file format elf32-littleriscv


Disassembly of section .text:

80000000 <_start>:
80000000:	00022117          	auipc	sp,0x22
80000004:	00010113          	mv	sp,sp
80000008:	00800293          	li	t0,8
8000000c:	3002a073          	csrs	mstatus,t0
80000010:	fff00293          	li	t0,-1
80000014:	3042a073          	csrs	mie,t0
80000018:	090000ef          	jal	800000a8 <main>
8000001c:	10500073          	wfi
80000020:	ffdff06f          	j	8000001c <_start+0x1c>

80000024 <vp_print_hex>:
80000024:	800007b7          	lui	a5,0x80000
80000028:	26c78793          	addi	a5,a5,620 # 8000026c <main+0x1c4>
8000002c:	00c7a683          	lw	a3,12(a5)
80000030:	0107c703          	lbu	a4,16(a5)
80000034:	0007a803          	lw	a6,0(a5)
80000038:	0047a583          	lw	a1,4(a5)
8000003c:	0087a603          	lw	a2,8(a5)
80000040:	fe010113          	addi	sp,sp,-32 # 80021fe0 <__bss_end+0x1fe0>
80000044:	800007b7          	lui	a5,0x80000
80000048:	00d12c23          	sw	a3,24(sp)
8000004c:	00e10e23          	sb	a4,28(sp)
80000050:	01012623          	sw	a6,12(sp)
80000054:	00b12823          	sw	a1,16(sp)
80000058:	00c12a23          	sw	a2,20(sp)
8000005c:	26878793          	addi	a5,a5,616 # 80000268 <main+0x1c0>
80000060:	03000713          	li	a4,48
80000064:	100006b7          	lui	a3,0x10000
80000068:	00178793          	addi	a5,a5,1
8000006c:	00e68023          	sb	a4,0(a3) # 10000000 <fromhost+0x10000000>
80000070:	0007c703          	lbu	a4,0(a5)
80000074:	fe071ae3          	bnez	a4,80000068 <vp_print_hex+0x44>
80000078:	01c00713          	li	a4,28
8000007c:	10000637          	lui	a2,0x10000
80000080:	ffc00693          	li	a3,-4
80000084:	00e557b3          	srl	a5,a0,a4
80000088:	00f7f793          	andi	a5,a5,15
8000008c:	002787b3          	add	a5,a5,sp
80000090:	00c7c783          	lbu	a5,12(a5)
80000094:	ffc70713          	addi	a4,a4,-4
80000098:	00f60023          	sb	a5,0(a2) # 10000000 <fromhost+0x10000000>
8000009c:	fed714e3          	bne	a4,a3,80000084 <vp_print_hex+0x60>
800000a0:	02010113          	addi	sp,sp,32
800000a4:	00008067          	ret

Disassembly of section .text.startup:

800000a8 <main>:
800000a8:	fe010113          	addi	sp,sp,-32
800000ac:	800007b7          	lui	a5,0x80000
800000b0:	00112e23          	sw	ra,28(sp)
800000b4:	00812c23          	sw	s0,24(sp)
800000b8:	00912a23          	sw	s1,20(sp)
800000bc:	28078793          	addi	a5,a5,640 # 80000280 <main+0x1d8>
800000c0:	05b00713          	li	a4,91
800000c4:	100006b7          	lui	a3,0x10000
800000c8:	00178793          	addi	a5,a5,1
800000cc:	00e68023          	sb	a4,0(a3) # 10000000 <fromhost+0x10000000>
800000d0:	0007c703          	lbu	a4,0(a5)
800000d4:	fe071ae3          	bnez	a4,800000c8 <main+0x20>
800000d8:	0000c7b7          	lui	a5,0xc
800000dc:	00a00613          	li	a2,10
800000e0:	00004737          	lui	a4,0x4
800000e4:	00c68023          	sb	a2,0(a3)
800000e8:	03678693          	addi	a3,a5,54 # c036 <fromhost+0xc036>
800000ec:	800007b7          	lui	a5,0x80000
800000f0:	00d72423          	sw	a3,8(a4) # 4008 <fromhost+0x4008>
800000f4:	29478793          	addi	a5,a5,660 # 80000294 <main+0x1ec>
800000f8:	05b00713          	li	a4,91
800000fc:	100006b7          	lui	a3,0x10000
80000100:	00178793          	addi	a5,a5,1
80000104:	00e68023          	sb	a4,0(a3) # 10000000 <fromhost+0x10000000>
80000108:	0007c703          	lbu	a4,0(a5)
8000010c:	fe071ae3          	bnez	a4,80000100 <main+0x58>
80000110:	00a00793          	li	a5,10
80000114:	00f68023          	sb	a5,0(a3)
80000118:	00004737          	lui	a4,0x4
8000011c:	05500693          	li	a3,85
80000120:	800007b7          	lui	a5,0x80000
80000124:	00d72023          	sw	a3,0(a4) # 4000 <fromhost+0x4000>
80000128:	2ac78793          	addi	a5,a5,684 # 800002ac <main+0x204>
8000012c:	05b00713          	li	a4,91
80000130:	100006b7          	lui	a3,0x10000
80000134:	00178793          	addi	a5,a5,1
80000138:	00e68023          	sb	a4,0(a3) # 10000000 <fromhost+0x10000000>
8000013c:	0007c703          	lbu	a4,0(a5)
80000140:	fe071ae3          	bnez	a4,80000134 <main+0x8c>
80000144:	00a00793          	li	a5,10
80000148:	00f68023          	sb	a5,0(a3)
8000014c:	00012623          	sw	zero,12(sp)
80000150:	00c12783          	lw	a5,12(sp)
80000154:	0000c737          	lui	a4,0xc
80000158:	34f70713          	addi	a4,a4,847 # c34f <fromhost+0xc34f>
8000015c:	00f74c63          	blt	a4,a5,80000174 <main+0xcc>
80000160:	00c12783          	lw	a5,12(sp)
80000164:	00178793          	addi	a5,a5,1
80000168:	00f12623          	sw	a5,12(sp)
8000016c:	00c12783          	lw	a5,12(sp)
80000170:	fef758e3          	bge	a4,a5,80000160 <main+0xb8>
80000174:	000047b7          	lui	a5,0x4
80000178:	00c7a503          	lw	a0,12(a5) # 400c <fromhost+0x400c>
8000017c:	800007b7          	lui	a5,0x80000
80000180:	2c878793          	addi	a5,a5,712 # 800002c8 <main+0x220>
80000184:	05b00713          	li	a4,91
80000188:	10000437          	lui	s0,0x10000
8000018c:	00178793          	addi	a5,a5,1
80000190:	00e40023          	sb	a4,0(s0) # 10000000 <fromhost+0x10000000>
80000194:	0007c703          	lbu	a4,0(a5)
80000198:	fe071ae3          	bnez	a4,8000018c <main+0xe4>
8000019c:	e89ff0ef          	jal	80000024 <vp_print_hex>
800001a0:	00a00713          	li	a4,10
800001a4:	00e40023          	sb	a4,0(s0)
800001a8:	000047b7          	lui	a5,0x4
800001ac:	0047a483          	lw	s1,4(a5) # 4004 <fromhost+0x4004>
800001b0:	800007b7          	lui	a5,0x80000
800001b4:	2d878793          	addi	a5,a5,728 # 800002d8 <main+0x230>
800001b8:	05b00713          	li	a4,91
800001bc:	10000437          	lui	s0,0x10000
800001c0:	00178793          	addi	a5,a5,1
800001c4:	00e40023          	sb	a4,0(s0) # 10000000 <fromhost+0x10000000>
800001c8:	0007c703          	lbu	a4,0(a5)
800001cc:	fe071ae3          	bnez	a4,800001c0 <main+0x118>
800001d0:	00048513          	mv	a0,s1
800001d4:	e51ff0ef          	jal	80000024 <vp_print_hex>
800001d8:	00a00793          	li	a5,10
800001dc:	00f40023          	sb	a5,0(s0)
800001e0:	0ff4f493          	zext.b	s1,s1
800001e4:	05500793          	li	a5,85
800001e8:	04f48463          	beq	s1,a5,80000230 <main+0x188>
800001ec:	800007b7          	lui	a5,0x80000
800001f0:	30478793          	addi	a5,a5,772 # 80000304 <main+0x25c>
800001f4:	05b00713          	li	a4,91
800001f8:	100006b7          	lui	a3,0x10000
800001fc:	00178793          	addi	a5,a5,1
80000200:	00e68023          	sb	a4,0(a3) # 10000000 <fromhost+0x10000000>
80000204:	0007c703          	lbu	a4,0(a5)
80000208:	fe071ae3          	bnez	a4,800001fc <main+0x154>
8000020c:	00a00793          	li	a5,10
80000210:	00f68023          	sb	a5,0(a3)
80000214:	200007b7          	lui	a5,0x20000
80000218:	0007a023          	sw	zero,0(a5) # 20000000 <fromhost+0x20000000>
8000021c:	01c12083          	lw	ra,28(sp)
80000220:	01812403          	lw	s0,24(sp)
80000224:	01412483          	lw	s1,20(sp)
80000228:	02010113          	addi	sp,sp,32
8000022c:	00008067          	ret
80000230:	800007b7          	lui	a5,0x80000
80000234:	2ec78793          	addi	a5,a5,748 # 800002ec <main+0x244>
80000238:	05b00713          	li	a4,91
8000023c:	100006b7          	lui	a3,0x10000
80000240:	00178793          	addi	a5,a5,1
80000244:	00e68023          	sb	a4,0(a3) # 10000000 <fromhost+0x10000000>
80000248:	0007c703          	lbu	a4,0(a5)
8000024c:	fe071ae3          	bnez	a4,80000240 <main+0x198>
80000250:	00a00793          	li	a5,10
80000254:	00f68023          	sb	a5,0(a3)
80000258:	00100713          	li	a4,1
8000025c:	200007b7          	lui	a5,0x20000
80000260:	00e7a023          	sw	a4,0(a5) # 20000000 <fromhost+0x20000000>
80000264:	fb9ff06f          	j	8000021c <main+0x174>
