
output.elf:     file format elf32-littleriscv


Disassembly of section .boot:

00000000 <boot_program>:
   0:	88000137          	.word	0x88000137
   4:	00800293          	.word	0x00800293
   8:	3002a073          	.word	0x3002a073
   c:	fff00293          	.word	0xfff00293
  10:	3042a073          	.word	0x3042a073
  14:	04800293          	.word	0x04800293
  18:	80000337          	.word	0x80000337
  1c:	000023b7          	.word	0x000023b7
  20:	fff38393          	.word	0xfff38393

00000024 <copy_loop>:
  24:	0002a503          	.word	0x0002a503
  28:	00a32023          	.word	0x00a32023
  2c:	00428293          	.word	0x00428293
  30:	00430313          	.word	0x00430313
  34:	fe72c8e3          	.word	0xfe72c8e3
  38:	80001317          	.word	0x80001317
  3c:	21030313          	.word	0x21030313
  40:	000300e7          	.word	0x000300e7
  44:	c0001073          	.word	0xc0001073

Disassembly of section .text:

80000000 <_ZN9Serial_IO4initEmbN4UART12parityMode_eENS0_10stopBits_eENS0_12dataLenght_eE>:
80000000:	800027b7          	lui	a5,0x80002
80000004:	00002837          	lui	a6,0x2
80000008:	a107ac23          	sw	a6,-1512(a5) # 80001a18 <_ZN9Serial_IO6statusE>
8000000c:	a187a803          	lw	a6,-1512(a5)
80000010:	00480813          	addi	a6,a6,4 # 2004 <copy_loop+0x1fe0>
80000014:	800028b7          	lui	a7,0x80002
80000018:	a108aa23          	sw	a6,-1516(a7) # 80001a14 <_ZN9Serial_IO8bufferTXE>
8000001c:	a187a803          	lw	a6,-1512(a5)
80000020:	a187a883          	lw	a7,-1512(a5)
80000024:	0015f593          	andi	a1,a1,1
80000028:	00b59813          	slli	a6,a1,0xb
8000002c:	0008a583          	lw	a1,0(a7)
80000030:	48b59593          	bclri	a1,a1,0xb
80000034:	0105e5b3          	or	a1,a1,a6
80000038:	00b8a023          	sw	a1,0(a7)
8000003c:	a187a803          	lw	a6,-1512(a5)
80000040:	00377713          	andi	a4,a4,3
80000044:	00e71593          	slli	a1,a4,0xe
80000048:	00082703          	lw	a4,0(a6)
8000004c:	48e71713          	bclri	a4,a4,0xe
80000050:	48f71713          	bclri	a4,a4,0xf
80000054:	00b76733          	or	a4,a4,a1
80000058:	00e82023          	sw	a4,0(a6)
8000005c:	a187a583          	lw	a1,-1512(a5)
80000060:	0016f693          	andi	a3,a3,1
80000064:	00d69693          	slli	a3,a3,0xd
80000068:	0005a703          	lw	a4,0(a1)
8000006c:	48d71713          	bclri	a4,a4,0xd
80000070:	00d76733          	or	a4,a4,a3
80000074:	00e5a023          	sw	a4,0(a1)
80000078:	a187a683          	lw	a3,-1512(a5)
8000007c:	00167613          	andi	a2,a2,1
80000080:	00c61713          	slli	a4,a2,0xc
80000084:	0006a603          	lw	a2,0(a3)
80000088:	48c61613          	bclri	a2,a2,0xc
8000008c:	00e66633          	or	a2,a2,a4
80000090:	00c6a023          	sw	a2,0(a3)
80000094:	00451513          	slli	a0,a0,0x4
80000098:	05f5e737          	lui	a4,0x5f5e
8000009c:	10070713          	addi	a4,a4,256 # 5f5e100 <copy_loop+0x5f5e0dc>
800000a0:	02a75733          	divu	a4,a4,a0
800000a4:	fff70713          	addi	a4,a4,-1
800000a8:	a187a603          	lw	a2,-1512(a5)
800000ac:	01171713          	slli	a4,a4,0x11
800000b0:	00062683          	lw	a3,0(a2)
800000b4:	00f69693          	slli	a3,a3,0xf
800000b8:	00f6d693          	srli	a3,a3,0xf
800000bc:	00e6e733          	or	a4,a3,a4
800000c0:	00e62023          	sw	a4,0(a2)
800000c4:	a187a683          	lw	a3,-1512(a5)
800000c8:	0006a703          	lw	a4,0(a3)
800000cc:	20076713          	ori	a4,a4,512
800000d0:	00e6a023          	sw	a4,0(a3)
800000d4:	a187a703          	lw	a4,-1512(a5)
800000d8:	00072783          	lw	a5,0(a4)
800000dc:	4007e793          	ori	a5,a5,1024
800000e0:	00f72023          	sw	a5,0(a4)
800000e4:	00008067          	ret

800000e8 <_ZN9Serial_IO5writeEc>:
800000e8:	80002737          	lui	a4,0x80002
800000ec:	a1872783          	lw	a5,-1512(a4) # 80001a18 <_ZN9Serial_IO6statusE>
800000f0:	0007a783          	lw	a5,0(a5)
800000f4:	4837d793          	bexti	a5,a5,0x3
800000f8:	fe079ae3          	bnez	a5,800000ec <_ZN9Serial_IO5writeEc+0x4>
800000fc:	800027b7          	lui	a5,0x80002
80000100:	a147a783          	lw	a5,-1516(a5) # 80001a14 <_ZN9Serial_IO8bufferTXE>
80000104:	00a78023          	sb	a0,0(a5)
80000108:	00008067          	ret

8000010c <_ZN9Serial_IO5writeEPKcm>:
8000010c:	02058c63          	beqz	a1,80000144 <_ZN9Serial_IO5writeEPKcm+0x38>
80000110:	800027b7          	lui	a5,0x80002
80000114:	a147a803          	lw	a6,-1516(a5) # 80001a14 <_ZN9Serial_IO8bufferTXE>
80000118:	00050693          	mv	a3,a0
8000011c:	00b50633          	add	a2,a0,a1
80000120:	80002737          	lui	a4,0x80002
80000124:	a1872783          	lw	a5,-1512(a4) # 80001a18 <_ZN9Serial_IO6statusE>
80000128:	0007a783          	lw	a5,0(a5)
8000012c:	4837d793          	bexti	a5,a5,0x3
80000130:	fe079ae3          	bnez	a5,80000124 <_ZN9Serial_IO5writeEPKcm+0x18>
80000134:	0006c783          	lbu	a5,0(a3)
80000138:	00f80023          	sb	a5,0(a6)
8000013c:	00168693          	addi	a3,a3,1
80000140:	fec692e3          	bne	a3,a2,80000124 <_ZN9Serial_IO5writeEPKcm+0x18>
80000144:	00008067          	ret

80000148 <_ZN9Serial_IO6writeBItEEvT_>:
80000148:	fe010113          	addi	sp,sp,-32
8000014c:	00050693          	mv	a3,a0
80000150:	00112e23          	sw	ra,28(sp)
80000154:	00010513          	mv	a0,sp
80000158:	00f10793          	addi	a5,sp,15
8000015c:	0016f713          	andi	a4,a3,1
80000160:	03070713          	addi	a4,a4,48
80000164:	00e78023          	sb	a4,0(a5)
80000168:	00078713          	mv	a4,a5
8000016c:	0016d693          	srli	a3,a3,0x1
80000170:	fff78793          	addi	a5,a5,-1
80000174:	fee514e3          	bne	a0,a4,8000015c <_ZN9Serial_IO6writeBItEEvT_+0x14>
80000178:	01000593          	li	a1,16
8000017c:	f91ff0ef          	jal	8000010c <_ZN9Serial_IO5writeEPKcm>
80000180:	01c12083          	lw	ra,28(sp)
80000184:	00000513          	li	a0,0
80000188:	02010113          	addi	sp,sp,32
8000018c:	f5dff06f          	j	800000e8 <_ZN9Serial_IO5writeEc>

80000190 <_ZN9Serial_IO5writeEPKc>:
80000190:	ff010113          	addi	sp,sp,-16
80000194:	00112623          	sw	ra,12(sp)
80000198:	00054783          	lbu	a5,0(a0)
8000019c:	02078463          	beqz	a5,800001c4 <_ZN9Serial_IO5writeEPKc+0x34>
800001a0:	00000593          	li	a1,0
800001a4:	00158593          	addi	a1,a1,1
800001a8:	00b507b3          	add	a5,a0,a1
800001ac:	0007c783          	lbu	a5,0(a5)
800001b0:	fe079ae3          	bnez	a5,800001a4 <_ZN9Serial_IO5writeEPKc+0x14>
800001b4:	f59ff0ef          	jal	8000010c <_ZN9Serial_IO5writeEPKcm>
800001b8:	00c12083          	lw	ra,12(sp)
800001bc:	01010113          	addi	sp,sp,16
800001c0:	00008067          	ret
800001c4:	00000593          	li	a1,0
800001c8:	fedff06f          	j	800001b4 <_ZN9Serial_IO5writeEPKc+0x24>

800001cc <_ZN7PDM2PCMC1Ev>:
800001cc:	0000e7b7          	lui	a5,0xe
800001d0:	00f52023          	sw	a5,0(a0)
800001d4:	00f52223          	sw	a5,4(a0)
800001d8:	00478793          	addi	a5,a5,4 # e004 <copy_loop+0xdfe0>
800001dc:	00f52423          	sw	a5,8(a0)
800001e0:	0000e737          	lui	a4,0xe
800001e4:	00870713          	addi	a4,a4,8 # e008 <copy_loop+0xdfe4>
800001e8:	00e52623          	sw	a4,12(a0)
800001ec:	0000e737          	lui	a4,0xe
800001f0:	00c70713          	addi	a4,a4,12 # e00c <copy_loop+0xdfe8>
800001f4:	00e52823          	sw	a4,16(a0)
800001f8:	0000e737          	lui	a4,0xe
800001fc:	01070713          	addi	a4,a4,16 # e010 <copy_loop+0xdfec>
80000200:	00e52a23          	sw	a4,20(a0)
80000204:	0000e737          	lui	a4,0xe
80000208:	01470713          	addi	a4,a4,20 # e014 <copy_loop+0xdff0>
8000020c:	00e52c23          	sw	a4,24(a0)
80000210:	0000e737          	lui	a4,0xe
80000214:	01870713          	addi	a4,a4,24 # e018 <copy_loop+0xdff4>
80000218:	00e52e23          	sw	a4,28(a0)
8000021c:	0000e737          	lui	a4,0xe
80000220:	01c70713          	addi	a4,a4,28 # e01c <copy_loop+0xdff8>
80000224:	02e52023          	sw	a4,32(a0)
80000228:	0007a703          	lw	a4,0(a5)
8000022c:	ffffe6b7          	lui	a3,0xffffe
80000230:	07f68693          	addi	a3,a3,127 # ffffe07f <_ZN9Serial_IO6statusE+0x7fffc667>
80000234:	00d77733          	and	a4,a4,a3
80000238:	00e7a023          	sw	a4,0(a5)
8000023c:	00008067          	ret

80000240 <_ZN7PDM2PCMD1Ev>:
80000240:	00008067          	ret

80000244 <_ZN7PDM2PCM4initENS_9channel_eEbmmPNS_7error_eE>:
80000244:	00852883          	lw	a7,8(a0)
80000248:	0015f593          	andi	a1,a1,1
8000024c:	00d59813          	slli	a6,a1,0xd
80000250:	0008a583          	lw	a1,0(a7)
80000254:	48d59593          	bclri	a1,a1,0xd
80000258:	0105e5b3          	or	a1,a1,a6
8000025c:	00b8a023          	sw	a1,0(a7)
80000260:	00852803          	lw	a6,8(a0)
80000264:	00167613          	andi	a2,a2,1
80000268:	00e61593          	slli	a1,a2,0xe
8000026c:	00082603          	lw	a2,0(a6)
80000270:	48e61613          	bclri	a2,a2,0xe
80000274:	00b66633          	or	a2,a2,a1
80000278:	00c82023          	sw	a2,0(a6)
8000027c:	fff0c637          	lui	a2,0xfff0c
80000280:	dc060613          	addi	a2,a2,-576 # fff0bdc0 <_ZN9Serial_IO6statusE+0x7ff0a3a8>
80000284:	00c68633          	add	a2,a3,a2
80000288:	001e85b7          	lui	a1,0x1e8
8000028c:	48058593          	addi	a1,a1,1152 # 1e8480 <copy_loop+0x1e845c>
80000290:	00c5f863          	bgeu	a1,a2,800002a0 <_ZN7PDM2PCM4initENS_9channel_eEbmmPNS_7error_eE+0x5c>
80000294:	00100713          	li	a4,1
80000298:	00e7a023          	sw	a4,0(a5)
8000029c:	00008067          	ret
800002a0:	00852803          	lw	a6,8(a0)
800002a4:	00169593          	slli	a1,a3,0x1
800002a8:	05f5e637          	lui	a2,0x5f5e
800002ac:	10060613          	addi	a2,a2,256 # 5f5e100 <copy_loop+0x5f5e0dc>
800002b0:	02b65633          	divu	a2,a2,a1
800002b4:	07f67613          	andi	a2,a2,127
800002b8:	00082583          	lw	a1,0(a6)
800002bc:	f805f593          	andi	a1,a1,-128
800002c0:	00c5e633          	or	a2,a1,a2
800002c4:	00c82023          	sw	a2,0(a6)
800002c8:	02e6d733          	divu	a4,a3,a4
800002cc:	0ff00693          	li	a3,255
800002d0:	00e6f863          	bgeu	a3,a4,800002e0 <_ZN7PDM2PCM4initENS_9channel_eEbmmPNS_7error_eE+0x9c>
800002d4:	00400713          	li	a4,4
800002d8:	00e7a023          	sw	a4,0(a5)
800002dc:	00008067          	ret
800002e0:	0ff77693          	zext.b	a3,a4
800002e4:	01052783          	lw	a5,16(a0)
800002e8:	00d78023          	sb	a3,0(a5)
800002ec:	00852683          	lw	a3,8(a0)
800002f0:	0006a783          	lw	a5,0(a3)
800002f4:	29079793          	bseti	a5,a5,0x10
800002f8:	00f6a023          	sw	a5,0(a3)
800002fc:	02e706b3          	mul	a3,a4,a4
80000300:	02d686b3          	mul	a3,a3,a3
80000304:	01452783          	lw	a5,20(a0)
80000308:	00d7a023          	sw	a3,0(a5)
8000030c:	00008067          	ret

80000310 <_ZN7PDM2PCM14startRecordingEv>:
80000310:	00852703          	lw	a4,8(a0)
80000314:	00072783          	lw	a5,0(a4)
80000318:	28f79793          	bseti	a5,a5,0xf
8000031c:	00f72023          	sw	a5,0(a4)
80000320:	00008067          	ret

80000324 <_ZN7PDM2PCM13stopRecordingEv>:
80000324:	00852703          	lw	a4,8(a0)
80000328:	00072783          	lw	a5,0(a4)
8000032c:	48f79793          	bclri	a5,a5,0xf
80000330:	00f72023          	sw	a5,0(a4)
80000334:	00008067          	ret

80000338 <_ZN7PDM2PCM10readSampleEv>:
80000338:	01852783          	lw	a5,24(a0)
8000033c:	0007d503          	lhu	a0,0(a5)
80000340:	00008067          	ret

80000344 <_ZN8EthernetC1Ev>:
80000344:	ff010113          	addi	sp,sp,-16
80000348:	0000a7b7          	lui	a5,0xa
8000034c:	00f52023          	sw	a5,0(a0)
80000350:	08078713          	addi	a4,a5,128 # a080 <copy_loop+0xa05c>
80000354:	00e52223          	sw	a4,4(a0)
80000358:	08478713          	addi	a4,a5,132
8000035c:	00e52423          	sw	a4,8(a0)
80000360:	08c78713          	addi	a4,a5,140
80000364:	00e52623          	sw	a4,12(a0)
80000368:	09078713          	addi	a4,a5,144
8000036c:	00e52823          	sw	a4,16(a0)
80000370:	09878713          	addi	a4,a5,152
80000374:	00e52a23          	sw	a4,20(a0)
80000378:	09c78713          	addi	a4,a5,156
8000037c:	00e52c23          	sw	a4,24(a0)
80000380:	00011623          	sh	zero,12(sp)
80000384:	0007a683          	lw	a3,0(a5)
80000388:	01069693          	slli	a3,a3,0x10
8000038c:	0106d693          	srli	a3,a3,0x10
80000390:	00d11623          	sh	a3,12(sp)
80000394:	00c15683          	lhu	a3,12(sp)
80000398:	ffff8637          	lui	a2,0xffff8
8000039c:	00c6e6b3          	or	a3,a3,a2
800003a0:	00d11623          	sh	a3,12(sp)
800003a4:	00c15683          	lhu	a3,12(sp)
800003a8:	01069693          	slli	a3,a3,0x10
800003ac:	0106d693          	srli	a3,a3,0x10
800003b0:	00d7a023          	sw	a3,0(a5)
800003b4:	00011423          	sh	zero,8(sp)
800003b8:	0007a683          	lw	a3,0(a5)
800003bc:	01069693          	slli	a3,a3,0x10
800003c0:	0106d693          	srli	a3,a3,0x10
800003c4:	00d11423          	sh	a3,8(sp)
800003c8:	00815683          	lhu	a3,8(sp)
800003cc:	48b69693          	bclri	a3,a3,0xb
800003d0:	00d11423          	sh	a3,8(sp)
800003d4:	00815683          	lhu	a3,8(sp)
800003d8:	01069693          	slli	a3,a3,0x10
800003dc:	0106d693          	srli	a3,a3,0x10
800003e0:	00d7a023          	sw	a3,0(a5)
800003e4:	00452603          	lw	a2,4(a0)
800003e8:	00062783          	lw	a5,0(a2) # ffff8000 <_ZN9Serial_IO6statusE+0x7fff65e8>
800003ec:	fffe26b7          	lui	a3,0xfffe2
800003f0:	fff68693          	addi	a3,a3,-1 # fffe1fff <_ZN9Serial_IO6statusE+0x7ffe05e7>
800003f4:	00d7f7b3          	and	a5,a5,a3
800003f8:	00f62023          	sw	a5,0(a2)
800003fc:	00072023          	sw	zero,0(a4)
80000400:	01010113          	addi	sp,sp,16
80000404:	00008067          	ret

80000408 <_ZN8EthernetD1Ev>:
80000408:	ff010113          	addi	sp,sp,-16
8000040c:	00011623          	sh	zero,12(sp)
80000410:	00052703          	lw	a4,0(a0)
80000414:	00072783          	lw	a5,0(a4)
80000418:	01079793          	slli	a5,a5,0x10
8000041c:	0107d793          	srli	a5,a5,0x10
80000420:	00f11623          	sh	a5,12(sp)
80000424:	00c15783          	lhu	a5,12(sp)
80000428:	ffff86b7          	lui	a3,0xffff8
8000042c:	00d7e7b3          	or	a5,a5,a3
80000430:	00f11623          	sh	a5,12(sp)
80000434:	00c15783          	lhu	a5,12(sp)
80000438:	01079793          	slli	a5,a5,0x10
8000043c:	0107d793          	srli	a5,a5,0x10
80000440:	00f72023          	sw	a5,0(a4)
80000444:	00011423          	sh	zero,8(sp)
80000448:	00052703          	lw	a4,0(a0)
8000044c:	00072783          	lw	a5,0(a4)
80000450:	01079793          	slli	a5,a5,0x10
80000454:	0107d793          	srli	a5,a5,0x10
80000458:	00f11423          	sh	a5,8(sp)
8000045c:	00815783          	lhu	a5,8(sp)
80000460:	48c79793          	bclri	a5,a5,0xc
80000464:	00f11423          	sh	a5,8(sp)
80000468:	00815783          	lhu	a5,8(sp)
8000046c:	01079793          	slli	a5,a5,0x10
80000470:	0107d793          	srli	a5,a5,0x10
80000474:	00f72023          	sw	a5,0(a4)
80000478:	00052703          	lw	a4,0(a0)
8000047c:	00072783          	lw	a5,0(a4)
80000480:	01079793          	slli	a5,a5,0x10
80000484:	0107d793          	srli	a5,a5,0x10
80000488:	00f11423          	sh	a5,8(sp)
8000048c:	00815783          	lhu	a5,8(sp)
80000490:	28b79793          	bseti	a5,a5,0xb
80000494:	00f11423          	sh	a5,8(sp)
80000498:	00815783          	lhu	a5,8(sp)
8000049c:	01079793          	slli	a5,a5,0x10
800004a0:	0107d793          	srli	a5,a5,0x10
800004a4:	00f72023          	sw	a5,0(a4)
800004a8:	00452683          	lw	a3,4(a0)
800004ac:	0006a783          	lw	a5,0(a3) # ffff8000 <_ZN9Serial_IO6statusE+0x7fff65e8>
800004b0:	fffe2737          	lui	a4,0xfffe2
800004b4:	fff70713          	addi	a4,a4,-1 # fffe1fff <_ZN9Serial_IO6statusE+0x7ffe05e7>
800004b8:	00e7f7b3          	and	a5,a5,a4
800004bc:	00f6a023          	sw	a5,0(a3)
800004c0:	01852783          	lw	a5,24(a0)
800004c4:	0007a023          	sw	zero,0(a5)
800004c8:	01010113          	addi	sp,sp,16
800004cc:	00008067          	ret

800004d0 <_ZN8Ethernet4initENS_10ethSpeed_eENS_11ethDuplex_eEbNS_9ethMode_eE>:
800004d0:	ff010113          	addi	sp,sp,-16
800004d4:	00452883          	lw	a7,4(a0)
800004d8:	0015f593          	andi	a1,a1,1
800004dc:	01159313          	slli	t1,a1,0x11
800004e0:	0008a803          	lw	a6,0(a7)
800004e4:	49181813          	bclri	a6,a6,0x11
800004e8:	00686833          	or	a6,a6,t1
800004ec:	0108a023          	sw	a6,0(a7)
800004f0:	00452883          	lw	a7,4(a0)
800004f4:	00177713          	andi	a4,a4,1
800004f8:	00c71813          	slli	a6,a4,0xc
800004fc:	0008a703          	lw	a4,0(a7)
80000500:	48c71713          	bclri	a4,a4,0xc
80000504:	01076733          	or	a4,a4,a6
80000508:	00e8a023          	sw	a4,0(a7)
8000050c:	00452803          	lw	a6,4(a0)
80000510:	00082703          	lw	a4,0(a6)
80000514:	40076713          	ori	a4,a4,1024
80000518:	00e82023          	sw	a4,0(a6)
8000051c:	00452803          	lw	a6,4(a0)
80000520:	00082703          	lw	a4,0(a6)
80000524:	28b71713          	bseti	a4,a4,0xb
80000528:	00e82023          	sw	a4,0(a6)
8000052c:	00011623          	sh	zero,12(sp)
80000530:	00052803          	lw	a6,0(a0)
80000534:	00082703          	lw	a4,0(a6)
80000538:	01071713          	slli	a4,a4,0x10
8000053c:	01075713          	srli	a4,a4,0x10
80000540:	00e11623          	sh	a4,12(sp)
80000544:	0016f693          	andi	a3,a3,1
80000548:	00c69893          	slli	a7,a3,0xc
8000054c:	00c15703          	lhu	a4,12(sp)
80000550:	48c71713          	bclri	a4,a4,0xc
80000554:	01176733          	or	a4,a4,a7
80000558:	00e11623          	sh	a4,12(sp)
8000055c:	00969693          	slli	a3,a3,0x9
80000560:	00c15703          	lhu	a4,12(sp)
80000564:	dff77713          	andi	a4,a4,-513
80000568:	00d76733          	or	a4,a4,a3
8000056c:	00e11623          	sh	a4,12(sp)
80000570:	00c15703          	lhu	a4,12(sp)
80000574:	01071713          	slli	a4,a4,0x10
80000578:	01075713          	srli	a4,a4,0x10
8000057c:	00e82023          	sw	a4,0(a6)
80000580:	00011423          	sh	zero,8(sp)
80000584:	00052703          	lw	a4,0(a0)
80000588:	00072783          	lw	a5,0(a4)
8000058c:	01079793          	slli	a5,a5,0x10
80000590:	0107d793          	srli	a5,a5,0x10
80000594:	00f11423          	sh	a5,8(sp)
80000598:	00d59593          	slli	a1,a1,0xd
8000059c:	00815783          	lhu	a5,8(sp)
800005a0:	48d79793          	bclri	a5,a5,0xd
800005a4:	00b7e5b3          	or	a1,a5,a1
800005a8:	00b11423          	sh	a1,8(sp)
800005ac:	00167613          	andi	a2,a2,1
800005b0:	00861793          	slli	a5,a2,0x8
800005b4:	00815603          	lhu	a2,8(sp)
800005b8:	eff67613          	andi	a2,a2,-257
800005bc:	00f66633          	or	a2,a2,a5
800005c0:	00c11423          	sh	a2,8(sp)
800005c4:	00815783          	lhu	a5,8(sp)
800005c8:	01079793          	slli	a5,a5,0x10
800005cc:	0107d793          	srli	a5,a5,0x10
800005d0:	00f72023          	sw	a5,0(a4)
800005d4:	01010113          	addi	sp,sp,16
800005d8:	00008067          	ret

800005dc <_ZN8Ethernet8waitLinkEv>:
800005dc:	ff010113          	addi	sp,sp,-16
800005e0:	000107a3          	sb	zero,15(sp)
800005e4:	00011423          	sh	zero,8(sp)
800005e8:	00f14783          	lbu	a5,15(sp)
800005ec:	02079663          	bnez	a5,80000618 <_ZN8Ethernet8waitLinkEv+0x3c>
800005f0:	00052703          	lw	a4,0(a0)
800005f4:	00472783          	lw	a5,4(a4)
800005f8:	01079793          	slli	a5,a5,0x10
800005fc:	0107d793          	srli	a5,a5,0x10
80000600:	00f11423          	sh	a5,8(sp)
80000604:	00812783          	lw	a5,8(sp)
80000608:	4827d793          	bexti	a5,a5,0x2
8000060c:	00f107a3          	sb	a5,15(sp)
80000610:	00f14783          	lbu	a5,15(sp)
80000614:	fe0780e3          	beqz	a5,800005f4 <_ZN8Ethernet8waitLinkEv+0x18>
80000618:	01010113          	addi	sp,sp,16
8000061c:	00008067          	ret

80000620 <_ZN8Ethernet9sendFrameEPKhmNS_9macAddr_sEPNS_10ethError_eE>:
80000620:	ff010113          	addi	sp,sp,-16
80000624:	00d12423          	sw	a3,8(sp)
80000628:	00e12623          	sw	a4,12(sp)
8000062c:	00452703          	lw	a4,4(a0)
80000630:	00072703          	lw	a4,0(a4)
80000634:	01371693          	slli	a3,a4,0x13
80000638:	0006d663          	bgez	a3,80000644 <_ZN8Ethernet9sendFrameEPKhmNS_9macAddr_sEPNS_10ethError_eE+0x24>
8000063c:	00600713          	li	a4,6
80000640:	00e7a023          	sw	a4,0(a5)
80000644:	5dc00713          	li	a4,1500
80000648:	0cc76063          	bltu	a4,a2,80000708 <_ZN8Ethernet9sendFrameEPKhmNS_9macAddr_sEPNS_10ethError_eE+0xe8>
8000064c:	00452783          	lw	a5,4(a0)
80000650:	0007a783          	lw	a5,0(a5)
80000654:	4877d793          	bexti	a5,a5,0x7
80000658:	fe079ae3          	bnez	a5,8000064c <_ZN8Ethernet9sendFrameEPKhmNS_9macAddr_sEPNS_10ethError_eE+0x2c>
8000065c:	0a060c63          	beqz	a2,80000714 <_ZN8Ethernet9sendFrameEPKhmNS_9macAddr_sEPNS_10ethError_eE+0xf4>
80000660:	00058713          	mv	a4,a1
80000664:	00c585b3          	add	a1,a1,a2
80000668:	00452783          	lw	a5,4(a0)
8000066c:	0007a783          	lw	a5,0(a5)
80000670:	4837d793          	bexti	a5,a5,0x3
80000674:	fe079ae3          	bnez	a5,80000668 <_ZN8Ethernet9sendFrameEPKhmNS_9macAddr_sEPNS_10ethError_eE+0x48>
80000678:	00c52783          	lw	a5,12(a0)
8000067c:	00074683          	lbu	a3,0(a4)
80000680:	00d78023          	sb	a3,0(a5)
80000684:	00170713          	addi	a4,a4,1
80000688:	fee590e3          	bne	a1,a4,80000668 <_ZN8Ethernet9sendFrameEPKhmNS_9macAddr_sEPNS_10ethError_eE+0x48>
8000068c:	02900793          	li	a5,41
80000690:	00000693          	li	a3,0
80000694:	08c7f063          	bgeu	a5,a2,80000714 <_ZN8Ethernet9sendFrameEPKhmNS_9macAddr_sEPNS_10ethError_eE+0xf4>
80000698:	00d607b3          	add	a5,a2,a3
8000069c:	00814703          	lbu	a4,8(sp)
800006a0:	01071713          	slli	a4,a4,0x10
800006a4:	01079793          	slli	a5,a5,0x10
800006a8:	0107d793          	srli	a5,a5,0x10
800006ac:	00e7e7b3          	or	a5,a5,a4
800006b0:	00914803          	lbu	a6,9(sp)
800006b4:	01881813          	slli	a6,a6,0x18
800006b8:	010006b7          	lui	a3,0x1000
800006bc:	fff68693          	addi	a3,a3,-1 # ffffff <copy_loop+0xffffdb>
800006c0:	00d7f7b3          	and	a5,a5,a3
800006c4:	00b14583          	lbu	a1,11(sp)
800006c8:	00859593          	slli	a1,a1,0x8
800006cc:	00a14703          	lbu	a4,10(sp)
800006d0:	00c14603          	lbu	a2,12(sp)
800006d4:	01061613          	slli	a2,a2,0x10
800006d8:	00b76733          	or	a4,a4,a1
800006dc:	00c76733          	or	a4,a4,a2
800006e0:	00d14583          	lbu	a1,13(sp)
800006e4:	01859593          	slli	a1,a1,0x18
800006e8:	00d77733          	and	a4,a4,a3
800006ec:	00852883          	lw	a7,8(a0)
800006f0:	0107e633          	or	a2,a5,a6
800006f4:	00b766b3          	or	a3,a4,a1
800006f8:	00c8a023          	sw	a2,0(a7)
800006fc:	00d8a223          	sw	a3,4(a7)
80000700:	01010113          	addi	sp,sp,16
80000704:	00008067          	ret
80000708:	00300713          	li	a4,3
8000070c:	00e7a023          	sw	a4,0(a5)
80000710:	ff1ff06f          	j	80000700 <_ZN8Ethernet9sendFrameEPKhmNS_9macAddr_sEPNS_10ethError_eE+0xe0>
80000714:	02a00693          	li	a3,42
80000718:	40c686b3          	sub	a3,a3,a2
8000071c:	00068593          	mv	a1,a3
80000720:	00000713          	li	a4,0
80000724:	00452783          	lw	a5,4(a0)
80000728:	0007a783          	lw	a5,0(a5)
8000072c:	4837d793          	bexti	a5,a5,0x3
80000730:	fe079ae3          	bnez	a5,80000724 <_ZN8Ethernet9sendFrameEPKhmNS_9macAddr_sEPNS_10ethError_eE+0x104>
80000734:	00c52783          	lw	a5,12(a0)
80000738:	00078023          	sb	zero,0(a5)
8000073c:	00170713          	addi	a4,a4,1
80000740:	feb712e3          	bne	a4,a1,80000724 <_ZN8Ethernet9sendFrameEPKhmNS_9macAddr_sEPNS_10ethError_eE+0x104>
80000744:	f55ff06f          	j	80000698 <_ZN8Ethernet9sendFrameEPKhmNS_9macAddr_sEPNS_10ethError_eE+0x78>

80000748 <_ZN5TimerC1Em>:
80000748:	28b01793          	bseti	a5,zero,0xb
8000074c:	00f585b3          	add	a1,a1,a5
80000750:	00359593          	slli	a1,a1,0x3
80000754:	00b52023          	sw	a1,0(a0)
80000758:	00858793          	addi	a5,a1,8
8000075c:	00f52223          	sw	a5,4(a0)
80000760:	00b52423          	sw	a1,8(a0)
80000764:	01058793          	addi	a5,a1,16
80000768:	00f52623          	sw	a5,12(a0)
8000076c:	00c52703          	lw	a4,12(a0)
80000770:	00072783          	lw	a5,0(a4)
80000774:	ffe7f793          	andi	a5,a5,-2
80000778:	00f72023          	sw	a5,0(a4)
8000077c:	00c52703          	lw	a4,12(a0)
80000780:	00072783          	lw	a5,0(a4)
80000784:	ffb7f793          	andi	a5,a5,-5
80000788:	00f72023          	sw	a5,0(a4)
8000078c:	00000793          	li	a5,0
80000790:	00000813          	li	a6,0
80000794:	00f5a423          	sw	a5,8(a1)
80000798:	0105a623          	sw	a6,12(a1)
8000079c:	00852783          	lw	a5,8(a0)
800007a0:	fff00613          	li	a2,-1
800007a4:	fff00693          	li	a3,-1
800007a8:	00c7a023          	sw	a2,0(a5)
800007ac:	00d7a223          	sw	a3,4(a5)
800007b0:	00c52703          	lw	a4,12(a0)
800007b4:	00072783          	lw	a5,0(a4)
800007b8:	ffd7f793          	andi	a5,a5,-3
800007bc:	00f72023          	sw	a5,0(a4)
800007c0:	00008067          	ret

800007c4 <_ZN5TimerD1Ev>:
800007c4:	00c52703          	lw	a4,12(a0)
800007c8:	00072783          	lw	a5,0(a4)
800007cc:	ffe7f793          	andi	a5,a5,-2
800007d0:	00f72023          	sw	a5,0(a4)
800007d4:	00c52703          	lw	a4,12(a0)
800007d8:	00072783          	lw	a5,0(a4)
800007dc:	ffb7f793          	andi	a5,a5,-5
800007e0:	00f72023          	sw	a5,0(a4)
800007e4:	00452783          	lw	a5,4(a0)
800007e8:	00000693          	li	a3,0
800007ec:	00000713          	li	a4,0
800007f0:	00d7a023          	sw	a3,0(a5)
800007f4:	00e7a223          	sw	a4,4(a5)
800007f8:	00852783          	lw	a5,8(a0)
800007fc:	fff00613          	li	a2,-1
80000800:	fff00693          	li	a3,-1
80000804:	00c7a023          	sw	a2,0(a5)
80000808:	00d7a223          	sw	a3,4(a5)
8000080c:	00c52703          	lw	a4,12(a0)
80000810:	00072783          	lw	a5,0(a4)
80000814:	ffd7f793          	andi	a5,a5,-3
80000818:	00f72023          	sw	a5,0(a4)
8000081c:	00008067          	ret

80000820 <_ZN5Timer4initEyNS_11timerMode_eE>:
80000820:	00060893          	mv	a7,a2
80000824:	00c52603          	lw	a2,12(a0)
80000828:	00062703          	lw	a4,0(a2)
8000082c:	ffb77713          	andi	a4,a4,-5
80000830:	00e62023          	sw	a4,0(a2)
80000834:	00852703          	lw	a4,8(a0)
80000838:	00b72023          	sw	a1,0(a4)
8000083c:	01172223          	sw	a7,4(a4)
80000840:	00c52603          	lw	a2,12(a0)
80000844:	0016f693          	andi	a3,a3,1
80000848:	00169693          	slli	a3,a3,0x1
8000084c:	00062703          	lw	a4,0(a2)
80000850:	ffd77713          	andi	a4,a4,-3
80000854:	00d76733          	or	a4,a4,a3
80000858:	00e62023          	sw	a4,0(a2)
8000085c:	00452783          	lw	a5,4(a0)
80000860:	00000693          	li	a3,0
80000864:	00000713          	li	a4,0
80000868:	00d7a023          	sw	a3,0(a5)
8000086c:	00e7a223          	sw	a4,4(a5)
80000870:	00008067          	ret

80000874 <_ZN5Timer7setTimeEy>:
80000874:	00452683          	lw	a3,4(a0)
80000878:	00b6a023          	sw	a1,0(a3)
8000087c:	00c6a223          	sw	a2,4(a3)
80000880:	00008067          	ret

80000884 <_ZN5Timer12setThresholdEy>:
80000884:	00852783          	lw	a5,8(a0)
80000888:	00b7a023          	sw	a1,0(a5)
8000088c:	00c7a223          	sw	a2,4(a5)
80000890:	00008067          	ret

80000894 <_ZN5Timer5startEv>:
80000894:	00c52683          	lw	a3,12(a0)
80000898:	0006a703          	lw	a4,0(a3)
8000089c:	00176713          	ori	a4,a4,1
800008a0:	00e6a023          	sw	a4,0(a3)
800008a4:	00c52703          	lw	a4,12(a0)
800008a8:	00072783          	lw	a5,0(a4)
800008ac:	ff77f793          	andi	a5,a5,-9
800008b0:	00f72023          	sw	a5,0(a4)
800008b4:	00008067          	ret

800008b8 <_ZN5Timer5delayEy>:
800008b8:	ff010113          	addi	sp,sp,-16
800008bc:	00112623          	sw	ra,12(sp)
800008c0:	00812423          	sw	s0,8(sp)
800008c4:	00912223          	sw	s1,4(sp)
800008c8:	01212023          	sw	s2,0(sp)
800008cc:	00050413          	mv	s0,a0
800008d0:	00058913          	mv	s2,a1
800008d4:	00060493          	mv	s1,a2
800008d8:	00c52703          	lw	a4,12(a0)
800008dc:	00072783          	lw	a5,0(a4)
800008e0:	ffe7f793          	andi	a5,a5,-2
800008e4:	00f72023          	sw	a5,0(a4)
800008e8:	00000593          	li	a1,0
800008ec:	00000613          	li	a2,0
800008f0:	f85ff0ef          	jal	80000874 <_ZN5Timer7setTimeEy>
800008f4:	000187b7          	lui	a5,0x18
800008f8:	6a078793          	addi	a5,a5,1696 # 186a0 <copy_loop+0x1867c>
800008fc:	02f484b3          	mul	s1,s1,a5
80000900:	02f93633          	mulhu	a2,s2,a5
80000904:	02f905b3          	mul	a1,s2,a5
80000908:	00c48633          	add	a2,s1,a2
8000090c:	00040513          	mv	a0,s0
80000910:	f75ff0ef          	jal	80000884 <_ZN5Timer12setThresholdEy>
80000914:	00040513          	mv	a0,s0
80000918:	f7dff0ef          	jal	80000894 <_ZN5Timer5startEv>
8000091c:	00c42783          	lw	a5,12(s0)
80000920:	0007a783          	lw	a5,0(a5)
80000924:	4837d793          	bexti	a5,a5,0x3
80000928:	fe078ae3          	beqz	a5,8000091c <_ZN5Timer5delayEy+0x64>
8000092c:	00040513          	mv	a0,s0
80000930:	00c12083          	lw	ra,12(sp)
80000934:	00812403          	lw	s0,8(sp)
80000938:	00412483          	lw	s1,4(sp)
8000093c:	00012903          	lw	s2,0(sp)
80000940:	01010113          	addi	sp,sp,16
80000944:	00008067          	ret

80000948 <_ZN9Serial_IO7vprintfEPKcPv>:
80000948:	f9010113          	addi	sp,sp,-112
8000094c:	06112623          	sw	ra,108(sp)
80000950:	06812423          	sw	s0,104(sp)
80000954:	00050413          	mv	s0,a0
80000958:	00054503          	lbu	a0,0(a0)
8000095c:	020508e3          	beqz	a0,8000118c <_ZN9Serial_IO7vprintfEPKcPv+0x844>
80000960:	06912223          	sw	s1,100(sp)
80000964:	07212023          	sw	s2,96(sp)
80000968:	05312e23          	sw	s3,92(sp)
8000096c:	05412c23          	sw	s4,88(sp)
80000970:	05512a23          	sw	s5,84(sp)
80000974:	05612823          	sw	s6,80(sp)
80000978:	05712623          	sw	s7,76(sp)
8000097c:	00058b13          	mv	s6,a1
80000980:	00000a93          	li	s5,0
80000984:	02500913          	li	s2,37
80000988:	01600993          	li	s3,22
8000098c:	80002a37          	lui	s4,0x80002
80000990:	7b00006f          	j	80001140 <_ZN9Serial_IO7vprintfEPKcPv+0x7f8>
80000994:	004b0b93          	addi	s7,s6,4
80000998:	000b2a83          	lw	s5,0(s6)
8000099c:	41fadb13          	srai	s6,s5,0x1f
800009a0:	120ac463          	bltz	s5,80000ac8 <_ZN9Serial_IO7vprintfEPKcPv+0x180>
800009a4:	00000593          	li	a1,0
800009a8:	ccccd6b7          	lui	a3,0xccccd
800009ac:	ccd68693          	addi	a3,a3,-819 # cccccccd <_ZN9Serial_IO6statusE+0x4cccb2b5>
800009b0:	ccccd637          	lui	a2,0xccccd
800009b4:	ccc60613          	addi	a2,a2,-820 # cccccccc <_ZN9Serial_IO6statusE+0x4cccb2b4>
800009b8:	00010513          	mv	a0,sp
800009bc:	016a87b3          	add	a5,s5,s6
800009c0:	0157b733          	sltu	a4,a5,s5
800009c4:	00e787b3          	add	a5,a5,a4
800009c8:	02d7b733          	mulhu	a4,a5,a3
800009cc:	00275813          	srli	a6,a4,0x2
800009d0:	ffc77713          	andi	a4,a4,-4
800009d4:	01070733          	add	a4,a4,a6
800009d8:	40e787b3          	sub	a5,a5,a4
800009dc:	40fa87b3          	sub	a5,s5,a5
800009e0:	02d787b3          	mul	a5,a5,a3
800009e4:	0017d793          	srli	a5,a5,0x1
800009e8:	20f7c7b3          	sh2add	a5,a5,a5
800009ec:	00179793          	slli	a5,a5,0x1
800009f0:	40fa87b3          	sub	a5,s5,a5
800009f4:	03078793          	addi	a5,a5,48
800009f8:	000a8313          	mv	t1,s5
800009fc:	000b0893          	mv	a7,s6
80000a00:	016a8733          	add	a4,s5,s6
80000a04:	01573833          	sltu	a6,a4,s5
80000a08:	01070733          	add	a4,a4,a6
80000a0c:	02d73833          	mulhu	a6,a4,a3
80000a10:	00285e13          	srli	t3,a6,0x2
80000a14:	ffc87813          	andi	a6,a6,-4
80000a18:	01c80833          	add	a6,a6,t3
80000a1c:	41070733          	sub	a4,a4,a6
80000a20:	40ea8733          	sub	a4,s5,a4
80000a24:	00eab833          	sltu	a6,s5,a4
80000a28:	410b0833          	sub	a6,s6,a6
80000a2c:	02d80833          	mul	a6,a6,a3
80000a30:	02c70e33          	mul	t3,a4,a2
80000a34:	01c80833          	add	a6,a6,t3
80000a38:	02d70e33          	mul	t3,a4,a3
80000a3c:	02d73733          	mulhu	a4,a4,a3
80000a40:	00e80733          	add	a4,a6,a4
80000a44:	01f71a93          	slli	s5,a4,0x1f
80000a48:	001e5813          	srli	a6,t3,0x1
80000a4c:	010aeab3          	or	s5,s5,a6
80000a50:	00175b13          	srli	s6,a4,0x1
80000a54:	00058813          	mv	a6,a1
80000a58:	00158593          	addi	a1,a1,1
80000a5c:	00b50733          	add	a4,a0,a1
80000a60:	fef70fa3          	sb	a5,-1(a4)
80000a64:	f4089ce3          	bnez	a7,800009bc <_ZN9Serial_IO7vprintfEPKcPv+0x74>
80000a68:	00089663          	bnez	a7,80000a74 <_ZN9Serial_IO7vprintfEPKcPv+0x12c>
80000a6c:	00900793          	li	a5,9
80000a70:	f467e6e3          	bltu	a5,t1,800009bc <_ZN9Serial_IO7vprintfEPKcPv+0x74>
80000a74:	0015d893          	srli	a7,a1,0x1
80000a78:	00100793          	li	a5,1
80000a7c:	02b7f863          	bgeu	a5,a1,80000aac <_ZN9Serial_IO7vprintfEPKcPv+0x164>
80000a80:	010107b3          	add	a5,sp,a6
80000a84:	00010713          	mv	a4,sp
80000a88:	00078513          	mv	a0,a5
80000a8c:	0007c683          	lbu	a3,0(a5)
80000a90:	00074603          	lbu	a2,0(a4)
80000a94:	00c78023          	sb	a2,0(a5)
80000a98:	00d70023          	sb	a3,0(a4)
80000a9c:	fff78793          	addi	a5,a5,-1
80000aa0:	00170713          	addi	a4,a4,1
80000aa4:	40f506b3          	sub	a3,a0,a5
80000aa8:	ff16e2e3          	bltu	a3,a7,80000a8c <_ZN9Serial_IO7vprintfEPKcPv+0x144>
80000aac:	00010513          	mv	a0,sp
80000ab0:	e5cff0ef          	jal	8000010c <_ZN9Serial_IO5writeEPKcm>
80000ab4:	00000513          	li	a0,0
80000ab8:	e30ff0ef          	jal	800000e8 <_ZN9Serial_IO5writeEc>
80000abc:	000b8b13          	mv	s6,s7
80000ac0:	00048a93          	mv	s5,s1
80000ac4:	66c0006f          	j	80001130 <_ZN9Serial_IO7vprintfEPKcPv+0x7e8>
80000ac8:	015037b3          	snez	a5,s5
80000acc:	41600b33          	neg	s6,s6
80000ad0:	40fb0b33          	sub	s6,s6,a5
80000ad4:	41500ab3          	neg	s5,s5
80000ad8:	02d00513          	li	a0,45
80000adc:	e0cff0ef          	jal	800000e8 <_ZN9Serial_IO5writeEc>
80000ae0:	ec5ff06f          	j	800009a4 <_ZN9Serial_IO7vprintfEPKcPv+0x5c>
80000ae4:	007b0793          	addi	a5,s6,7
80000ae8:	ff87f793          	andi	a5,a5,-8
80000aec:	00878b13          	addi	s6,a5,8
80000af0:	0007a703          	lw	a4,0(a5)
80000af4:	0047a783          	lw	a5,4(a5)
80000af8:	00070a93          	mv	s5,a4
80000afc:	00078b93          	mv	s7,a5
80000b00:	1207c263          	bltz	a5,80000c24 <_ZN9Serial_IO7vprintfEPKcPv+0x2dc>
80000b04:	00000593          	li	a1,0
80000b08:	ccccd6b7          	lui	a3,0xccccd
80000b0c:	ccd68693          	addi	a3,a3,-819 # cccccccd <_ZN9Serial_IO6statusE+0x4cccb2b5>
80000b10:	ccccd637          	lui	a2,0xccccd
80000b14:	ccc60613          	addi	a2,a2,-820 # cccccccc <_ZN9Serial_IO6statusE+0x4cccb2b4>
80000b18:	00010513          	mv	a0,sp
80000b1c:	017a87b3          	add	a5,s5,s7
80000b20:	0157b733          	sltu	a4,a5,s5
80000b24:	00e787b3          	add	a5,a5,a4
80000b28:	02d7b733          	mulhu	a4,a5,a3
80000b2c:	00275813          	srli	a6,a4,0x2
80000b30:	ffc77713          	andi	a4,a4,-4
80000b34:	01070733          	add	a4,a4,a6
80000b38:	40e787b3          	sub	a5,a5,a4
80000b3c:	40fa87b3          	sub	a5,s5,a5
80000b40:	02d787b3          	mul	a5,a5,a3
80000b44:	0017d793          	srli	a5,a5,0x1
80000b48:	20f7c7b3          	sh2add	a5,a5,a5
80000b4c:	00179793          	slli	a5,a5,0x1
80000b50:	40fa87b3          	sub	a5,s5,a5
80000b54:	03078793          	addi	a5,a5,48
80000b58:	000a8313          	mv	t1,s5
80000b5c:	000b8893          	mv	a7,s7
80000b60:	017a8733          	add	a4,s5,s7
80000b64:	01573833          	sltu	a6,a4,s5
80000b68:	01070733          	add	a4,a4,a6
80000b6c:	02d73833          	mulhu	a6,a4,a3
80000b70:	00285e13          	srli	t3,a6,0x2
80000b74:	ffc87813          	andi	a6,a6,-4
80000b78:	01c80833          	add	a6,a6,t3
80000b7c:	41070733          	sub	a4,a4,a6
80000b80:	40ea8733          	sub	a4,s5,a4
80000b84:	00eab833          	sltu	a6,s5,a4
80000b88:	410b8833          	sub	a6,s7,a6
80000b8c:	02d80833          	mul	a6,a6,a3
80000b90:	02c70e33          	mul	t3,a4,a2
80000b94:	01c80833          	add	a6,a6,t3
80000b98:	02d70e33          	mul	t3,a4,a3
80000b9c:	02d73733          	mulhu	a4,a4,a3
80000ba0:	00e80733          	add	a4,a6,a4
80000ba4:	01f71a93          	slli	s5,a4,0x1f
80000ba8:	001e5813          	srli	a6,t3,0x1
80000bac:	010aeab3          	or	s5,s5,a6
80000bb0:	00175b93          	srli	s7,a4,0x1
80000bb4:	00058813          	mv	a6,a1
80000bb8:	00158593          	addi	a1,a1,1
80000bbc:	00b50733          	add	a4,a0,a1
80000bc0:	fef70fa3          	sb	a5,-1(a4)
80000bc4:	f4089ce3          	bnez	a7,80000b1c <_ZN9Serial_IO7vprintfEPKcPv+0x1d4>
80000bc8:	00089663          	bnez	a7,80000bd4 <_ZN9Serial_IO7vprintfEPKcPv+0x28c>
80000bcc:	00900793          	li	a5,9
80000bd0:	f467e6e3          	bltu	a5,t1,80000b1c <_ZN9Serial_IO7vprintfEPKcPv+0x1d4>
80000bd4:	0015d893          	srli	a7,a1,0x1
80000bd8:	00100793          	li	a5,1
80000bdc:	02b7f863          	bgeu	a5,a1,80000c0c <_ZN9Serial_IO7vprintfEPKcPv+0x2c4>
80000be0:	010107b3          	add	a5,sp,a6
80000be4:	00010713          	mv	a4,sp
80000be8:	00078513          	mv	a0,a5
80000bec:	0007c683          	lbu	a3,0(a5)
80000bf0:	00074603          	lbu	a2,0(a4)
80000bf4:	00c78023          	sb	a2,0(a5)
80000bf8:	00d70023          	sb	a3,0(a4)
80000bfc:	fff78793          	addi	a5,a5,-1
80000c00:	00170713          	addi	a4,a4,1
80000c04:	40f506b3          	sub	a3,a0,a5
80000c08:	ff16e2e3          	bltu	a3,a7,80000bec <_ZN9Serial_IO7vprintfEPKcPv+0x2a4>
80000c0c:	00010513          	mv	a0,sp
80000c10:	cfcff0ef          	jal	8000010c <_ZN9Serial_IO5writeEPKcm>
80000c14:	00000513          	li	a0,0
80000c18:	cd0ff0ef          	jal	800000e8 <_ZN9Serial_IO5writeEc>
80000c1c:	00048a93          	mv	s5,s1
80000c20:	5100006f          	j	80001130 <_ZN9Serial_IO7vprintfEPKcPv+0x7e8>
80000c24:	00e03bb3          	snez	s7,a4
80000c28:	40f007b3          	neg	a5,a5
80000c2c:	40e00ab3          	neg	s5,a4
80000c30:	41778bb3          	sub	s7,a5,s7
80000c34:	02d00513          	li	a0,45
80000c38:	cb0ff0ef          	jal	800000e8 <_ZN9Serial_IO5writeEc>
80000c3c:	ec9ff06f          	j	80000b04 <_ZN9Serial_IO7vprintfEPKcPv+0x1bc>
80000c40:	004b0a93          	addi	s5,s6,4
80000c44:	000b2683          	lw	a3,0(s6)
80000c48:	00000893          	li	a7,0
80000c4c:	00000593          	li	a1,0
80000c50:	ccccd637          	lui	a2,0xccccd
80000c54:	ccd60613          	addi	a2,a2,-819 # cccccccd <_ZN9Serial_IO6statusE+0x4cccb2b5>
80000c58:	ccccd537          	lui	a0,0xccccd
80000c5c:	ccc50513          	addi	a0,a0,-820 # cccccccc <_ZN9Serial_IO6statusE+0x4cccb2b4>
80000c60:	00010813          	mv	a6,sp
80000c64:	011687b3          	add	a5,a3,a7
80000c68:	00d7b733          	sltu	a4,a5,a3
80000c6c:	00e787b3          	add	a5,a5,a4
80000c70:	02c7b733          	mulhu	a4,a5,a2
80000c74:	00275313          	srli	t1,a4,0x2
80000c78:	ffc77713          	andi	a4,a4,-4
80000c7c:	00670733          	add	a4,a4,t1
80000c80:	40e787b3          	sub	a5,a5,a4
80000c84:	40f687b3          	sub	a5,a3,a5
80000c88:	02c787b3          	mul	a5,a5,a2
80000c8c:	0017d793          	srli	a5,a5,0x1
80000c90:	20f7c7b3          	sh2add	a5,a5,a5
80000c94:	00179793          	slli	a5,a5,0x1
80000c98:	40f687b3          	sub	a5,a3,a5
80000c9c:	03078793          	addi	a5,a5,48
80000ca0:	00068e93          	mv	t4,a3
80000ca4:	00088e13          	mv	t3,a7
80000ca8:	01168733          	add	a4,a3,a7
80000cac:	00d73333          	sltu	t1,a4,a3
80000cb0:	00670733          	add	a4,a4,t1
80000cb4:	02c73333          	mulhu	t1,a4,a2
80000cb8:	00235f13          	srli	t5,t1,0x2
80000cbc:	ffc37313          	andi	t1,t1,-4
80000cc0:	01e30333          	add	t1,t1,t5
80000cc4:	40670733          	sub	a4,a4,t1
80000cc8:	40e68733          	sub	a4,a3,a4
80000ccc:	00e6b6b3          	sltu	a3,a3,a4
80000cd0:	40d886b3          	sub	a3,a7,a3
80000cd4:	02c686b3          	mul	a3,a3,a2
80000cd8:	02a708b3          	mul	a7,a4,a0
80000cdc:	011686b3          	add	a3,a3,a7
80000ce0:	02c708b3          	mul	a7,a4,a2
80000ce4:	02c73733          	mulhu	a4,a4,a2
80000ce8:	00e68733          	add	a4,a3,a4
80000cec:	01f71693          	slli	a3,a4,0x1f
80000cf0:	0018d893          	srli	a7,a7,0x1
80000cf4:	0116e6b3          	or	a3,a3,a7
80000cf8:	00175893          	srli	a7,a4,0x1
80000cfc:	00058313          	mv	t1,a1
80000d00:	00158593          	addi	a1,a1,1
80000d04:	00b80733          	add	a4,a6,a1
80000d08:	fef70fa3          	sb	a5,-1(a4)
80000d0c:	f40e1ce3          	bnez	t3,80000c64 <_ZN9Serial_IO7vprintfEPKcPv+0x31c>
80000d10:	000e1663          	bnez	t3,80000d1c <_ZN9Serial_IO7vprintfEPKcPv+0x3d4>
80000d14:	00900793          	li	a5,9
80000d18:	f5d7e6e3          	bltu	a5,t4,80000c64 <_ZN9Serial_IO7vprintfEPKcPv+0x31c>
80000d1c:	0015d813          	srli	a6,a1,0x1
80000d20:	00100793          	li	a5,1
80000d24:	02b7f863          	bgeu	a5,a1,80000d54 <_ZN9Serial_IO7vprintfEPKcPv+0x40c>
80000d28:	006107b3          	add	a5,sp,t1
80000d2c:	00010713          	mv	a4,sp
80000d30:	00078513          	mv	a0,a5
80000d34:	0007c683          	lbu	a3,0(a5)
80000d38:	00074603          	lbu	a2,0(a4)
80000d3c:	00c78023          	sb	a2,0(a5)
80000d40:	00d70023          	sb	a3,0(a4)
80000d44:	fff78793          	addi	a5,a5,-1
80000d48:	00170713          	addi	a4,a4,1
80000d4c:	40f506b3          	sub	a3,a0,a5
80000d50:	ff06e2e3          	bltu	a3,a6,80000d34 <_ZN9Serial_IO7vprintfEPKcPv+0x3ec>
80000d54:	00010513          	mv	a0,sp
80000d58:	bb4ff0ef          	jal	8000010c <_ZN9Serial_IO5writeEPKcm>
80000d5c:	00000513          	li	a0,0
80000d60:	b88ff0ef          	jal	800000e8 <_ZN9Serial_IO5writeEc>
80000d64:	000a8b13          	mv	s6,s5
80000d68:	00048a93          	mv	s5,s1
80000d6c:	3c40006f          	j	80001130 <_ZN9Serial_IO7vprintfEPKcPv+0x7e8>
80000d70:	002a8a93          	addi	s5,s5,2
80000d74:	015407b3          	add	a5,s0,s5
80000d78:	0007c783          	lbu	a5,0(a5)
80000d7c:	06400713          	li	a4,100
80000d80:	10e78a63          	beq	a5,a4,80000e94 <_ZN9Serial_IO7vprintfEPKcPv+0x54c>
80000d84:	06800713          	li	a4,104
80000d88:	06e78063          	beq	a5,a4,80000de8 <_ZN9Serial_IO7vprintfEPKcPv+0x4a0>
80000d8c:	06200713          	li	a4,98
80000d90:	1ae79e63          	bne	a5,a4,80000f4c <_ZN9Serial_IO7vprintfEPKcPv+0x604>
80000d94:	004b0493          	addi	s1,s6,4
80000d98:	000b4783          	lbu	a5,0(s6)
80000d9c:	0047d713          	srli	a4,a5,0x4
80000da0:	00f7f793          	andi	a5,a5,15
80000da4:	00900613          	li	a2,9
80000da8:	03078693          	addi	a3,a5,48
80000dac:	00f67463          	bgeu	a2,a5,80000db4 <_ZN9Serial_IO7vprintfEPKcPv+0x46c>
80000db0:	03778693          	addi	a3,a5,55
80000db4:	00900613          	li	a2,9
80000db8:	03770793          	addi	a5,a4,55
80000dbc:	00e66463          	bltu	a2,a4,80000dc4 <_ZN9Serial_IO7vprintfEPKcPv+0x47c>
80000dc0:	03070793          	addi	a5,a4,48
80000dc4:	00d100a3          	sb	a3,1(sp)
80000dc8:	00f10023          	sb	a5,0(sp)
80000dcc:	00200593          	li	a1,2
80000dd0:	00010513          	mv	a0,sp
80000dd4:	b38ff0ef          	jal	8000010c <_ZN9Serial_IO5writeEPKcm>
80000dd8:	00000513          	li	a0,0
80000ddc:	b0cff0ef          	jal	800000e8 <_ZN9Serial_IO5writeEc>
80000de0:	00048b13          	mv	s6,s1
80000de4:	34c0006f          	j	80001130 <_ZN9Serial_IO7vprintfEPKcPv+0x7e8>
80000de8:	004b0493          	addi	s1,s6,4
80000dec:	000b2703          	lw	a4,0(s6)
80000df0:	01071793          	slli	a5,a4,0x10
80000df4:	0107d793          	srli	a5,a5,0x10
80000df8:	0047d693          	srli	a3,a5,0x4
80000dfc:	00f6f693          	andi	a3,a3,15
80000e00:	00f77713          	andi	a4,a4,15
80000e04:	00900593          	li	a1,9
80000e08:	03070613          	addi	a2,a4,48
80000e0c:	00e5f463          	bgeu	a1,a4,80000e14 <_ZN9Serial_IO7vprintfEPKcPv+0x4cc>
80000e10:	03770613          	addi	a2,a4,55
80000e14:	00c10023          	sb	a2,0(sp)
80000e18:	00900613          	li	a2,9
80000e1c:	03768713          	addi	a4,a3,55
80000e20:	00d66463          	bltu	a2,a3,80000e28 <_ZN9Serial_IO7vprintfEPKcPv+0x4e0>
80000e24:	03068713          	addi	a4,a3,48
80000e28:	00e100a3          	sb	a4,1(sp)
80000e2c:	00c7d713          	srli	a4,a5,0xc
80000e30:	0087d793          	srli	a5,a5,0x8
80000e34:	00f7f793          	andi	a5,a5,15
80000e38:	00900613          	li	a2,9
80000e3c:	03078693          	addi	a3,a5,48
80000e40:	00f67463          	bgeu	a2,a5,80000e48 <_ZN9Serial_IO7vprintfEPKcPv+0x500>
80000e44:	03778693          	addi	a3,a5,55
80000e48:	00d10123          	sb	a3,2(sp)
80000e4c:	00900693          	li	a3,9
80000e50:	03770793          	addi	a5,a4,55
80000e54:	00e6e463          	bltu	a3,a4,80000e5c <_ZN9Serial_IO7vprintfEPKcPv+0x514>
80000e58:	03070793          	addi	a5,a4,48
80000e5c:	00014703          	lbu	a4,0(sp)
80000e60:	00e101a3          	sb	a4,3(sp)
80000e64:	00f10023          	sb	a5,0(sp)
80000e68:	00214783          	lbu	a5,2(sp)
80000e6c:	00114703          	lbu	a4,1(sp)
80000e70:	00e10123          	sb	a4,2(sp)
80000e74:	00f100a3          	sb	a5,1(sp)
80000e78:	00400593          	li	a1,4
80000e7c:	00010513          	mv	a0,sp
80000e80:	a8cff0ef          	jal	8000010c <_ZN9Serial_IO5writeEPKcm>
80000e84:	00000513          	li	a0,0
80000e88:	a60ff0ef          	jal	800000e8 <_ZN9Serial_IO5writeEc>
80000e8c:	00048b13          	mv	s6,s1
80000e90:	2a00006f          	j	80001130 <_ZN9Serial_IO7vprintfEPKcPv+0x7e8>
80000e94:	007b0793          	addi	a5,s6,7
80000e98:	ff87f793          	andi	a5,a5,-8
80000e9c:	00878b13          	addi	s6,a5,8
80000ea0:	0007a703          	lw	a4,0(a5)
80000ea4:	0047a503          	lw	a0,4(a5)
80000ea8:	00010593          	mv	a1,sp
80000eac:	01010893          	addi	a7,sp,16
80000eb0:	00010693          	mv	a3,sp
80000eb4:	00900813          	li	a6,9
80000eb8:	0300006f          	j	80000ee8 <_ZN9Serial_IO7vprintfEPKcPv+0x5a0>
80000ebc:	03060613          	addi	a2,a2,48
80000ec0:	00c68023          	sb	a2,0(a3)
80000ec4:	03c0006f          	j	80000f00 <_ZN9Serial_IO7vprintfEPKcPv+0x5b8>
80000ec8:	03778793          	addi	a5,a5,55
80000ecc:	00f680a3          	sb	a5,1(a3)
80000ed0:	01851793          	slli	a5,a0,0x18
80000ed4:	00875713          	srli	a4,a4,0x8
80000ed8:	00e7e733          	or	a4,a5,a4
80000edc:	00855513          	srli	a0,a0,0x8
80000ee0:	00268693          	addi	a3,a3,2
80000ee4:	03168663          	beq	a3,a7,80000f10 <_ZN9Serial_IO7vprintfEPKcPv+0x5c8>
80000ee8:	00475793          	srli	a5,a4,0x4
80000eec:	00f7f793          	andi	a5,a5,15
80000ef0:	00f77613          	andi	a2,a4,15
80000ef4:	fcc874e3          	bgeu	a6,a2,80000ebc <_ZN9Serial_IO7vprintfEPKcPv+0x574>
80000ef8:	03760613          	addi	a2,a2,55
80000efc:	00c68023          	sb	a2,0(a3)
80000f00:	fcf864e3          	bltu	a6,a5,80000ec8 <_ZN9Serial_IO7vprintfEPKcPv+0x580>
80000f04:	03078793          	addi	a5,a5,48
80000f08:	00f680a3          	sb	a5,1(a3)
80000f0c:	fc5ff06f          	j	80000ed0 <_ZN9Serial_IO7vprintfEPKcPv+0x588>
80000f10:	00858613          	addi	a2,a1,8
80000f14:	00058793          	mv	a5,a1
80000f18:	00f5c703          	lbu	a4,15(a1)
80000f1c:	0007c683          	lbu	a3,0(a5)
80000f20:	00d587a3          	sb	a3,15(a1)
80000f24:	00e78023          	sb	a4,0(a5)
80000f28:	fff58593          	addi	a1,a1,-1
80000f2c:	00178793          	addi	a5,a5,1
80000f30:	fec794e3          	bne	a5,a2,80000f18 <_ZN9Serial_IO7vprintfEPKcPv+0x5d0>
80000f34:	01000593          	li	a1,16
80000f38:	00010513          	mv	a0,sp
80000f3c:	9d0ff0ef          	jal	8000010c <_ZN9Serial_IO5writeEPKcm>
80000f40:	00000513          	li	a0,0
80000f44:	9a4ff0ef          	jal	800000e8 <_ZN9Serial_IO5writeEc>
80000f48:	1e80006f          	j	80001130 <_ZN9Serial_IO7vprintfEPKcPv+0x7e8>
80000f4c:	004b0a93          	addi	s5,s6,4
80000f50:	000b2583          	lw	a1,0(s6)
80000f54:	00010693          	mv	a3,sp
80000f58:	00810813          	addi	a6,sp,8
80000f5c:	00010713          	mv	a4,sp
80000f60:	00900513          	li	a0,9
80000f64:	0240006f          	j	80000f88 <_ZN9Serial_IO7vprintfEPKcPv+0x640>
80000f68:	03060613          	addi	a2,a2,48
80000f6c:	00c70023          	sb	a2,0(a4)
80000f70:	0300006f          	j	80000fa0 <_ZN9Serial_IO7vprintfEPKcPv+0x658>
80000f74:	03778793          	addi	a5,a5,55
80000f78:	00f700a3          	sb	a5,1(a4)
80000f7c:	0085d593          	srli	a1,a1,0x8
80000f80:	00270713          	addi	a4,a4,2
80000f84:	02e80663          	beq	a6,a4,80000fb0 <_ZN9Serial_IO7vprintfEPKcPv+0x668>
80000f88:	0045d793          	srli	a5,a1,0x4
80000f8c:	00f7f793          	andi	a5,a5,15
80000f90:	00f5f613          	andi	a2,a1,15
80000f94:	fcc57ae3          	bgeu	a0,a2,80000f68 <_ZN9Serial_IO7vprintfEPKcPv+0x620>
80000f98:	03760613          	addi	a2,a2,55
80000f9c:	00c70023          	sb	a2,0(a4)
80000fa0:	fcf56ae3          	bltu	a0,a5,80000f74 <_ZN9Serial_IO7vprintfEPKcPv+0x62c>
80000fa4:	03078793          	addi	a5,a5,48
80000fa8:	00f700a3          	sb	a5,1(a4)
80000fac:	fd1ff06f          	j	80000f7c <_ZN9Serial_IO7vprintfEPKcPv+0x634>
80000fb0:	00468593          	addi	a1,a3,4
80000fb4:	00068793          	mv	a5,a3
80000fb8:	0076c703          	lbu	a4,7(a3)
80000fbc:	0007c603          	lbu	a2,0(a5)
80000fc0:	00c683a3          	sb	a2,7(a3)
80000fc4:	00e78023          	sb	a4,0(a5)
80000fc8:	fff68693          	addi	a3,a3,-1
80000fcc:	00178793          	addi	a5,a5,1
80000fd0:	fef594e3          	bne	a1,a5,80000fb8 <_ZN9Serial_IO7vprintfEPKcPv+0x670>
80000fd4:	00800593          	li	a1,8
80000fd8:	00010513          	mv	a0,sp
80000fdc:	930ff0ef          	jal	8000010c <_ZN9Serial_IO5writeEPKcm>
80000fe0:	00000513          	li	a0,0
80000fe4:	904ff0ef          	jal	800000e8 <_ZN9Serial_IO5writeEc>
80000fe8:	000a8b13          	mv	s6,s5
80000fec:	00048a93          	mv	s5,s1
80000ff0:	1400006f          	j	80001130 <_ZN9Serial_IO7vprintfEPKcPv+0x7e8>
80000ff4:	002a8a93          	addi	s5,s5,2
80000ff8:	015407b3          	add	a5,s0,s5
80000ffc:	0007c783          	lbu	a5,0(a5)
80001000:	06400713          	li	a4,100
80001004:	06e78663          	beq	a5,a4,80001070 <_ZN9Serial_IO7vprintfEPKcPv+0x728>
80001008:	06800713          	li	a4,104
8000100c:	04e78863          	beq	a5,a4,8000105c <_ZN9Serial_IO7vprintfEPKcPv+0x714>
80001010:	06200713          	li	a4,98
80001014:	0ae79c63          	bne	a5,a4,800010cc <_ZN9Serial_IO7vprintfEPKcPv+0x784>
80001018:	004b0493          	addi	s1,s6,4
8000101c:	000b4683          	lbu	a3,0(s6)
80001020:	00010793          	mv	a5,sp
80001024:	ff810613          	addi	a2,sp,-8
80001028:	0016f713          	andi	a4,a3,1
8000102c:	03070713          	addi	a4,a4,48
80001030:	00e783a3          	sb	a4,7(a5)
80001034:	0016d693          	srli	a3,a3,0x1
80001038:	fff78793          	addi	a5,a5,-1
8000103c:	fec796e3          	bne	a5,a2,80001028 <_ZN9Serial_IO7vprintfEPKcPv+0x6e0>
80001040:	00800593          	li	a1,8
80001044:	00010513          	mv	a0,sp
80001048:	8c4ff0ef          	jal	8000010c <_ZN9Serial_IO5writeEPKcm>
8000104c:	00000513          	li	a0,0
80001050:	898ff0ef          	jal	800000e8 <_ZN9Serial_IO5writeEc>
80001054:	00048b13          	mv	s6,s1
80001058:	0d80006f          	j	80001130 <_ZN9Serial_IO7vprintfEPKcPv+0x7e8>
8000105c:	004b0493          	addi	s1,s6,4
80001060:	000b4503          	lbu	a0,0(s6)
80001064:	8e4ff0ef          	jal	80000148 <_ZN9Serial_IO6writeBItEEvT_>
80001068:	00048b13          	mv	s6,s1
8000106c:	0c40006f          	j	80001130 <_ZN9Serial_IO7vprintfEPKcPv+0x7e8>
80001070:	007b0713          	addi	a4,s6,7
80001074:	ff877713          	andi	a4,a4,-8
80001078:	00870b13          	addi	s6,a4,8
8000107c:	00072783          	lw	a5,0(a4)
80001080:	00472603          	lw	a2,4(a4)
80001084:	03f10713          	addi	a4,sp,63
80001088:	00010593          	mv	a1,sp
8000108c:	0017f693          	andi	a3,a5,1
80001090:	03068693          	addi	a3,a3,48
80001094:	00d70023          	sb	a3,0(a4)
80001098:	01f61693          	slli	a3,a2,0x1f
8000109c:	0017d793          	srli	a5,a5,0x1
800010a0:	00f6e7b3          	or	a5,a3,a5
800010a4:	00165613          	srli	a2,a2,0x1
800010a8:	00070693          	mv	a3,a4
800010ac:	fff70713          	addi	a4,a4,-1
800010b0:	fcd59ee3          	bne	a1,a3,8000108c <_ZN9Serial_IO7vprintfEPKcPv+0x744>
800010b4:	04000593          	li	a1,64
800010b8:	00010513          	mv	a0,sp
800010bc:	850ff0ef          	jal	8000010c <_ZN9Serial_IO5writeEPKcm>
800010c0:	00000513          	li	a0,0
800010c4:	824ff0ef          	jal	800000e8 <_ZN9Serial_IO5writeEc>
800010c8:	0680006f          	j	80001130 <_ZN9Serial_IO7vprintfEPKcPv+0x7e8>
800010cc:	004b0a93          	addi	s5,s6,4
800010d0:	000b2683          	lw	a3,0(s6)
800010d4:	01f10793          	addi	a5,sp,31
800010d8:	00010613          	mv	a2,sp
800010dc:	0016f713          	andi	a4,a3,1
800010e0:	03070713          	addi	a4,a4,48
800010e4:	00e78023          	sb	a4,0(a5)
800010e8:	0016d693          	srli	a3,a3,0x1
800010ec:	00078713          	mv	a4,a5
800010f0:	fff78793          	addi	a5,a5,-1
800010f4:	fee614e3          	bne	a2,a4,800010dc <_ZN9Serial_IO7vprintfEPKcPv+0x794>
800010f8:	02000593          	li	a1,32
800010fc:	00010513          	mv	a0,sp
80001100:	80cff0ef          	jal	8000010c <_ZN9Serial_IO5writeEPKcm>
80001104:	00000513          	li	a0,0
80001108:	fe1fe0ef          	jal	800000e8 <_ZN9Serial_IO5writeEc>
8000110c:	000a8b13          	mv	s6,s5
80001110:	00048a93          	mv	s5,s1
80001114:	01c0006f          	j	80001130 <_ZN9Serial_IO7vprintfEPKcPv+0x7e8>
80001118:	80001537          	lui	a0,0x80001
8000111c:	67050513          	addi	a0,a0,1648 # 80001670 <audio_recording+0x428>
80001120:	870ff0ef          	jal	80000190 <_ZN9Serial_IO5writeEPKc>
80001124:	00048a93          	mv	s5,s1
80001128:	0080006f          	j	80001130 <_ZN9Serial_IO7vprintfEPKcPv+0x7e8>
8000112c:	fbdfe0ef          	jal	800000e8 <_ZN9Serial_IO5writeEc>
80001130:	001a8a93          	addi	s5,s5,1
80001134:	015407b3          	add	a5,s0,s5
80001138:	0007c503          	lbu	a0,0(a5)
8000113c:	02050a63          	beqz	a0,80001170 <_ZN9Serial_IO7vprintfEPKcPv+0x828>
80001140:	ff2516e3          	bne	a0,s2,8000112c <_ZN9Serial_IO7vprintfEPKcPv+0x7e4>
80001144:	001a8493          	addi	s1,s5,1
80001148:	009407b3          	add	a5,s0,s1
8000114c:	0007c783          	lbu	a5,0(a5)
80001150:	f9e78793          	addi	a5,a5,-98
80001154:	0ff7f713          	zext.b	a4,a5
80001158:	fce9e0e3          	bltu	s3,a4,80001118 <_ZN9Serial_IO7vprintfEPKcPv+0x7d0>
8000115c:	00070793          	mv	a5,a4
80001160:	9a8a0713          	addi	a4,s4,-1624 # 800019a8 <audio_recording+0x760>
80001164:	20e7c7b3          	sh2add	a5,a5,a4
80001168:	0007a783          	lw	a5,0(a5)
8000116c:	00078067          	jr	a5
80001170:	06412483          	lw	s1,100(sp)
80001174:	06012903          	lw	s2,96(sp)
80001178:	05c12983          	lw	s3,92(sp)
8000117c:	05812a03          	lw	s4,88(sp)
80001180:	05412a83          	lw	s5,84(sp)
80001184:	05012b03          	lw	s6,80(sp)
80001188:	04c12b83          	lw	s7,76(sp)
8000118c:	06c12083          	lw	ra,108(sp)
80001190:	06812403          	lw	s0,104(sp)
80001194:	07010113          	addi	sp,sp,112
80001198:	00008067          	ret

8000119c <_ZN9Serial_IO6printfEPKcz>:
8000119c:	fc010113          	addi	sp,sp,-64
800011a0:	00112e23          	sw	ra,28(sp)
800011a4:	02b12223          	sw	a1,36(sp)
800011a8:	02c12423          	sw	a2,40(sp)
800011ac:	02d12623          	sw	a3,44(sp)
800011b0:	02e12823          	sw	a4,48(sp)
800011b4:	02f12a23          	sw	a5,52(sp)
800011b8:	03012c23          	sw	a6,56(sp)
800011bc:	03112e23          	sw	a7,60(sp)
800011c0:	02410593          	addi	a1,sp,36
800011c4:	00b12623          	sw	a1,12(sp)
800011c8:	f80ff0ef          	jal	80000948 <_ZN9Serial_IO7vprintfEPKcPv>
800011cc:	00000513          	li	a0,0
800011d0:	f19fe0ef          	jal	800000e8 <_ZN9Serial_IO5writeEc>
800011d4:	01c12083          	lw	ra,28(sp)
800011d8:	04010113          	addi	sp,sp,64
800011dc:	00008067          	ret

800011e0 <_Z11getRegisterhPKcR8Ethernet>:
800011e0:	00062703          	lw	a4,0(a2)
800011e4:	fe010113          	addi	sp,sp,-32
800011e8:	00812c23          	sw	s0,24(sp)
800011ec:	20e547b3          	sh2add	a5,a0,a4
800011f0:	0007a403          	lw	s0,0(a5)
800011f4:	00058513          	mv	a0,a1
800011f8:	00112e23          	sw	ra,28(sp)
800011fc:	01041413          	slli	s0,s0,0x10
80001200:	f9dff0ef          	jal	8000119c <_ZN9Serial_IO6printfEPKcz>
80001204:	01045413          	srli	s0,s0,0x10
80001208:	00010513          	mv	a0,sp
8000120c:	00f10793          	addi	a5,sp,15
80001210:	00147713          	andi	a4,s0,1
80001214:	03070713          	addi	a4,a4,48
80001218:	00e78023          	sb	a4,0(a5)
8000121c:	00078713          	mv	a4,a5
80001220:	00145413          	srli	s0,s0,0x1
80001224:	fff78793          	addi	a5,a5,-1
80001228:	fee514e3          	bne	a0,a4,80001210 <_Z11getRegisterhPKcR8Ethernet+0x30>
8000122c:	01000593          	li	a1,16
80001230:	eddfe0ef          	jal	8000010c <_ZN9Serial_IO5writeEPKcm>
80001234:	01812403          	lw	s0,24(sp)
80001238:	01c12083          	lw	ra,28(sp)
8000123c:	00000513          	li	a0,0
80001240:	02010113          	addi	sp,sp,32
80001244:	ea5fe06f          	j	800000e8 <_ZN9Serial_IO5writeEc>

80001248 <audio_recording>:
80001248:	0001c537          	lui	a0,0x1c
8000124c:	f8010113          	addi	sp,sp,-128
80001250:	00300713          	li	a4,3
80001254:	00000693          	li	a3,0
80001258:	00000613          	li	a2,0
8000125c:	00100593          	li	a1,1
80001260:	20050513          	addi	a0,a0,512 # 1c200 <copy_loop+0x1c1dc>
80001264:	06112e23          	sw	ra,124(sp)
80001268:	d99fe0ef          	jal	80000000 <_ZN9Serial_IO4initEmbN4UART12parityMode_eENS0_10stopBits_eENS0_12dataLenght_eE>
8000126c:	80001537          	lui	a0,0x80001
80001270:	68450513          	addi	a0,a0,1668 # 80001684 <audio_recording+0x43c>
80001274:	f1dfe0ef          	jal	80000190 <_ZN9Serial_IO5writeEPKc>
80001278:	02010513          	addi	a0,sp,32
8000127c:	8c8ff0ef          	jal	80000344 <_ZN8EthernetC1Ev>
80001280:	00100613          	li	a2,1
80001284:	00060593          	mv	a1,a2
80001288:	00000713          	li	a4,0
8000128c:	00000693          	li	a3,0
80001290:	02010513          	addi	a0,sp,32
80001294:	a3cff0ef          	jal	800004d0 <_ZN8Ethernet4initENS_10ethSpeed_eENS_11ethDuplex_eEbNS_9ethMode_eE>
80001298:	03c10513          	addi	a0,sp,60
8000129c:	f31fe0ef          	jal	800001cc <_ZN7PDM2PCMC1Ev>
800012a0:	00000593          	li	a1,0
800012a4:	01010513          	addi	a0,sp,16
800012a8:	ca0ff0ef          	jal	80000748 <_ZN5TimerC1Em>
800012ac:	80001537          	lui	a0,0x80001
800012b0:	68c50513          	addi	a0,a0,1676 # 8000168c <audio_recording+0x444>
800012b4:	eddfe0ef          	jal	80000190 <_ZN9Serial_IO5writeEPKc>
800012b8:	0000c737          	lui	a4,0xc
800012bc:	002dc6b7          	lui	a3,0x2dc
800012c0:	00810793          	addi	a5,sp,8
800012c4:	b8070713          	addi	a4,a4,-1152 # bb80 <copy_loop+0xbb5c>
800012c8:	03c10513          	addi	a0,sp,60
800012cc:	6c068693          	addi	a3,a3,1728 # 2dc6c0 <copy_loop+0x2dc69c>
800012d0:	00000613          	li	a2,0
800012d4:	00000593          	li	a1,0
800012d8:	00012423          	sw	zero,8(sp)
800012dc:	f69fe0ef          	jal	80000244 <_ZN7PDM2PCM4initENS_9channel_eEbmmPNS_7error_eE>
800012e0:	00812783          	lw	a5,8(sp)
800012e4:	00400713          	li	a4,4
800012e8:	36e78c63          	beq	a5,a4,80001660 <audio_recording+0x418>
800012ec:	00100693          	li	a3,1
800012f0:	36d78063          	beq	a5,a3,80001650 <audio_recording+0x408>
800012f4:	fff00593          	li	a1,-1
800012f8:	fff00613          	li	a2,-1
800012fc:	01010513          	addi	a0,sp,16
80001300:	06812c23          	sw	s0,120(sp)
80001304:	06912a23          	sw	s1,116(sp)
80001308:	07212823          	sw	s2,112(sp)
8000130c:	07312623          	sw	s3,108(sp)
80001310:	07412423          	sw	s4,104(sp)
80001314:	800019b7          	lui	s3,0x80001
80001318:	d08ff0ef          	jal	80000820 <_ZN5Timer4initEyNS_11timerMode_eE>
8000131c:	6d498513          	addi	a0,s3,1748 # 800016d4 <audio_recording+0x48c>
80001320:	e71fe0ef          	jal	80000190 <_ZN9Serial_IO5writeEPKc>
80001324:	80001537          	lui	a0,0x80001
80001328:	6dc50513          	addi	a0,a0,1756 # 800016dc <audio_recording+0x494>
8000132c:	e65fe0ef          	jal	80000190 <_ZN9Serial_IO5writeEPKc>
80001330:	03c10513          	addi	a0,sp,60
80001334:	fddfe0ef          	jal	80000310 <_ZN7PDM2PCM14startRecordingEv>
80001338:	3b9ad5b7          	lui	a1,0x3b9ad
8000133c:	a0058593          	addi	a1,a1,-1536 # 3b9aca00 <copy_loop+0x3b9ac9dc>
80001340:	00000613          	li	a2,0
80001344:	01010513          	addi	a0,sp,16
80001348:	d3cff0ef          	jal	80000884 <_ZN5Timer12setThresholdEy>
8000134c:	00000593          	li	a1,0
80001350:	00000613          	li	a2,0
80001354:	01010513          	addi	a0,sp,16
80001358:	d1cff0ef          	jal	80000874 <_ZN5Timer7setTimeEy>
8000135c:	01010513          	addi	a0,sp,16
80001360:	d34ff0ef          	jal	80000894 <_ZN5Timer5startEv>
80001364:	80001537          	lui	a0,0x80001
80001368:	6e850513          	addi	a0,a0,1768 # 800016e8 <audio_recording+0x4a0>
8000136c:	80002937          	lui	s2,0x80002
80001370:	e21fe0ef          	jal	80000190 <_ZN9Serial_IO5writeEPKc>
80001374:	00190913          	addi	s2,s2,1 # 80002001 <_ZN9Serial_IO6statusE+0x5e9>
80001378:	04012403          	lw	s0,64(sp)
8000137c:	00000a13          	li	s4,0
80001380:	00000493          	li	s1,0
80001384:	0100006f          	j	80001394 <audio_recording+0x14c>
80001388:	00042783          	lw	a5,0(s0)
8000138c:	4817d793          	bexti	a5,a5,0x1
80001390:	24078463          	beqz	a5,800015d8 <audio_recording+0x390>
80001394:	01c12783          	lw	a5,28(sp)
80001398:	0007a783          	lw	a5,0(a5)
8000139c:	4837d793          	bexti	a5,a5,0x3
800013a0:	fe0784e3          	beqz	a5,80001388 <audio_recording+0x140>
800013a4:	00048593          	mv	a1,s1
800013a8:	6d498513          	addi	a0,s3,1748
800013ac:	df1ff0ef          	jal	8000119c <_ZN9Serial_IO6printfEPKcz>
800013b0:	03c10513          	addi	a0,sp,60
800013b4:	f71fe0ef          	jal	80000324 <_ZN7PDM2PCM13stopRecordingEv>
800013b8:	80001537          	lui	a0,0x80001
800013bc:	00048593          	mv	a1,s1
800013c0:	6f450513          	addi	a0,a0,1780 # 800016f4 <audio_recording+0x4ac>
800013c4:	dd9ff0ef          	jal	8000119c <_ZN9Serial_IO6printfEPKcz>
800013c8:	80001537          	lui	a0,0x80001
800013cc:	000a0593          	mv	a1,s4
800013d0:	71050513          	addi	a0,a0,1808 # 80001710 <audio_recording+0x4c8>
800013d4:	dc9ff0ef          	jal	8000119c <_ZN9Serial_IO6printfEPKcz>
800013d8:	80001537          	lui	a0,0x80001
800013dc:	72850513          	addi	a0,a0,1832 # 80001728 <audio_recording+0x4e0>
800013e0:	db1fe0ef          	jal	80000190 <_ZN9Serial_IO5writeEPKc>
800013e4:	3e800593          	li	a1,1000
800013e8:	00000613          	li	a2,0
800013ec:	01010513          	addi	a0,sp,16
800013f0:	cc8ff0ef          	jal	800008b8 <_ZN5Timer5delayEy>
800013f4:	80001537          	lui	a0,0x80001
800013f8:	74450513          	addi	a0,a0,1860 # 80001744 <audio_recording+0x4fc>
800013fc:	d95fe0ef          	jal	80000190 <_ZN9Serial_IO5writeEPKc>
80001400:	02010513          	addi	a0,sp,32
80001404:	9d8ff0ef          	jal	800005dc <_ZN8Ethernet8waitLinkEv>
80001408:	80001537          	lui	a0,0x80001
8000140c:	76050513          	addi	a0,a0,1888 # 80001760 <audio_recording+0x518>
80001410:	d81fe0ef          	jal	80000190 <_ZN9Serial_IO5writeEPKc>
80001414:	3e800593          	li	a1,1000
80001418:	00000613          	li	a2,0
8000141c:	01010513          	addi	a0,sp,16
80001420:	c98ff0ef          	jal	800008b8 <_ZN5Timer5delayEy>
80001424:	800015b7          	lui	a1,0x80001
80001428:	02010613          	addi	a2,sp,32
8000142c:	78058593          	addi	a1,a1,1920 # 80001780 <audio_recording+0x538>
80001430:	00000513          	li	a0,0
80001434:	dadff0ef          	jal	800011e0 <_Z11getRegisterhPKcR8Ethernet>
80001438:	800015b7          	lui	a1,0x80001
8000143c:	02010613          	addi	a2,sp,32
80001440:	7a058593          	addi	a1,a1,1952 # 800017a0 <audio_recording+0x558>
80001444:	00100513          	li	a0,1
80001448:	d99ff0ef          	jal	800011e0 <_Z11getRegisterhPKcR8Ethernet>
8000144c:	800015b7          	lui	a1,0x80001
80001450:	02010613          	addi	a2,sp,32
80001454:	7c058593          	addi	a1,a1,1984 # 800017c0 <audio_recording+0x578>
80001458:	00200513          	li	a0,2
8000145c:	d85ff0ef          	jal	800011e0 <_Z11getRegisterhPKcR8Ethernet>
80001460:	800015b7          	lui	a1,0x80001
80001464:	02010613          	addi	a2,sp,32
80001468:	7e458593          	addi	a1,a1,2020 # 800017e4 <audio_recording+0x59c>
8000146c:	00300513          	li	a0,3
80001470:	d71ff0ef          	jal	800011e0 <_Z11getRegisterhPKcR8Ethernet>
80001474:	800025b7          	lui	a1,0x80002
80001478:	02010613          	addi	a2,sp,32
8000147c:	80858593          	addi	a1,a1,-2040 # 80001808 <audio_recording+0x5c0>
80001480:	00400513          	li	a0,4
80001484:	d5dff0ef          	jal	800011e0 <_Z11getRegisterhPKcR8Ethernet>
80001488:	800025b7          	lui	a1,0x80002
8000148c:	02010613          	addi	a2,sp,32
80001490:	83858593          	addi	a1,a1,-1992 # 80001838 <audio_recording+0x5f0>
80001494:	00500513          	li	a0,5
80001498:	d49ff0ef          	jal	800011e0 <_Z11getRegisterhPKcR8Ethernet>
8000149c:	800025b7          	lui	a1,0x80002
800014a0:	02010613          	addi	a2,sp,32
800014a4:	86858593          	addi	a1,a1,-1944 # 80001868 <audio_recording+0x620>
800014a8:	00600513          	li	a0,6
800014ac:	d35ff0ef          	jal	800011e0 <_Z11getRegisterhPKcR8Ethernet>
800014b0:	800025b7          	lui	a1,0x80002
800014b4:	02010613          	addi	a2,sp,32
800014b8:	89458593          	addi	a1,a1,-1900 # 80001894 <audio_recording+0x64c>
800014bc:	01100513          	li	a0,17
800014c0:	d21ff0ef          	jal	800011e0 <_Z11getRegisterhPKcR8Ethernet>
800014c4:	800025b7          	lui	a1,0x80002
800014c8:	02010613          	addi	a2,sp,32
800014cc:	8bc58593          	addi	a1,a1,-1860 # 800018bc <audio_recording+0x674>
800014d0:	01200513          	li	a0,18
800014d4:	d0dff0ef          	jal	800011e0 <_Z11getRegisterhPKcR8Ethernet>
800014d8:	800025b7          	lui	a1,0x80002
800014dc:	02010613          	addi	a2,sp,32
800014e0:	8dc58593          	addi	a1,a1,-1828 # 800018dc <audio_recording+0x694>
800014e4:	01a00513          	li	a0,26
800014e8:	cf9ff0ef          	jal	800011e0 <_Z11getRegisterhPKcR8Ethernet>
800014ec:	800025b7          	lui	a1,0x80002
800014f0:	02010613          	addi	a2,sp,32
800014f4:	90458593          	addi	a1,a1,-1788 # 80001904 <audio_recording+0x6bc>
800014f8:	01b00513          	li	a0,27
800014fc:	ce5ff0ef          	jal	800011e0 <_Z11getRegisterhPKcR8Ethernet>
80001500:	800025b7          	lui	a1,0x80002
80001504:	02010613          	addi	a2,sp,32
80001508:	93858593          	addi	a1,a1,-1736 # 80001938 <audio_recording+0x6f0>
8000150c:	01d00513          	li	a0,29
80001510:	cd1ff0ef          	jal	800011e0 <_Z11getRegisterhPKcR8Ethernet>
80001514:	800025b7          	lui	a1,0x80002
80001518:	02010613          	addi	a2,sp,32
8000151c:	95c58593          	addi	a1,a1,-1700 # 8000195c <audio_recording+0x714>
80001520:	01e00513          	li	a0,30
80001524:	cbdff0ef          	jal	800011e0 <_Z11getRegisterhPKcR8Ethernet>
80001528:	800025b7          	lui	a1,0x80002
8000152c:	02010613          	addi	a2,sp,32
80001530:	97c58593          	addi	a1,a1,-1668 # 8000197c <audio_recording+0x734>
80001534:	01f00513          	li	a0,31
80001538:	ca9ff0ef          	jal	800011e0 <_Z11getRegisterhPKcR8Ethernet>
8000153c:	c33ae737          	lui	a4,0xc33ae
80001540:	000017b7          	lui	a5,0x1
80001544:	0bb70713          	addi	a4,a4,187 # c33ae0bb <_ZN9Serial_IO6statusE+0x433ac6a3>
80001548:	88f78793          	addi	a5,a5,-1905 # 88f <copy_loop+0x86b>
8000154c:	00149493          	slli	s1,s1,0x1
80001550:	00e12423          	sw	a4,8(sp)
80001554:	00f11623          	sh	a5,12(sp)
80001558:	00000413          	li	s0,0
8000155c:	800029b7          	lui	s3,0x80002
80001560:	5dc00913          	li	s2,1500
80001564:	02048a63          	beqz	s1,80001598 <audio_recording+0x350>
80001568:	40848833          	sub	a6,s1,s0
8000156c:	00812683          	lw	a3,8(sp)
80001570:	00c12703          	lw	a4,12(sp)
80001574:	00000793          	li	a5,0
80001578:	5dc00613          	li	a2,1500
8000157c:	02010513          	addi	a0,sp,32
80001580:	013405b3          	add	a1,s0,s3
80001584:	05096263          	bltu	s2,a6,800015c8 <audio_recording+0x380>
80001588:	00080613          	mv	a2,a6
8000158c:	00000793          	li	a5,0
80001590:	02010513          	addi	a0,sp,32
80001594:	88cff0ef          	jal	80000620 <_ZN8Ethernet9sendFrameEPKhmNS_9macAddr_sEPNS_10ethError_eE>
80001598:	07812403          	lw	s0,120(sp)
8000159c:	07412483          	lw	s1,116(sp)
800015a0:	07012903          	lw	s2,112(sp)
800015a4:	06c12983          	lw	s3,108(sp)
800015a8:	06812a03          	lw	s4,104(sp)
800015ac:	01010513          	addi	a0,sp,16
800015b0:	a14ff0ef          	jal	800007c4 <_ZN5TimerD1Ev>
800015b4:	02010513          	addi	a0,sp,32
800015b8:	e51fe0ef          	jal	80000408 <_ZN8EthernetD1Ev>
800015bc:	07c12083          	lw	ra,124(sp)
800015c0:	08010113          	addi	sp,sp,128
800015c4:	00008067          	ret
800015c8:	5dc40413          	addi	s0,s0,1500
800015cc:	854ff0ef          	jal	80000620 <_ZN8Ethernet9sendFrameEPKhmNS_9macAddr_sEPNS_10ethError_eE>
800015d0:	f8941ce3          	bne	s0,s1,80001568 <audio_recording+0x320>
800015d4:	fc5ff06f          	j	80001598 <audio_recording+0x350>
800015d8:	03c10513          	addi	a0,sp,60
800015dc:	d5dfe0ef          	jal	80000338 <_ZN7PDM2PCM10readSampleEv>
800015e0:	ffff87b7          	lui	a5,0xffff8
800015e4:	00f507b3          	add	a5,a0,a5
800015e8:	01079793          	slli	a5,a5,0x10
800015ec:	4107d793          	srai	a5,a5,0x10
800015f0:	00f11323          	sh	a5,6(sp)
800015f4:	00615683          	lhu	a3,6(sp)
800015f8:	00008737          	lui	a4,0x8
800015fc:	91870793          	addi	a5,a4,-1768 # 7918 <copy_loop+0x78f4>
80001600:	01069713          	slli	a4,a3,0x10
80001604:	ffff8637          	lui	a2,0xffff8
80001608:	41075713          	srai	a4,a4,0x10
8000160c:	6e860613          	addi	a2,a2,1768 # ffff86e8 <_ZN9Serial_IO6statusE+0x7fff6cd0>
80001610:	00148493          	addi	s1,s1,1
80001614:	00e7ca63          	blt	a5,a4,80001628 <audio_recording+0x3e0>
80001618:	00615783          	lhu	a5,6(sp)
8000161c:	01079793          	slli	a5,a5,0x10
80001620:	4107d793          	srai	a5,a5,0x10
80001624:	00c7d463          	bge	a5,a2,8000162c <audio_recording+0x3e4>
80001628:	001a0a13          	addi	s4,s4,1
8000162c:	00615783          	lhu	a5,6(sp)
80001630:	00615703          	lhu	a4,6(sp)
80001634:	00290913          	addi	s2,s2,2
80001638:	01079793          	slli	a5,a5,0x10
8000163c:	4107d793          	srai	a5,a5,0x10
80001640:	4087d793          	srai	a5,a5,0x8
80001644:	fee90f23          	sb	a4,-2(s2)
80001648:	fef90ea3          	sb	a5,-3(s2)
8000164c:	d49ff06f          	j	80001394 <audio_recording+0x14c>
80001650:	80001537          	lui	a0,0x80001
80001654:	6bc50513          	addi	a0,a0,1724 # 800016bc <audio_recording+0x474>
80001658:	b39fe0ef          	jal	80000190 <_ZN9Serial_IO5writeEPKc>
8000165c:	f51ff06f          	j	800015ac <audio_recording+0x364>
80001660:	80001537          	lui	a0,0x80001
80001664:	69850513          	addi	a0,a0,1688 # 80001698 <audio_recording+0x450>
80001668:	b29fe0ef          	jal	80000190 <_ZN9Serial_IO5writeEPKc>
8000166c:	f41ff06f          	j	800015ac <audio_recording+0x364>
