
output.elf:     file format elf32-littleriscv


Disassembly of section .boot:

00000000 <boot_program>:
   0:	88000137          	.word	0x88000137
   4:	00800293          	.word	0x00800293
   8:	3002a073          	.word	0x3002a073
   c:	fff00293          	.word	0xfff00293
  10:	3042a073          	.word	0x3042a073
  14:	04800293          	.word	0x04800293
  18:	80000337          	.word	0x80000337
  1c:	000043b7          	.word	0x000043b7
  20:	fff38393          	.word	0xfff38393

00000024 <copy_loop>:
  24:	0002a503          	.word	0x0002a503
  28:	00a32023          	.word	0x00a32023
  2c:	00428293          	.word	0x00428293
  30:	00430313          	.word	0x00430313
  34:	fe72c8e3          	.word	0xfe72c8e3
  38:	80002317          	.word	0x80002317
  3c:	e5430313          	.word	0xe5430313
  40:	000300e7          	.word	0x000300e7
  44:	c0001073          	.word	0xc0001073

Disassembly of section .text:

80000000 <_ZN9Serial_IO4initEmbN4UART12parityMode_eENS0_10stopBits_eENS0_12dataLenght_eE>:
80000000:	800037b7          	lui	a5,0x80003
80000004:	00004837          	lui	a6,0x4
80000008:	b907a223          	sw	a6,-1148(a5) # 80002b84 <_ZN9Serial_IO6statusE>
8000000c:	b847a803          	lw	a6,-1148(a5)
80000010:	00480813          	addi	a6,a6,4 # 4004 <copy_loop+0x3fe0>
80000014:	800038b7          	lui	a7,0x80003
80000018:	b908a023          	sw	a6,-1152(a7) # 80002b80 <_ZN9Serial_IO8bufferTXE>
8000001c:	b847a803          	lw	a6,-1148(a5)
80000020:	b847a883          	lw	a7,-1148(a5)
80000024:	0015f593          	andi	a1,a1,1
80000028:	00b59813          	slli	a6,a1,0xb
8000002c:	0008a583          	lw	a1,0(a7)
80000030:	48b59593          	bclri	a1,a1,0xb
80000034:	0105e5b3          	or	a1,a1,a6
80000038:	00b8a023          	sw	a1,0(a7)
8000003c:	b847a803          	lw	a6,-1148(a5)
80000040:	00377713          	andi	a4,a4,3
80000044:	00e71593          	slli	a1,a4,0xe
80000048:	00082703          	lw	a4,0(a6)
8000004c:	48e71713          	bclri	a4,a4,0xe
80000050:	48f71713          	bclri	a4,a4,0xf
80000054:	00b76733          	or	a4,a4,a1
80000058:	00e82023          	sw	a4,0(a6)
8000005c:	b847a583          	lw	a1,-1148(a5)
80000060:	0016f693          	andi	a3,a3,1
80000064:	00d69693          	slli	a3,a3,0xd
80000068:	0005a703          	lw	a4,0(a1)
8000006c:	48d71713          	bclri	a4,a4,0xd
80000070:	00d76733          	or	a4,a4,a3
80000074:	00e5a023          	sw	a4,0(a1)
80000078:	b847a683          	lw	a3,-1148(a5)
8000007c:	00167613          	andi	a2,a2,1
80000080:	00c61713          	slli	a4,a2,0xc
80000084:	0006a603          	lw	a2,0(a3)
80000088:	48c61613          	bclri	a2,a2,0xc
8000008c:	00e66633          	or	a2,a2,a4
80000090:	00c6a023          	sw	a2,0(a3)
80000094:	00451513          	slli	a0,a0,0x4
80000098:	05f5e737          	lui	a4,0x5f5e
8000009c:	10070713          	addi	a4,a4,256 # 5f5e100 <copy_loop+0x5f5e0dc>
800000a0:	02a75733          	divu	a4,a4,a0
800000a4:	fff70713          	addi	a4,a4,-1
800000a8:	b847a603          	lw	a2,-1148(a5)
800000ac:	01171713          	slli	a4,a4,0x11
800000b0:	00062683          	lw	a3,0(a2)
800000b4:	00f69693          	slli	a3,a3,0xf
800000b8:	00f6d693          	srli	a3,a3,0xf
800000bc:	00e6e733          	or	a4,a3,a4
800000c0:	00e62023          	sw	a4,0(a2)
800000c4:	b847a683          	lw	a3,-1148(a5)
800000c8:	0006a703          	lw	a4,0(a3)
800000cc:	20076713          	ori	a4,a4,512
800000d0:	00e6a023          	sw	a4,0(a3)
800000d4:	b847a703          	lw	a4,-1148(a5)
800000d8:	00072783          	lw	a5,0(a4)
800000dc:	4007e793          	ori	a5,a5,1024
800000e0:	00f72023          	sw	a5,0(a4)
800000e4:	00008067          	ret

800000e8 <_ZN9Serial_IO5writeEc>:
800000e8:	80003737          	lui	a4,0x80003
800000ec:	b8472783          	lw	a5,-1148(a4) # 80002b84 <_ZN9Serial_IO6statusE>
800000f0:	0007a783          	lw	a5,0(a5)
800000f4:	4837d793          	bexti	a5,a5,0x3
800000f8:	fe079ae3          	bnez	a5,800000ec <_ZN9Serial_IO5writeEc+0x4>
800000fc:	800037b7          	lui	a5,0x80003
80000100:	b807a783          	lw	a5,-1152(a5) # 80002b80 <_ZN9Serial_IO8bufferTXE>
80000104:	00a78023          	sb	a0,0(a5)
80000108:	00008067          	ret

8000010c <_ZN9Serial_IO5writeEPKcm>:
8000010c:	02058c63          	beqz	a1,80000144 <_ZN9Serial_IO5writeEPKcm+0x38>
80000110:	800037b7          	lui	a5,0x80003
80000114:	b807a803          	lw	a6,-1152(a5) # 80002b80 <_ZN9Serial_IO8bufferTXE>
80000118:	00050693          	mv	a3,a0
8000011c:	00b50633          	add	a2,a0,a1
80000120:	80003737          	lui	a4,0x80003
80000124:	b8472783          	lw	a5,-1148(a4) # 80002b84 <_ZN9Serial_IO6statusE>
80000128:	0007a783          	lw	a5,0(a5)
8000012c:	4837d793          	bexti	a5,a5,0x3
80000130:	fe079ae3          	bnez	a5,80000124 <_ZN9Serial_IO5writeEPKcm+0x18>
80000134:	0006c783          	lbu	a5,0(a3)
80000138:	00f80023          	sb	a5,0(a6)
8000013c:	00168693          	addi	a3,a3,1
80000140:	fec692e3          	bne	a3,a2,80000124 <_ZN9Serial_IO5writeEPKcm+0x18>
80000144:	00008067          	ret

80000148 <_ZN9Serial_IO6writeHIhEEvT_>:
80000148:	fe010113          	addi	sp,sp,-32
8000014c:	00f57793          	andi	a5,a0,15
80000150:	00112e23          	sw	ra,28(sp)
80000154:	00900693          	li	a3,9
80000158:	00455513          	srli	a0,a0,0x4
8000015c:	03778713          	addi	a4,a5,55
80000160:	00f6e463          	bltu	a3,a5,80000168 <_ZN9Serial_IO6writeHIhEEvT_+0x20>
80000164:	03078713          	addi	a4,a5,48
80000168:	00900693          	li	a3,9
8000016c:	03050793          	addi	a5,a0,48
80000170:	00a6f463          	bgeu	a3,a0,80000178 <_ZN9Serial_IO6writeHIhEEvT_+0x30>
80000174:	03750793          	addi	a5,a0,55
80000178:	00c10513          	addi	a0,sp,12
8000017c:	00200593          	li	a1,2
80000180:	00f10623          	sb	a5,12(sp)
80000184:	00e106a3          	sb	a4,13(sp)
80000188:	f85ff0ef          	jal	8000010c <_ZN9Serial_IO5writeEPKcm>
8000018c:	01c12083          	lw	ra,28(sp)
80000190:	00000513          	li	a0,0
80000194:	02010113          	addi	sp,sp,32
80000198:	f51ff06f          	j	800000e8 <_ZN9Serial_IO5writeEc>

8000019c <_ZN9Serial_IO6writeHImEEvT_>:
8000019c:	fe010113          	addi	sp,sp,-32
800001a0:	00050693          	mv	a3,a0
800001a4:	00810513          	addi	a0,sp,8
800001a8:	00112e23          	sw	ra,28(sp)
800001ac:	00050613          	mv	a2,a0
800001b0:	00050713          	mv	a4,a0
800001b4:	00900893          	li	a7,9
800001b8:	0046d793          	srli	a5,a3,0x4
800001bc:	00f6f593          	andi	a1,a3,15
800001c0:	00f7f793          	andi	a5,a5,15
800001c4:	03058813          	addi	a6,a1,48
800001c8:	00b8f463          	bgeu	a7,a1,800001d0 <_ZN9Serial_IO6writeHImEEvT_+0x34>
800001cc:	03758813          	addi	a6,a1,55
800001d0:	03078593          	addi	a1,a5,48
800001d4:	00f8f463          	bgeu	a7,a5,800001dc <_ZN9Serial_IO6writeHImEEvT_+0x40>
800001d8:	03778593          	addi	a1,a5,55
800001dc:	01070023          	sb	a6,0(a4)
800001e0:	00b700a3          	sb	a1,1(a4)
800001e4:	01010793          	addi	a5,sp,16
800001e8:	00270713          	addi	a4,a4,2
800001ec:	0086d693          	srli	a3,a3,0x8
800001f0:	fcf714e3          	bne	a4,a5,800001b8 <_ZN9Serial_IO6writeHImEEvT_+0x1c>
800001f4:	00450593          	addi	a1,a0,4
800001f8:	00050793          	mv	a5,a0
800001fc:	0007c683          	lbu	a3,0(a5)
80000200:	00764703          	lbu	a4,7(a2)
80000204:	00178793          	addi	a5,a5,1
80000208:	00d603a3          	sb	a3,7(a2)
8000020c:	fee78fa3          	sb	a4,-1(a5)
80000210:	fff60613          	addi	a2,a2,-1
80000214:	fef594e3          	bne	a1,a5,800001fc <_ZN9Serial_IO6writeHImEEvT_+0x60>
80000218:	00800593          	li	a1,8
8000021c:	ef1ff0ef          	jal	8000010c <_ZN9Serial_IO5writeEPKcm>
80000220:	01c12083          	lw	ra,28(sp)
80000224:	00000513          	li	a0,0
80000228:	02010113          	addi	sp,sp,32
8000022c:	ebdff06f          	j	800000e8 <_ZN9Serial_IO5writeEc>

80000230 <_ZN9Serial_IO5writeEPKc>:
80000230:	ff010113          	addi	sp,sp,-16
80000234:	00112623          	sw	ra,12(sp)
80000238:	00054783          	lbu	a5,0(a0)
8000023c:	02078463          	beqz	a5,80000264 <_ZN9Serial_IO5writeEPKc+0x34>
80000240:	00000593          	li	a1,0
80000244:	00158593          	addi	a1,a1,1
80000248:	00b507b3          	add	a5,a0,a1
8000024c:	0007c783          	lbu	a5,0(a5)
80000250:	fe079ae3          	bnez	a5,80000244 <_ZN9Serial_IO5writeEPKc+0x14>
80000254:	eb9ff0ef          	jal	8000010c <_ZN9Serial_IO5writeEPKcm>
80000258:	00c12083          	lw	ra,12(sp)
8000025c:	01010113          	addi	sp,sp,16
80000260:	00008067          	ret
80000264:	00000593          	li	a1,0
80000268:	fedff06f          	j	80000254 <_ZN9Serial_IO5writeEPKc+0x24>

8000026c <_ZN2SDC1Ev>:
8000026c:	08000793          	li	a5,128
80000270:	00f52023          	sw	a5,0(a0)
80000274:	20000793          	li	a5,512
80000278:	00f52223          	sw	a5,4(a0)
8000027c:	00051423          	sh	zero,8(a0)
80000280:	00052623          	sw	zero,12(a0)
80000284:	00000793          	li	a5,0
80000288:	00000813          	li	a6,0
8000028c:	00f52823          	sw	a5,16(a0)
80000290:	01052a23          	sw	a6,20(a0)
80000294:	00052c23          	sw	zero,24(a0)
80000298:	00052e23          	sw	zero,28(a0)
8000029c:	02052023          	sw	zero,32(a0)
800002a0:	02052223          	sw	zero,36(a0)
800002a4:	02052423          	sw	zero,40(a0)
800002a8:	02052623          	sw	zero,44(a0)
800002ac:	02052823          	sw	zero,48(a0)
800002b0:	02052a23          	sw	zero,52(a0)
800002b4:	000147b7          	lui	a5,0x14
800002b8:	40078793          	addi	a5,a5,1024 # 14400 <copy_loop+0x143dc>
800002bc:	02f52c23          	sw	a5,56(a0)
800002c0:	02f52e23          	sw	a5,60(a0)
800002c4:	000147b7          	lui	a5,0x14
800002c8:	40478793          	addi	a5,a5,1028 # 14404 <copy_loop+0x143e0>
800002cc:	04f52023          	sw	a5,64(a0)
800002d0:	000147b7          	lui	a5,0x14
800002d4:	40878793          	addi	a5,a5,1032 # 14408 <copy_loop+0x143e4>
800002d8:	04f52223          	sw	a5,68(a0)
800002dc:	000147b7          	lui	a5,0x14
800002e0:	40c78793          	addi	a5,a5,1036 # 1440c <copy_loop+0x143e8>
800002e4:	04f52423          	sw	a5,72(a0)
800002e8:	000147b7          	lui	a5,0x14
800002ec:	41078793          	addi	a5,a5,1040 # 14410 <copy_loop+0x143ec>
800002f0:	04f52623          	sw	a5,76(a0)
800002f4:	000147b7          	lui	a5,0x14
800002f8:	41478793          	addi	a5,a5,1044 # 14414 <copy_loop+0x143f0>
800002fc:	04f52823          	sw	a5,80(a0)
80000300:	000147b7          	lui	a5,0x14
80000304:	41c78793          	addi	a5,a5,1052 # 1441c <copy_loop+0x143f8>
80000308:	04f52a23          	sw	a5,84(a0)
8000030c:	000147b7          	lui	a5,0x14
80000310:	41878793          	addi	a5,a5,1048 # 14418 <copy_loop+0x143f4>
80000314:	04f52c23          	sw	a5,88(a0)
80000318:	03c52703          	lw	a4,60(a0)
8000031c:	00072783          	lw	a5,0(a4)
80000320:	e007f793          	andi	a5,a5,-512
80000324:	00f72023          	sw	a5,0(a4)
80000328:	03c52703          	lw	a4,60(a0)
8000032c:	00072783          	lw	a5,0(a4)
80000330:	bff7f793          	andi	a5,a5,-1025
80000334:	00f72023          	sw	a5,0(a4)
80000338:	03c52703          	lw	a4,60(a0)
8000033c:	00072783          	lw	a5,0(a4)
80000340:	48b79793          	bclri	a5,a5,0xb
80000344:	00f72023          	sw	a5,0(a4)
80000348:	03c52703          	lw	a4,60(a0)
8000034c:	00072783          	lw	a5,0(a4)
80000350:	48c79793          	bclri	a5,a5,0xc
80000354:	00f72023          	sw	a5,0(a4)
80000358:	00008067          	ret

8000035c <_ZN2SDD1Ev>:
8000035c:	03c52703          	lw	a4,60(a0)
80000360:	00072783          	lw	a5,0(a4)
80000364:	e007f793          	andi	a5,a5,-512
80000368:	00f72023          	sw	a5,0(a4)
8000036c:	03c52703          	lw	a4,60(a0)
80000370:	00072783          	lw	a5,0(a4)
80000374:	bff7f793          	andi	a5,a5,-1025
80000378:	00f72023          	sw	a5,0(a4)
8000037c:	03c52703          	lw	a4,60(a0)
80000380:	00072783          	lw	a5,0(a4)
80000384:	48b79793          	bclri	a5,a5,0xb
80000388:	00f72023          	sw	a5,0(a4)
8000038c:	03c52703          	lw	a4,60(a0)
80000390:	00072783          	lw	a5,0(a4)
80000394:	48c79793          	bclri	a5,a5,0xc
80000398:	00f72023          	sw	a5,0(a4)
8000039c:	00008067          	ret

800003a0 <_ZN2SD13setClockSpeedENS_12clockSpeed_eE>:
800003a0:	03c52703          	lw	a4,60(a0)
800003a4:	0015f593          	andi	a1,a1,1
800003a8:	00b59593          	slli	a1,a1,0xb
800003ac:	00072783          	lw	a5,0(a4)
800003b0:	48b79793          	bclri	a5,a5,0xb
800003b4:	00b7e7b3          	or	a5,a5,a1
800003b8:	00f72023          	sw	a5,0(a4)
800003bc:	00008067          	ret

800003c0 <_ZN2SD11sendCommandEmm>:
800003c0:	04052783          	lw	a5,64(a0)
800003c4:	0007a783          	lw	a5,0(a5)
800003c8:	4867d793          	bexti	a5,a5,0x6
800003cc:	fe078ae3          	beqz	a5,800003c0 <_ZN2SD11sendCommandEmm>
800003d0:	04052783          	lw	a5,64(a0)
800003d4:	0007a783          	lw	a5,0(a5)
800003d8:	4827d793          	bexti	a5,a5,0x2
800003dc:	fe0782e3          	beqz	a5,800003c0 <_ZN2SD11sendCommandEmm>
800003e0:	04452783          	lw	a5,68(a0)
800003e4:	00b7a023          	sw	a1,0(a5)
800003e8:	04852783          	lw	a5,72(a0)
800003ec:	00c7a023          	sw	a2,0(a5)
800003f0:	03c52703          	lw	a4,60(a0)
800003f4:	00072783          	lw	a5,0(a4)
800003f8:	2007e793          	ori	a5,a5,512
800003fc:	00f72023          	sw	a5,0(a4)
80000400:	00008067          	ret

80000404 <_ZN2SD19flushResponseBufferEv>:
80000404:	04052783          	lw	a5,64(a0)
80000408:	0007a783          	lw	a5,0(a5)
8000040c:	4867d793          	bexti	a5,a5,0x6
80000410:	fe078ae3          	beqz	a5,80000404 <_ZN2SD19flushResponseBufferEv>
80000414:	04052783          	lw	a5,64(a0)
80000418:	0007a783          	lw	a5,0(a5)
8000041c:	4827d793          	bexti	a5,a5,0x2
80000420:	fe0782e3          	beqz	a5,80000404 <_ZN2SD19flushResponseBufferEv>
80000424:	04052783          	lw	a5,64(a0)
80000428:	0007a783          	lw	a5,0(a5)
8000042c:	4887d793          	bexti	a5,a5,0x8
80000430:	00079e63          	bnez	a5,8000044c <_ZN2SD19flushResponseBufferEv+0x48>
80000434:	05052703          	lw	a4,80(a0)
80000438:	00074783          	lbu	a5,0(a4)
8000043c:	04052783          	lw	a5,64(a0)
80000440:	0007a783          	lw	a5,0(a5)
80000444:	4887d793          	bexti	a5,a5,0x8
80000448:	fe0788e3          	beqz	a5,80000438 <_ZN2SD19flushResponseBufferEv+0x34>
8000044c:	00008067          	ret

80000450 <_ZN2SD12readResponseEPhRb>:
80000450:	ff010113          	addi	sp,sp,-16
80000454:	00112623          	sw	ra,12(sp)
80000458:	00812423          	sw	s0,8(sp)
8000045c:	00050413          	mv	s0,a0
80000460:	04042783          	lw	a5,64(s0)
80000464:	0007a783          	lw	a5,0(a5)
80000468:	4867d793          	bexti	a5,a5,0x6
8000046c:	fe078ae3          	beqz	a5,80000460 <_ZN2SD12readResponseEPhRb+0x10>
80000470:	04042783          	lw	a5,64(s0)
80000474:	0007a783          	lw	a5,0(a5)
80000478:	4847d793          	bexti	a5,a5,0x4
8000047c:	04079463          	bnez	a5,800004c4 <_ZN2SD12readResponseEPhRb+0x74>
80000480:	04042783          	lw	a5,64(s0)
80000484:	0007a783          	lw	a5,0(a5)
80000488:	4887d793          	bexti	a5,a5,0x8
8000048c:	02079263          	bnez	a5,800004b0 <_ZN2SD12readResponseEPhRb+0x60>
80000490:	05042783          	lw	a5,80(s0)
80000494:	0007c783          	lbu	a5,0(a5)
80000498:	00f58023          	sb	a5,0(a1)
8000049c:	04042783          	lw	a5,64(s0)
800004a0:	0007a783          	lw	a5,0(a5)
800004a4:	4887d793          	bexti	a5,a5,0x8
800004a8:	00158593          	addi	a1,a1,1
800004ac:	fe0782e3          	beqz	a5,80000490 <_ZN2SD12readResponseEPhRb+0x40>
800004b0:	00040513          	mv	a0,s0
800004b4:	00c12083          	lw	ra,12(sp)
800004b8:	00812403          	lw	s0,8(sp)
800004bc:	01010113          	addi	sp,sp,16
800004c0:	00008067          	ret
800004c4:	00100793          	li	a5,1
800004c8:	00f60023          	sb	a5,0(a2)
800004cc:	00040513          	mv	a0,s0
800004d0:	f35ff0ef          	jal	80000404 <_ZN2SD19flushResponseBufferEv>
800004d4:	fddff06f          	j	800004b0 <_ZN2SD12readResponseEPhRb+0x60>

800004d8 <_ZN2SD10writeBlockEmPmPhRhRb>:
800004d8:	fe010113          	addi	sp,sp,-32
800004dc:	00112e23          	sw	ra,28(sp)
800004e0:	00812c23          	sw	s0,24(sp)
800004e4:	00912a23          	sw	s1,20(sp)
800004e8:	01212823          	sw	s2,16(sp)
800004ec:	01312623          	sw	s3,12(sp)
800004f0:	01412423          	sw	s4,8(sp)
800004f4:	00050413          	mv	s0,a0
800004f8:	00060493          	mv	s1,a2
800004fc:	00068a13          	mv	s4,a3
80000500:	00070993          	mv	s3,a4
80000504:	00078913          	mv	s2,a5
80000508:	00058613          	mv	a2,a1
8000050c:	01800593          	li	a1,24
80000510:	eb1ff0ef          	jal	800003c0 <_ZN2SD11sendCommandEmm>
80000514:	00090613          	mv	a2,s2
80000518:	000a0593          	mv	a1,s4
8000051c:	00040513          	mv	a0,s0
80000520:	f31ff0ef          	jal	80000450 <_ZN2SD12readResponseEPhRb>
80000524:	00094783          	lbu	a5,0(s2)
80000528:	06079863          	bnez	a5,80000598 <_ZN2SD10writeBlockEmPmPhRhRb+0xc0>
8000052c:	00042783          	lw	a5,0(s0)
80000530:	02078c63          	beqz	a5,80000568 <_ZN2SD10writeBlockEmPmPhRhRb+0x90>
80000534:	00048613          	mv	a2,s1
80000538:	00000693          	li	a3,0
8000053c:	04042583          	lw	a1,64(s0)
80000540:	0005a583          	lw	a1,0(a1)
80000544:	01459793          	slli	a5,a1,0x14
80000548:	0207c063          	bltz	a5,80000568 <_ZN2SD10writeBlockEmPmPhRhRb+0x90>
8000054c:	00168693          	addi	a3,a3,1
80000550:	05842783          	lw	a5,88(s0)
80000554:	00062703          	lw	a4,0(a2)
80000558:	00e7a023          	sw	a4,0(a5)
8000055c:	00460613          	addi	a2,a2,4
80000560:	00042583          	lw	a1,0(s0)
80000564:	fcb6ece3          	bltu	a3,a1,8000053c <_ZN2SD10writeBlockEmPmPhRhRb+0x64>
80000568:	04042683          	lw	a3,64(s0)
8000056c:	0006a683          	lw	a3,0(a3)
80000570:	4826d693          	bexti	a3,a3,0x2
80000574:	fe068ae3          	beqz	a3,80000568 <_ZN2SD10writeBlockEmPmPhRhRb+0x90>
80000578:	04042783          	lw	a5,64(s0)
8000057c:	0007a783          	lw	a5,0(a5)
80000580:	0017f793          	andi	a5,a5,1
80000584:	00f90023          	sb	a5,0(s2)
80000588:	04042783          	lw	a5,64(s0)
8000058c:	0007a783          	lw	a5,0(a5)
80000590:	00d7d793          	srli	a5,a5,0xd
80000594:	00f98023          	sb	a5,0(s3)
80000598:	00040513          	mv	a0,s0
8000059c:	01c12083          	lw	ra,28(sp)
800005a0:	01812403          	lw	s0,24(sp)
800005a4:	01412483          	lw	s1,20(sp)
800005a8:	01012903          	lw	s2,16(sp)
800005ac:	00c12983          	lw	s3,12(sp)
800005b0:	00812a03          	lw	s4,8(sp)
800005b4:	02010113          	addi	sp,sp,32
800005b8:	00008067          	ret

800005bc <_ZN2SD15flushDataBufferEv>:
800005bc:	04052783          	lw	a5,64(a0)
800005c0:	0007a783          	lw	a5,0(a5)
800005c4:	4867d793          	bexti	a5,a5,0x6
800005c8:	fe078ae3          	beqz	a5,800005bc <_ZN2SD15flushDataBufferEv>
800005cc:	04052783          	lw	a5,64(a0)
800005d0:	0007a783          	lw	a5,0(a5)
800005d4:	4827d793          	bexti	a5,a5,0x2
800005d8:	fe0782e3          	beqz	a5,800005bc <_ZN2SD15flushDataBufferEv>
800005dc:	04052783          	lw	a5,64(a0)
800005e0:	0007a783          	lw	a5,0(a5)
800005e4:	48a7d793          	bexti	a5,a5,0xa
800005e8:	00079e63          	bnez	a5,80000604 <_ZN2SD15flushDataBufferEv+0x48>
800005ec:	05452703          	lw	a4,84(a0)
800005f0:	00072783          	lw	a5,0(a4)
800005f4:	04052783          	lw	a5,64(a0)
800005f8:	0007a783          	lw	a5,0(a5)
800005fc:	48a7d793          	bexti	a5,a5,0xa
80000600:	fe0788e3          	beqz	a5,800005f0 <_ZN2SD15flushDataBufferEv+0x34>
80000604:	00008067          	ret

80000608 <_ZN2SD4initENS_12clockSpeed_eENS_10busWidth_eEPhRbS3_>:
80000608:	fb010113          	addi	sp,sp,-80
8000060c:	04112623          	sw	ra,76(sp)
80000610:	04812423          	sw	s0,72(sp)
80000614:	04912223          	sw	s1,68(sp)
80000618:	05212023          	sw	s2,64(sp)
8000061c:	03312e23          	sw	s3,60(sp)
80000620:	03412c23          	sw	s4,56(sp)
80000624:	03512a23          	sw	s5,52(sp)
80000628:	03612823          	sw	s6,48(sp)
8000062c:	03712623          	sw	s7,44(sp)
80000630:	03812423          	sw	s8,40(sp)
80000634:	03912223          	sw	s9,36(sp)
80000638:	00050413          	mv	s0,a0
8000063c:	00058a93          	mv	s5,a1
80000640:	00060993          	mv	s3,a2
80000644:	00068913          	mv	s2,a3
80000648:	00070493          	mv	s1,a4
8000064c:	00078a13          	mv	s4,a5
80000650:	00070023          	sb	zero,0(a4)
80000654:	00012623          	sw	zero,12(sp)
80000658:	00012823          	sw	zero,16(sp)
8000065c:	00012a23          	sw	zero,20(sp)
80000660:	00012c23          	sw	zero,24(sp)
80000664:	00010e23          	sb	zero,28(sp)
80000668:	03c52703          	lw	a4,60(a0)
8000066c:	00072783          	lw	a5,0(a4)
80000670:	28d79793          	bseti	a5,a5,0xd
80000674:	00f72023          	sw	a5,0(a4)
80000678:	03c42783          	lw	a5,60(s0)
8000067c:	0007a783          	lw	a5,0(a5)
80000680:	01279713          	slli	a4,a5,0x12
80000684:	fe074ae3          	bltz	a4,80000678 <_ZN2SD4initENS_12clockSpeed_eENS_10busWidth_eEPhRbS3_+0x70>
80000688:	03c42703          	lw	a4,60(s0)
8000068c:	00072783          	lw	a5,0(a4)
80000690:	28c79793          	bseti	a5,a5,0xc
80000694:	00f72023          	sw	a5,0(a4)
80000698:	00012423          	sw	zero,8(sp)
8000069c:	000028b7          	lui	a7,0x2
800006a0:	71088893          	addi	a7,a7,1808 # 2710 <copy_loop+0x26ec>
800006a4:	00812803          	lw	a6,8(sp)
800006a8:	00180813          	addi	a6,a6,1
800006ac:	01012423          	sw	a6,8(sp)
800006b0:	fff88893          	addi	a7,a7,-1
800006b4:	fe0898e3          	bnez	a7,800006a4 <_ZN2SD4initENS_12clockSpeed_eENS_10busWidth_eEPhRbS3_+0x9c>
800006b8:	00000613          	li	a2,0
800006bc:	00000593          	li	a1,0
800006c0:	00040513          	mv	a0,s0
800006c4:	cfdff0ef          	jal	800003c0 <_ZN2SD11sendCommandEmm>
800006c8:	00040513          	mv	a0,s0
800006cc:	d39ff0ef          	jal	80000404 <_ZN2SD19flushResponseBufferEv>
800006d0:	1aa00613          	li	a2,426
800006d4:	00800593          	li	a1,8
800006d8:	00040513          	mv	a0,s0
800006dc:	ce5ff0ef          	jal	800003c0 <_ZN2SD11sendCommandEmm>
800006e0:	00048613          	mv	a2,s1
800006e4:	00090593          	mv	a1,s2
800006e8:	00040513          	mv	a0,s0
800006ec:	d65ff0ef          	jal	80000450 <_ZN2SD12readResponseEPhRb>
800006f0:	0004c783          	lbu	a5,0(s1)
800006f4:	00079e63          	bnez	a5,80000710 <_ZN2SD4initENS_12clockSpeed_eENS_10busWidth_eEPhRbS3_+0x108>
800006f8:	0c800913          	li	s2,200
800006fc:	03700c93          	li	s9,55
80000700:	40300c37          	lui	s8,0x40300
80000704:	02900b93          	li	s7,41
80000708:	00c10b13          	addi	s6,sp,12
8000070c:	0240006f          	j	80000730 <_ZN2SD4initENS_12clockSpeed_eENS_10busWidth_eEPhRbS3_+0x128>
80000710:	00048023          	sb	zero,0(s1)
80000714:	00040513          	mv	a0,s0
80000718:	cedff0ef          	jal	80000404 <_ZN2SD19flushResponseBufferEv>
8000071c:	fddff06f          	j	800006f8 <_ZN2SD4initENS_12clockSpeed_eENS_10busWidth_eEPhRbS3_+0xf0>
80000720:	00d10703          	lb	a4,13(sp)
80000724:	04074e63          	bltz	a4,80000780 <_ZN2SD4initENS_12clockSpeed_eENS_10busWidth_eEPhRbS3_+0x178>
80000728:	fff90913          	addi	s2,s2,-1
8000072c:	04090a63          	beqz	s2,80000780 <_ZN2SD4initENS_12clockSpeed_eENS_10busWidth_eEPhRbS3_+0x178>
80000730:	00000613          	li	a2,0
80000734:	000c8593          	mv	a1,s9
80000738:	00040513          	mv	a0,s0
8000073c:	c85ff0ef          	jal	800003c0 <_ZN2SD11sendCommandEmm>
80000740:	00040513          	mv	a0,s0
80000744:	cc1ff0ef          	jal	80000404 <_ZN2SD19flushResponseBufferEv>
80000748:	000c0613          	mv	a2,s8
8000074c:	000b8593          	mv	a1,s7
80000750:	00040513          	mv	a0,s0
80000754:	c6dff0ef          	jal	800003c0 <_ZN2SD11sendCommandEmm>
80000758:	00048613          	mv	a2,s1
8000075c:	000b0593          	mv	a1,s6
80000760:	00040513          	mv	a0,s0
80000764:	cedff0ef          	jal	80000450 <_ZN2SD12readResponseEPhRb>
80000768:	0004c783          	lbu	a5,0(s1)
8000076c:	fa078ae3          	beqz	a5,80000720 <_ZN2SD4initENS_12clockSpeed_eENS_10busWidth_eEPhRbS3_+0x118>
80000770:	00048023          	sb	zero,0(s1)
80000774:	00040513          	mv	a0,s0
80000778:	c8dff0ef          	jal	80000404 <_ZN2SD19flushResponseBufferEv>
8000077c:	fa5ff06f          	j	80000720 <_ZN2SD4initENS_12clockSpeed_eENS_10busWidth_eEPhRbS3_+0x118>
80000780:	00000613          	li	a2,0
80000784:	03a00593          	li	a1,58
80000788:	00040513          	mv	a0,s0
8000078c:	c35ff0ef          	jal	800003c0 <_ZN2SD11sendCommandEmm>
80000790:	00048613          	mv	a2,s1
80000794:	00c10593          	addi	a1,sp,12
80000798:	00040513          	mv	a0,s0
8000079c:	cb5ff0ef          	jal	80000450 <_ZN2SD12readResponseEPhRb>
800007a0:	0004c783          	lbu	a5,0(s1)
800007a4:	24079863          	bnez	a5,800009f4 <_ZN2SD4initENS_12clockSpeed_eENS_10busWidth_eEPhRbS3_+0x3ec>
800007a8:	00d14703          	lbu	a4,13(sp)
800007ac:	00e14783          	lbu	a5,14(sp)
800007b0:	01079793          	slli	a5,a5,0x10
800007b4:	01871693          	slli	a3,a4,0x18
800007b8:	00d7e7b3          	or	a5,a5,a3
800007bc:	01014683          	lbu	a3,16(sp)
800007c0:	00d7e7b3          	or	a5,a5,a3
800007c4:	00f14683          	lbu	a3,15(sp)
800007c8:	00869693          	slli	a3,a3,0x8
800007cc:	00d7e7b3          	or	a5,a5,a3
800007d0:	00f42623          	sw	a5,12(s0)
800007d4:	48675713          	bexti	a4,a4,0x6
800007d8:	00ea0023          	sb	a4,0(s4)
800007dc:	00040513          	mv	a0,s0
800007e0:	c25ff0ef          	jal	80000404 <_ZN2SD19flushResponseBufferEv>
800007e4:	03c42683          	lw	a3,60(s0)
800007e8:	001af713          	andi	a4,s5,1
800007ec:	00b71713          	slli	a4,a4,0xb
800007f0:	0006a783          	lw	a5,0(a3)
800007f4:	48b79793          	bclri	a5,a5,0xb
800007f8:	00e7e7b3          	or	a5,a5,a4
800007fc:	00f6a023          	sw	a5,0(a3)
80000800:	00000613          	li	a2,0
80000804:	00200593          	li	a1,2
80000808:	00040513          	mv	a0,s0
8000080c:	bb5ff0ef          	jal	800003c0 <_ZN2SD11sendCommandEmm>
80000810:	00048613          	mv	a2,s1
80000814:	00c10593          	addi	a1,sp,12
80000818:	00040513          	mv	a0,s0
8000081c:	c35ff0ef          	jal	80000450 <_ZN2SD12readResponseEPhRb>
80000820:	0004c783          	lbu	a5,0(s1)
80000824:	1e079063          	bnez	a5,80000a04 <_ZN2SD4initENS_12clockSpeed_eENS_10busWidth_eEPhRbS3_+0x3fc>
80000828:	00d10713          	addi	a4,sp,13
8000082c:	03740793          	addi	a5,s0,55
80000830:	01d10613          	addi	a2,sp,29
80000834:	00074683          	lbu	a3,0(a4)
80000838:	00d78023          	sb	a3,0(a5)
8000083c:	00170713          	addi	a4,a4,1
80000840:	fff78793          	addi	a5,a5,-1
80000844:	fec718e3          	bne	a4,a2,80000834 <_ZN2SD4initENS_12clockSpeed_eENS_10busWidth_eEPhRbS3_+0x22c>
80000848:	00000613          	li	a2,0
8000084c:	00300593          	li	a1,3
80000850:	00040513          	mv	a0,s0
80000854:	b6dff0ef          	jal	800003c0 <_ZN2SD11sendCommandEmm>
80000858:	00048613          	mv	a2,s1
8000085c:	00c10593          	addi	a1,sp,12
80000860:	00040513          	mv	a0,s0
80000864:	bedff0ef          	jal	80000450 <_ZN2SD12readResponseEPhRb>
80000868:	0004c783          	lbu	a5,0(s1)
8000086c:	1a079c63          	bnez	a5,80000a24 <_ZN2SD4initENS_12clockSpeed_eENS_10busWidth_eEPhRbS3_+0x41c>
80000870:	00d14783          	lbu	a5,13(sp)
80000874:	00879793          	slli	a5,a5,0x8
80000878:	00e14703          	lbu	a4,14(sp)
8000087c:	00e7e7b3          	or	a5,a5,a4
80000880:	00f41423          	sh	a5,8(s0)
80000884:	00040513          	mv	a0,s0
80000888:	b7dff0ef          	jal	80000404 <_ZN2SD19flushResponseBufferEv>
8000088c:	00845603          	lhu	a2,8(s0)
80000890:	01061613          	slli	a2,a2,0x10
80000894:	00900593          	li	a1,9
80000898:	00040513          	mv	a0,s0
8000089c:	b25ff0ef          	jal	800003c0 <_ZN2SD11sendCommandEmm>
800008a0:	00048613          	mv	a2,s1
800008a4:	00c10593          	addi	a1,sp,12
800008a8:	00040513          	mv	a0,s0
800008ac:	ba5ff0ef          	jal	80000450 <_ZN2SD12readResponseEPhRb>
800008b0:	0004c783          	lbu	a5,0(s1)
800008b4:	16079c63          	bnez	a5,80000a2c <_ZN2SD4initENS_12clockSpeed_eENS_10busWidth_eEPhRbS3_+0x424>
800008b8:	00d10713          	addi	a4,sp,13
800008bc:	02740793          	addi	a5,s0,39
800008c0:	01d10613          	addi	a2,sp,29
800008c4:	00074683          	lbu	a3,0(a4)
800008c8:	00d78023          	sb	a3,0(a5)
800008cc:	00170713          	addi	a4,a4,1
800008d0:	fff78793          	addi	a5,a5,-1
800008d4:	fec718e3          	bne	a4,a2,800008c4 <_ZN2SD4initENS_12clockSpeed_eENS_10busWidth_eEPhRbS3_+0x2bc>
800008d8:	00040513          	mv	a0,s0
800008dc:	b29ff0ef          	jal	80000404 <_ZN2SD19flushResponseBufferEv>
800008e0:	00845603          	lhu	a2,8(s0)
800008e4:	01061613          	slli	a2,a2,0x10
800008e8:	00700593          	li	a1,7
800008ec:	00040513          	mv	a0,s0
800008f0:	ad1ff0ef          	jal	800003c0 <_ZN2SD11sendCommandEmm>
800008f4:	00040513          	mv	a0,s0
800008f8:	b0dff0ef          	jal	80000404 <_ZN2SD19flushResponseBufferEv>
800008fc:	000a4783          	lbu	a5,0(s4)
80000900:	14078663          	beqz	a5,80000a4c <_ZN2SD4initENS_12clockSpeed_eENS_10busWidth_eEPhRbS3_+0x444>
80000904:	00845603          	lhu	a2,8(s0)
80000908:	01061613          	slli	a2,a2,0x10
8000090c:	03700593          	li	a1,55
80000910:	00040513          	mv	a0,s0
80000914:	aadff0ef          	jal	800003c0 <_ZN2SD11sendCommandEmm>
80000918:	00040513          	mv	a0,s0
8000091c:	ae9ff0ef          	jal	80000404 <_ZN2SD19flushResponseBufferEv>
80000920:	fff98613          	addi	a2,s3,-1
80000924:	00163613          	seqz	a2,a2
80000928:	00161613          	slli	a2,a2,0x1
8000092c:	00600593          	li	a1,6
80000930:	00040513          	mv	a0,s0
80000934:	a8dff0ef          	jal	800003c0 <_ZN2SD11sendCommandEmm>
80000938:	00845603          	lhu	a2,8(s0)
8000093c:	01061613          	slli	a2,a2,0x10
80000940:	03700593          	li	a1,55
80000944:	00040513          	mv	a0,s0
80000948:	a79ff0ef          	jal	800003c0 <_ZN2SD11sendCommandEmm>
8000094c:	00040513          	mv	a0,s0
80000950:	ab5ff0ef          	jal	80000404 <_ZN2SD19flushResponseBufferEv>
80000954:	0004c783          	lbu	a5,0(s1)
80000958:	10078863          	beqz	a5,80000a68 <_ZN2SD4initENS_12clockSpeed_eENS_10busWidth_eEPhRbS3_+0x460>
8000095c:	00000793          	li	a5,0
80000960:	00000813          	li	a6,0
80000964:	00f42823          	sw	a5,16(s0)
80000968:	01042a23          	sw	a6,20(s0)
8000096c:	00048023          	sb	zero,0(s1)
80000970:	04042783          	lw	a5,64(s0)
80000974:	0007a783          	lw	a5,0(a5)
80000978:	4867d793          	bexti	a5,a5,0x6
8000097c:	fe078ae3          	beqz	a5,80000970 <_ZN2SD4initENS_12clockSpeed_eENS_10busWidth_eEPhRbS3_+0x368>
80000980:	04042783          	lw	a5,64(s0)
80000984:	0007a783          	lw	a5,0(a5)
80000988:	4827d793          	bexti	a5,a5,0x2
8000098c:	fe0782e3          	beqz	a5,80000970 <_ZN2SD4initENS_12clockSpeed_eENS_10busWidth_eEPhRbS3_+0x368>
80000990:	00040513          	mv	a0,s0
80000994:	a71ff0ef          	jal	80000404 <_ZN2SD19flushResponseBufferEv>
80000998:	00040513          	mv	a0,s0
8000099c:	c21ff0ef          	jal	800005bc <_ZN2SD15flushDataBufferEv>
800009a0:	03c42683          	lw	a3,60(s0)
800009a4:	0019f793          	andi	a5,s3,1
800009a8:	00a79793          	slli	a5,a5,0xa
800009ac:	0006a703          	lw	a4,0(a3)
800009b0:	bff77713          	andi	a4,a4,-1025
800009b4:	00f767b3          	or	a5,a4,a5
800009b8:	00f6a023          	sw	a5,0(a3)
800009bc:	00040513          	mv	a0,s0
800009c0:	04c12083          	lw	ra,76(sp)
800009c4:	04812403          	lw	s0,72(sp)
800009c8:	04412483          	lw	s1,68(sp)
800009cc:	04012903          	lw	s2,64(sp)
800009d0:	03c12983          	lw	s3,60(sp)
800009d4:	03812a03          	lw	s4,56(sp)
800009d8:	03412a83          	lw	s5,52(sp)
800009dc:	03012b03          	lw	s6,48(sp)
800009e0:	02c12b83          	lw	s7,44(sp)
800009e4:	02812c03          	lw	s8,40(sp)
800009e8:	02412c83          	lw	s9,36(sp)
800009ec:	05010113          	addi	sp,sp,80
800009f0:	00008067          	ret
800009f4:	000a0023          	sb	zero,0(s4)
800009f8:	00048023          	sb	zero,0(s1)
800009fc:	00042623          	sw	zero,12(s0)
80000a00:	dddff06f          	j	800007dc <_ZN2SD4initENS_12clockSpeed_eENS_10busWidth_eEPhRbS3_+0x1d4>
80000a04:	00000793          	li	a5,0
80000a08:	00000813          	li	a6,0
80000a0c:	02f42823          	sw	a5,48(s0)
80000a10:	03042a23          	sw	a6,52(s0)
80000a14:	02f42423          	sw	a5,40(s0)
80000a18:	03042623          	sw	a6,44(s0)
80000a1c:	00048023          	sb	zero,0(s1)
80000a20:	e29ff06f          	j	80000848 <_ZN2SD4initENS_12clockSpeed_eENS_10busWidth_eEPhRbS3_+0x240>
80000a24:	00048023          	sb	zero,0(s1)
80000a28:	e5dff06f          	j	80000884 <_ZN2SD4initENS_12clockSpeed_eENS_10busWidth_eEPhRbS3_+0x27c>
80000a2c:	00000793          	li	a5,0
80000a30:	00000813          	li	a6,0
80000a34:	02f42023          	sw	a5,32(s0)
80000a38:	03042223          	sw	a6,36(s0)
80000a3c:	00f42c23          	sw	a5,24(s0)
80000a40:	01042e23          	sw	a6,28(s0)
80000a44:	00048023          	sb	zero,0(s1)
80000a48:	e91ff06f          	j	800008d8 <_ZN2SD4initENS_12clockSpeed_eENS_10busWidth_eEPhRbS3_+0x2d0>
80000a4c:	20000613          	li	a2,512
80000a50:	01000593          	li	a1,16
80000a54:	00040513          	mv	a0,s0
80000a58:	969ff0ef          	jal	800003c0 <_ZN2SD11sendCommandEmm>
80000a5c:	00040513          	mv	a0,s0
80000a60:	9a5ff0ef          	jal	80000404 <_ZN2SD19flushResponseBufferEv>
80000a64:	ea1ff06f          	j	80000904 <_ZN2SD4initENS_12clockSpeed_eENS_10busWidth_eEPhRbS3_+0x2fc>
80000a68:	00000613          	li	a2,0
80000a6c:	03300593          	li	a1,51
80000a70:	00040513          	mv	a0,s0
80000a74:	94dff0ef          	jal	800003c0 <_ZN2SD11sendCommandEmm>
80000a78:	00040513          	mv	a0,s0
80000a7c:	989ff0ef          	jal	80000404 <_ZN2SD19flushResponseBufferEv>
80000a80:	04042783          	lw	a5,64(s0)
80000a84:	0007a783          	lw	a5,0(a5)
80000a88:	48a7d793          	bexti	a5,a5,0xa
80000a8c:	fe079ae3          	bnez	a5,80000a80 <_ZN2SD4initENS_12clockSpeed_eENS_10busWidth_eEPhRbS3_+0x478>
80000a90:	05442703          	lw	a4,84(s0)
80000a94:	00072783          	lw	a5,0(a4)
80000a98:	00f42a23          	sw	a5,20(s0)
80000a9c:	04042783          	lw	a5,64(s0)
80000aa0:	0007a783          	lw	a5,0(a5)
80000aa4:	48a7d793          	bexti	a5,a5,0xa
80000aa8:	fe079ae3          	bnez	a5,80000a9c <_ZN2SD4initENS_12clockSpeed_eENS_10busWidth_eEPhRbS3_+0x494>
80000aac:	00072783          	lw	a5,0(a4)
80000ab0:	00f42823          	sw	a5,16(s0)
80000ab4:	00040513          	mv	a0,s0
80000ab8:	b05ff0ef          	jal	800005bc <_ZN2SD15flushDataBufferEv>
80000abc:	eb5ff06f          	j	80000970 <_ZN2SD4initENS_12clockSpeed_eENS_10busWidth_eEPhRbS3_+0x368>

80000ac0 <_ZN2SD11setBusWidthENS_10busWidth_eE>:
80000ac0:	ff010113          	addi	sp,sp,-16
80000ac4:	00112623          	sw	ra,12(sp)
80000ac8:	00812423          	sw	s0,8(sp)
80000acc:	00912223          	sw	s1,4(sp)
80000ad0:	00050413          	mv	s0,a0
80000ad4:	00058493          	mv	s1,a1
80000ad8:	00855603          	lhu	a2,8(a0)
80000adc:	01061613          	slli	a2,a2,0x10
80000ae0:	03700593          	li	a1,55
80000ae4:	8ddff0ef          	jal	800003c0 <_ZN2SD11sendCommandEmm>
80000ae8:	00040513          	mv	a0,s0
80000aec:	919ff0ef          	jal	80000404 <_ZN2SD19flushResponseBufferEv>
80000af0:	fff48613          	addi	a2,s1,-1
80000af4:	00163613          	seqz	a2,a2
80000af8:	00161613          	slli	a2,a2,0x1
80000afc:	00600593          	li	a1,6
80000b00:	00040513          	mv	a0,s0
80000b04:	8bdff0ef          	jal	800003c0 <_ZN2SD11sendCommandEmm>
80000b08:	04042783          	lw	a5,64(s0)
80000b0c:	0007a783          	lw	a5,0(a5)
80000b10:	4867d793          	bexti	a5,a5,0x6
80000b14:	fe078ae3          	beqz	a5,80000b08 <_ZN2SD11setBusWidthENS_10busWidth_eE+0x48>
80000b18:	04042783          	lw	a5,64(s0)
80000b1c:	0007a783          	lw	a5,0(a5)
80000b20:	4827d793          	bexti	a5,a5,0x2
80000b24:	fe0782e3          	beqz	a5,80000b08 <_ZN2SD11setBusWidthENS_10busWidth_eE+0x48>
80000b28:	00040513          	mv	a0,s0
80000b2c:	8d9ff0ef          	jal	80000404 <_ZN2SD19flushResponseBufferEv>
80000b30:	00040513          	mv	a0,s0
80000b34:	a89ff0ef          	jal	800005bc <_ZN2SD15flushDataBufferEv>
80000b38:	03c42703          	lw	a4,60(s0)
80000b3c:	0014f493          	andi	s1,s1,1
80000b40:	00a49493          	slli	s1,s1,0xa
80000b44:	00072783          	lw	a5,0(a4)
80000b48:	bff7f793          	andi	a5,a5,-1025
80000b4c:	0097e7b3          	or	a5,a5,s1
80000b50:	00f72023          	sw	a5,0(a4)
80000b54:	00040513          	mv	a0,s0
80000b58:	00c12083          	lw	ra,12(sp)
80000b5c:	00812403          	lw	s0,8(sp)
80000b60:	00412483          	lw	s1,4(sp)
80000b64:	01010113          	addi	sp,sp,16
80000b68:	00008067          	ret

80000b6c <_ZN2SD9readBlockEmPmPhRb>:
80000b6c:	fe010113          	addi	sp,sp,-32
80000b70:	00112e23          	sw	ra,28(sp)
80000b74:	00812c23          	sw	s0,24(sp)
80000b78:	00912a23          	sw	s1,20(sp)
80000b7c:	01212823          	sw	s2,16(sp)
80000b80:	01312623          	sw	s3,12(sp)
80000b84:	00050413          	mv	s0,a0
80000b88:	00060493          	mv	s1,a2
80000b8c:	00068993          	mv	s3,a3
80000b90:	00070913          	mv	s2,a4
80000b94:	00058613          	mv	a2,a1
80000b98:	01100593          	li	a1,17
80000b9c:	825ff0ef          	jal	800003c0 <_ZN2SD11sendCommandEmm>
80000ba0:	00090613          	mv	a2,s2
80000ba4:	00098593          	mv	a1,s3
80000ba8:	00040513          	mv	a0,s0
80000bac:	8a5ff0ef          	jal	80000450 <_ZN2SD12readResponseEPhRb>
80000bb0:	00094783          	lbu	a5,0(s2)
80000bb4:	04079c63          	bnez	a5,80000c0c <_ZN2SD9readBlockEmPmPhRb+0xa0>
80000bb8:	04042783          	lw	a5,64(s0)
80000bbc:	0007a783          	lw	a5,0(a5)
80000bc0:	4827d793          	bexti	a5,a5,0x2
80000bc4:	fe078ae3          	beqz	a5,80000bb8 <_ZN2SD9readBlockEmPmPhRb+0x4c>
80000bc8:	04042783          	lw	a5,64(s0)
80000bcc:	0007a783          	lw	a5,0(a5)
80000bd0:	0017f793          	andi	a5,a5,1
80000bd4:	04079c63          	bnez	a5,80000c2c <_ZN2SD9readBlockEmPmPhRb+0xc0>
80000bd8:	04042783          	lw	a5,64(s0)
80000bdc:	0007a783          	lw	a5,0(a5)
80000be0:	48a7d793          	bexti	a5,a5,0xa
80000be4:	00048613          	mv	a2,s1
80000be8:	02079263          	bnez	a5,80000c0c <_ZN2SD9readBlockEmPmPhRb+0xa0>
80000bec:	05442783          	lw	a5,84(s0)
80000bf0:	0007a783          	lw	a5,0(a5)
80000bf4:	00f62023          	sw	a5,0(a2)
80000bf8:	04042783          	lw	a5,64(s0)
80000bfc:	0007a783          	lw	a5,0(a5)
80000c00:	48a7d793          	bexti	a5,a5,0xa
80000c04:	00460613          	addi	a2,a2,4
80000c08:	fe0782e3          	beqz	a5,80000bec <_ZN2SD9readBlockEmPmPhRb+0x80>
80000c0c:	00040513          	mv	a0,s0
80000c10:	01c12083          	lw	ra,28(sp)
80000c14:	01812403          	lw	s0,24(sp)
80000c18:	01412483          	lw	s1,20(sp)
80000c1c:	01012903          	lw	s2,16(sp)
80000c20:	00c12983          	lw	s3,12(sp)
80000c24:	02010113          	addi	sp,sp,32
80000c28:	00008067          	ret
80000c2c:	00100793          	li	a5,1
80000c30:	00f90023          	sb	a5,0(s2)
80000c34:	00040513          	mv	a0,s0
80000c38:	985ff0ef          	jal	800005bc <_ZN2SD15flushDataBufferEv>
80000c3c:	fd1ff06f          	j	80000c0c <_ZN2SD9readBlockEmPmPhRb+0xa0>

80000c40 <_ZN2SD9readBurstEmmPmPhRb>:
80000c40:	fe010113          	addi	sp,sp,-32
80000c44:	00112e23          	sw	ra,28(sp)
80000c48:	00812c23          	sw	s0,24(sp)
80000c4c:	00912a23          	sw	s1,20(sp)
80000c50:	01212823          	sw	s2,16(sp)
80000c54:	01312623          	sw	s3,12(sp)
80000c58:	01412423          	sw	s4,8(sp)
80000c5c:	00050413          	mv	s0,a0
80000c60:	00060993          	mv	s3,a2
80000c64:	00068493          	mv	s1,a3
80000c68:	00070a13          	mv	s4,a4
80000c6c:	00078913          	mv	s2,a5
80000c70:	00058613          	mv	a2,a1
80000c74:	01200593          	li	a1,18
80000c78:	f48ff0ef          	jal	800003c0 <_ZN2SD11sendCommandEmm>
80000c7c:	00090613          	mv	a2,s2
80000c80:	000a0593          	mv	a1,s4
80000c84:	00040513          	mv	a0,s0
80000c88:	fc8ff0ef          	jal	80000450 <_ZN2SD12readResponseEPhRb>
80000c8c:	00094783          	lbu	a5,0(s2)
80000c90:	08079463          	bnez	a5,80000d18 <_ZN2SD9readBurstEmmPmPhRb+0xd8>
80000c94:	06098263          	beqz	s3,80000cf8 <_ZN2SD9readBurstEmmPmPhRb+0xb8>
80000c98:	00098813          	mv	a6,s3
80000c9c:	00000513          	li	a0,0
80000ca0:	0440006f          	j	80000ce4 <_ZN2SD9readBurstEmmPmPhRb+0xa4>
80000ca4:	00060593          	mv	a1,a2
80000ca8:	04042783          	lw	a5,64(s0)
80000cac:	0007a783          	lw	a5,0(a5)
80000cb0:	48a7d793          	bexti	a5,a5,0xa
80000cb4:	fe079ae3          	bnez	a5,80000ca8 <_ZN2SD9readBurstEmmPmPhRb+0x68>
80000cb8:	05442783          	lw	a5,84(s0)
80000cbc:	0007a783          	lw	a5,0(a5)
80000cc0:	02e68733          	mul	a4,a3,a4
80000cc4:	00b70733          	add	a4,a4,a1
80000cc8:	20974733          	sh2add	a4,a4,s1
80000ccc:	00f72023          	sw	a5,0(a4)
80000cd0:	00160613          	addi	a2,a2,1
80000cd4:	00042703          	lw	a4,0(s0)
80000cd8:	fce666e3          	bltu	a2,a4,80000ca4 <_ZN2SD9readBurstEmmPmPhRb+0x64>
80000cdc:	00150513          	addi	a0,a0,1
80000ce0:	01050c63          	beq	a0,a6,80000cf8 <_ZN2SD9readBurstEmmPmPhRb+0xb8>
80000ce4:	00050693          	mv	a3,a0
80000ce8:	00042703          	lw	a4,0(s0)
80000cec:	00000613          	li	a2,0
80000cf0:	fa071ae3          	bnez	a4,80000ca4 <_ZN2SD9readBurstEmmPmPhRb+0x64>
80000cf4:	fe9ff06f          	j	80000cdc <_ZN2SD9readBurstEmmPmPhRb+0x9c>
80000cf8:	00000613          	li	a2,0
80000cfc:	00c00593          	li	a1,12
80000d00:	00040513          	mv	a0,s0
80000d04:	ebcff0ef          	jal	800003c0 <_ZN2SD11sendCommandEmm>
80000d08:	00040513          	mv	a0,s0
80000d0c:	ef8ff0ef          	jal	80000404 <_ZN2SD19flushResponseBufferEv>
80000d10:	00040513          	mv	a0,s0
80000d14:	8a9ff0ef          	jal	800005bc <_ZN2SD15flushDataBufferEv>
80000d18:	00040513          	mv	a0,s0
80000d1c:	01c12083          	lw	ra,28(sp)
80000d20:	01812403          	lw	s0,24(sp)
80000d24:	01412483          	lw	s1,20(sp)
80000d28:	01012903          	lw	s2,16(sp)
80000d2c:	00c12983          	lw	s3,12(sp)
80000d30:	00812a03          	lw	s4,8(sp)
80000d34:	02010113          	addi	sp,sp,32
80000d38:	00008067          	ret

80000d3c <_ZN2SD10writeBurstEmmPmPhS1_Rb>:
80000d3c:	fe010113          	addi	sp,sp,-32
80000d40:	00112e23          	sw	ra,28(sp)
80000d44:	00812c23          	sw	s0,24(sp)
80000d48:	00912a23          	sw	s1,20(sp)
80000d4c:	01212823          	sw	s2,16(sp)
80000d50:	01312623          	sw	s3,12(sp)
80000d54:	01412423          	sw	s4,8(sp)
80000d58:	01512223          	sw	s5,4(sp)
80000d5c:	00050413          	mv	s0,a0
80000d60:	00060993          	mv	s3,a2
80000d64:	00068493          	mv	s1,a3
80000d68:	00070a93          	mv	s5,a4
80000d6c:	00078913          	mv	s2,a5
80000d70:	00080a13          	mv	s4,a6
80000d74:	00058613          	mv	a2,a1
80000d78:	01900593          	li	a1,25
80000d7c:	e44ff0ef          	jal	800003c0 <_ZN2SD11sendCommandEmm>
80000d80:	000a0613          	mv	a2,s4
80000d84:	000a8593          	mv	a1,s5
80000d88:	00040513          	mv	a0,s0
80000d8c:	ec4ff0ef          	jal	80000450 <_ZN2SD12readResponseEPhRb>
80000d90:	000a4783          	lbu	a5,0(s4)
80000d94:	0a079863          	bnez	a5,80000e44 <_ZN2SD10writeBurstEmmPmPhS1_Rb+0x108>
80000d98:	06098c63          	beqz	s3,80000e10 <_ZN2SD10writeBurstEmmPmPhS1_Rb+0xd4>
80000d9c:	00098813          	mv	a6,s3
80000da0:	00000613          	li	a2,0
80000da4:	00c0006f          	j	80000db0 <_ZN2SD10writeBurstEmmPmPhS1_Rb+0x74>
80000da8:	00160613          	addi	a2,a2,1
80000dac:	07060263          	beq	a2,a6,80000e10 <_ZN2SD10writeBurstEmmPmPhS1_Rb+0xd4>
80000db0:	00060693          	mv	a3,a2
80000db4:	00042703          	lw	a4,0(s0)
80000db8:	00000593          	li	a1,0
80000dbc:	02070463          	beqz	a4,80000de4 <_ZN2SD10writeBurstEmmPmPhS1_Rb+0xa8>
80000dc0:	05842503          	lw	a0,88(s0)
80000dc4:	02e68733          	mul	a4,a3,a4
80000dc8:	00b70733          	add	a4,a4,a1
80000dcc:	20974733          	sh2add	a4,a4,s1
80000dd0:	00072783          	lw	a5,0(a4)
80000dd4:	00f52023          	sw	a5,0(a0)
80000dd8:	00158593          	addi	a1,a1,1
80000ddc:	00042703          	lw	a4,0(s0)
80000de0:	fee5e0e3          	bltu	a1,a4,80000dc0 <_ZN2SD10writeBurstEmmPmPhS1_Rb+0x84>
80000de4:	04042703          	lw	a4,64(s0)
80000de8:	00072703          	lw	a4,0(a4)
80000dec:	01371793          	slli	a5,a4,0x13
80000df0:	fe07dae3          	bgez	a5,80000de4 <_ZN2SD10writeBurstEmmPmPhS1_Rb+0xa8>
80000df4:	fa060ae3          	beqz	a2,80000da8 <_ZN2SD10writeBurstEmmPmPhS1_Rb+0x6c>
80000df8:	04042783          	lw	a5,64(s0)
80000dfc:	0007a783          	lw	a5,0(a5)
80000e00:	00d7d793          	srli	a5,a5,0xd
80000e04:	00d906b3          	add	a3,s2,a3
80000e08:	00f68023          	sb	a5,0(a3)
80000e0c:	f9dff06f          	j	80000da8 <_ZN2SD10writeBurstEmmPmPhS1_Rb+0x6c>
80000e10:	00000613          	li	a2,0
80000e14:	00c00593          	li	a1,12
80000e18:	00040513          	mv	a0,s0
80000e1c:	da4ff0ef          	jal	800003c0 <_ZN2SD11sendCommandEmm>
80000e20:	04042783          	lw	a5,64(s0)
80000e24:	0007a783          	lw	a5,0(a5)
80000e28:	00d7d793          	srli	a5,a5,0xd
80000e2c:	01390933          	add	s2,s2,s3
80000e30:	fef90fa3          	sb	a5,-1(s2)
80000e34:	00040513          	mv	a0,s0
80000e38:	dccff0ef          	jal	80000404 <_ZN2SD19flushResponseBufferEv>
80000e3c:	00040513          	mv	a0,s0
80000e40:	f7cff0ef          	jal	800005bc <_ZN2SD15flushDataBufferEv>
80000e44:	00040513          	mv	a0,s0
80000e48:	01c12083          	lw	ra,28(sp)
80000e4c:	01812403          	lw	s0,24(sp)
80000e50:	01412483          	lw	s1,20(sp)
80000e54:	01012903          	lw	s2,16(sp)
80000e58:	00c12983          	lw	s3,12(sp)
80000e5c:	00812a03          	lw	s4,8(sp)
80000e60:	00412a83          	lw	s5,4(sp)
80000e64:	02010113          	addi	sp,sp,32
80000e68:	00008067          	ret

80000e6c <_ZN5TimerC1Em>:
80000e6c:	000017b7          	lui	a5,0x1
80000e70:	c0078793          	addi	a5,a5,-1024 # c00 <copy_loop+0xbdc>
80000e74:	00f585b3          	add	a1,a1,a5
80000e78:	00359593          	slli	a1,a1,0x3
80000e7c:	00b52023          	sw	a1,0(a0)
80000e80:	00858793          	addi	a5,a1,8
80000e84:	00f52223          	sw	a5,4(a0)
80000e88:	00b52423          	sw	a1,8(a0)
80000e8c:	01058793          	addi	a5,a1,16
80000e90:	00f52623          	sw	a5,12(a0)
80000e94:	00c52703          	lw	a4,12(a0)
80000e98:	00072783          	lw	a5,0(a4)
80000e9c:	ffe7f793          	andi	a5,a5,-2
80000ea0:	00f72023          	sw	a5,0(a4)
80000ea4:	00c52703          	lw	a4,12(a0)
80000ea8:	00072783          	lw	a5,0(a4)
80000eac:	ffb7f793          	andi	a5,a5,-5
80000eb0:	00f72023          	sw	a5,0(a4)
80000eb4:	00000793          	li	a5,0
80000eb8:	00000813          	li	a6,0
80000ebc:	00f5a423          	sw	a5,8(a1)
80000ec0:	0105a623          	sw	a6,12(a1)
80000ec4:	00852783          	lw	a5,8(a0)
80000ec8:	fff00613          	li	a2,-1
80000ecc:	fff00693          	li	a3,-1
80000ed0:	00c7a023          	sw	a2,0(a5)
80000ed4:	00d7a223          	sw	a3,4(a5)
80000ed8:	00c52703          	lw	a4,12(a0)
80000edc:	00072783          	lw	a5,0(a4)
80000ee0:	ffd7f793          	andi	a5,a5,-3
80000ee4:	00f72023          	sw	a5,0(a4)
80000ee8:	00008067          	ret

80000eec <_ZN5TimerD1Ev>:
80000eec:	00c52703          	lw	a4,12(a0)
80000ef0:	00072783          	lw	a5,0(a4)
80000ef4:	ffe7f793          	andi	a5,a5,-2
80000ef8:	00f72023          	sw	a5,0(a4)
80000efc:	00c52703          	lw	a4,12(a0)
80000f00:	00072783          	lw	a5,0(a4)
80000f04:	ffb7f793          	andi	a5,a5,-5
80000f08:	00f72023          	sw	a5,0(a4)
80000f0c:	00452783          	lw	a5,4(a0)
80000f10:	00000693          	li	a3,0
80000f14:	00000713          	li	a4,0
80000f18:	00d7a023          	sw	a3,0(a5)
80000f1c:	00e7a223          	sw	a4,4(a5)
80000f20:	00852783          	lw	a5,8(a0)
80000f24:	fff00613          	li	a2,-1
80000f28:	fff00693          	li	a3,-1
80000f2c:	00c7a023          	sw	a2,0(a5)
80000f30:	00d7a223          	sw	a3,4(a5)
80000f34:	00c52703          	lw	a4,12(a0)
80000f38:	00072783          	lw	a5,0(a4)
80000f3c:	ffd7f793          	andi	a5,a5,-3
80000f40:	00f72023          	sw	a5,0(a4)
80000f44:	00008067          	ret

80000f48 <_ZN5Timer4initEyNS_11timerMode_eE>:
80000f48:	00060893          	mv	a7,a2
80000f4c:	00c52603          	lw	a2,12(a0)
80000f50:	00062703          	lw	a4,0(a2)
80000f54:	ffb77713          	andi	a4,a4,-5
80000f58:	00e62023          	sw	a4,0(a2)
80000f5c:	00852703          	lw	a4,8(a0)
80000f60:	00b72023          	sw	a1,0(a4)
80000f64:	01172223          	sw	a7,4(a4)
80000f68:	00c52603          	lw	a2,12(a0)
80000f6c:	0016f693          	andi	a3,a3,1
80000f70:	00169693          	slli	a3,a3,0x1
80000f74:	00062703          	lw	a4,0(a2)
80000f78:	ffd77713          	andi	a4,a4,-3
80000f7c:	00d76733          	or	a4,a4,a3
80000f80:	00e62023          	sw	a4,0(a2)
80000f84:	00452783          	lw	a5,4(a0)
80000f88:	00000693          	li	a3,0
80000f8c:	00000713          	li	a4,0
80000f90:	00d7a023          	sw	a3,0(a5)
80000f94:	00e7a223          	sw	a4,4(a5)
80000f98:	00008067          	ret

80000f9c <_ZNK5Timer7getTimeEv>:
80000f9c:	00452783          	lw	a5,4(a0)
80000fa0:	0007a503          	lw	a0,0(a5)
80000fa4:	0047a583          	lw	a1,4(a5)
80000fa8:	00008067          	ret

80000fac <_ZN5Timer4stopEv>:
80000fac:	00c52703          	lw	a4,12(a0)
80000fb0:	00072783          	lw	a5,0(a4)
80000fb4:	ffe7f793          	andi	a5,a5,-2
80000fb8:	00f72023          	sw	a5,0(a4)
80000fbc:	00008067          	ret

80000fc0 <_ZN5Timer7restartEv>:
80000fc0:	00452703          	lw	a4,4(a0)
80000fc4:	00000613          	li	a2,0
80000fc8:	00000693          	li	a3,0
80000fcc:	00c72023          	sw	a2,0(a4)
80000fd0:	00d72223          	sw	a3,4(a4)
80000fd4:	00c52703          	lw	a4,12(a0)
80000fd8:	00072783          	lw	a5,0(a4)
80000fdc:	ff77f793          	andi	a5,a5,-9
80000fe0:	00f72023          	sw	a5,0(a4)
80000fe4:	00008067          	ret

80000fe8 <_ZN9Serial_IO7vprintfEPKcPv>:
80000fe8:	f8010113          	addi	sp,sp,-128
80000fec:	06112e23          	sw	ra,124(sp)
80000ff0:	06812c23          	sw	s0,120(sp)
80000ff4:	00050413          	mv	s0,a0
80000ff8:	00054503          	lbu	a0,0(a0)
80000ffc:	1e0500e3          	beqz	a0,800019dc <_ZN9Serial_IO7vprintfEPKcPv+0x9f4>
80001000:	06912a23          	sw	s1,116(sp)
80001004:	07212823          	sw	s2,112(sp)
80001008:	07312623          	sw	s3,108(sp)
8000100c:	07412423          	sw	s4,104(sp)
80001010:	07512223          	sw	s5,100(sp)
80001014:	07612023          	sw	s6,96(sp)
80001018:	05712e23          	sw	s7,92(sp)
8000101c:	05812c23          	sw	s8,88(sp)
80001020:	00058b93          	mv	s7,a1
80001024:	00000b13          	li	s6,0
80001028:	02500913          	li	s2,37
8000102c:	02e00a13          	li	s4,46
80001030:	01600993          	li	s3,22
80001034:	80003ab7          	lui	s5,0x80003
80001038:	1350006f          	j	8000196c <_ZN9Serial_IO7vprintfEPKcPv+0x984>
8000103c:	004b8c13          	addi	s8,s7,4
80001040:	000bab03          	lw	s6,0(s7)
80001044:	41fb5b93          	srai	s7,s6,0x1f
80001048:	120b4463          	bltz	s6,80001170 <_ZN9Serial_IO7vprintfEPKcPv+0x188>
8000104c:	00000593          	li	a1,0
80001050:	ccccd6b7          	lui	a3,0xccccd
80001054:	ccd68693          	addi	a3,a3,-819 # cccccccd <_ZN9Serial_IO6statusE+0x4ccca149>
80001058:	ccccd637          	lui	a2,0xccccd
8000105c:	ccc60613          	addi	a2,a2,-820 # cccccccc <_ZN9Serial_IO6statusE+0x4ccca148>
80001060:	00010513          	mv	a0,sp
80001064:	017b07b3          	add	a5,s6,s7
80001068:	0167b733          	sltu	a4,a5,s6
8000106c:	00e787b3          	add	a5,a5,a4
80001070:	02d7b733          	mulhu	a4,a5,a3
80001074:	00275813          	srli	a6,a4,0x2
80001078:	ffc77713          	andi	a4,a4,-4
8000107c:	01070733          	add	a4,a4,a6
80001080:	40e787b3          	sub	a5,a5,a4
80001084:	40fb07b3          	sub	a5,s6,a5
80001088:	02d787b3          	mul	a5,a5,a3
8000108c:	0017d793          	srli	a5,a5,0x1
80001090:	20f7c7b3          	sh2add	a5,a5,a5
80001094:	00179793          	slli	a5,a5,0x1
80001098:	40fb07b3          	sub	a5,s6,a5
8000109c:	03078793          	addi	a5,a5,48
800010a0:	000b0313          	mv	t1,s6
800010a4:	000b8893          	mv	a7,s7
800010a8:	017b0733          	add	a4,s6,s7
800010ac:	01673833          	sltu	a6,a4,s6
800010b0:	01070733          	add	a4,a4,a6
800010b4:	02d73833          	mulhu	a6,a4,a3
800010b8:	00285e13          	srli	t3,a6,0x2
800010bc:	ffc87813          	andi	a6,a6,-4
800010c0:	01c80833          	add	a6,a6,t3
800010c4:	41070733          	sub	a4,a4,a6
800010c8:	40eb0733          	sub	a4,s6,a4
800010cc:	00eb3833          	sltu	a6,s6,a4
800010d0:	410b8833          	sub	a6,s7,a6
800010d4:	02d80833          	mul	a6,a6,a3
800010d8:	02c70e33          	mul	t3,a4,a2
800010dc:	01c80833          	add	a6,a6,t3
800010e0:	02d70e33          	mul	t3,a4,a3
800010e4:	02d73733          	mulhu	a4,a4,a3
800010e8:	00e80733          	add	a4,a6,a4
800010ec:	01f71b13          	slli	s6,a4,0x1f
800010f0:	001e5813          	srli	a6,t3,0x1
800010f4:	010b6b33          	or	s6,s6,a6
800010f8:	00175b93          	srli	s7,a4,0x1
800010fc:	00058813          	mv	a6,a1
80001100:	00158593          	addi	a1,a1,1
80001104:	00b50733          	add	a4,a0,a1
80001108:	fef70fa3          	sb	a5,-1(a4)
8000110c:	f4089ce3          	bnez	a7,80001064 <_ZN9Serial_IO7vprintfEPKcPv+0x7c>
80001110:	00089663          	bnez	a7,8000111c <_ZN9Serial_IO7vprintfEPKcPv+0x134>
80001114:	00900793          	li	a5,9
80001118:	f467e6e3          	bltu	a5,t1,80001064 <_ZN9Serial_IO7vprintfEPKcPv+0x7c>
8000111c:	0015d893          	srli	a7,a1,0x1
80001120:	00100793          	li	a5,1
80001124:	02b7f863          	bgeu	a5,a1,80001154 <_ZN9Serial_IO7vprintfEPKcPv+0x16c>
80001128:	010107b3          	add	a5,sp,a6
8000112c:	00010713          	mv	a4,sp
80001130:	00078513          	mv	a0,a5
80001134:	0007c683          	lbu	a3,0(a5)
80001138:	00074603          	lbu	a2,0(a4)
8000113c:	00c78023          	sb	a2,0(a5)
80001140:	00d70023          	sb	a3,0(a4)
80001144:	fff78793          	addi	a5,a5,-1
80001148:	00170713          	addi	a4,a4,1
8000114c:	40f506b3          	sub	a3,a0,a5
80001150:	ff16e2e3          	bltu	a3,a7,80001134 <_ZN9Serial_IO7vprintfEPKcPv+0x14c>
80001154:	00010513          	mv	a0,sp
80001158:	fb5fe0ef          	jal	8000010c <_ZN9Serial_IO5writeEPKcm>
8000115c:	00000513          	li	a0,0
80001160:	f89fe0ef          	jal	800000e8 <_ZN9Serial_IO5writeEc>
80001164:	000c0b93          	mv	s7,s8
80001168:	00048b13          	mv	s6,s1
8000116c:	7f00006f          	j	8000195c <_ZN9Serial_IO7vprintfEPKcPv+0x974>
80001170:	016037b3          	snez	a5,s6
80001174:	41700bb3          	neg	s7,s7
80001178:	40fb8bb3          	sub	s7,s7,a5
8000117c:	41600b33          	neg	s6,s6
80001180:	02d00513          	li	a0,45
80001184:	f65fe0ef          	jal	800000e8 <_ZN9Serial_IO5writeEc>
80001188:	ec5ff06f          	j	8000104c <_ZN9Serial_IO7vprintfEPKcPv+0x64>
8000118c:	007b8793          	addi	a5,s7,7
80001190:	ff87f793          	andi	a5,a5,-8
80001194:	00878b93          	addi	s7,a5,8
80001198:	0007a703          	lw	a4,0(a5)
8000119c:	0047a783          	lw	a5,4(a5)
800011a0:	00070b13          	mv	s6,a4
800011a4:	00078c13          	mv	s8,a5
800011a8:	1207c263          	bltz	a5,800012cc <_ZN9Serial_IO7vprintfEPKcPv+0x2e4>
800011ac:	00000593          	li	a1,0
800011b0:	ccccd6b7          	lui	a3,0xccccd
800011b4:	ccd68693          	addi	a3,a3,-819 # cccccccd <_ZN9Serial_IO6statusE+0x4ccca149>
800011b8:	ccccd637          	lui	a2,0xccccd
800011bc:	ccc60613          	addi	a2,a2,-820 # cccccccc <_ZN9Serial_IO6statusE+0x4ccca148>
800011c0:	00010513          	mv	a0,sp
800011c4:	018b07b3          	add	a5,s6,s8
800011c8:	0167b733          	sltu	a4,a5,s6
800011cc:	00e787b3          	add	a5,a5,a4
800011d0:	02d7b733          	mulhu	a4,a5,a3
800011d4:	00275813          	srli	a6,a4,0x2
800011d8:	ffc77713          	andi	a4,a4,-4
800011dc:	01070733          	add	a4,a4,a6
800011e0:	40e787b3          	sub	a5,a5,a4
800011e4:	40fb07b3          	sub	a5,s6,a5
800011e8:	02d787b3          	mul	a5,a5,a3
800011ec:	0017d793          	srli	a5,a5,0x1
800011f0:	20f7c7b3          	sh2add	a5,a5,a5
800011f4:	00179793          	slli	a5,a5,0x1
800011f8:	40fb07b3          	sub	a5,s6,a5
800011fc:	03078793          	addi	a5,a5,48
80001200:	000b0313          	mv	t1,s6
80001204:	000c0893          	mv	a7,s8
80001208:	018b0733          	add	a4,s6,s8
8000120c:	01673833          	sltu	a6,a4,s6
80001210:	01070733          	add	a4,a4,a6
80001214:	02d73833          	mulhu	a6,a4,a3
80001218:	00285e13          	srli	t3,a6,0x2
8000121c:	ffc87813          	andi	a6,a6,-4
80001220:	01c80833          	add	a6,a6,t3
80001224:	41070733          	sub	a4,a4,a6
80001228:	40eb0733          	sub	a4,s6,a4
8000122c:	00eb3833          	sltu	a6,s6,a4
80001230:	410c0833          	sub	a6,s8,a6
80001234:	02d80833          	mul	a6,a6,a3
80001238:	02c70e33          	mul	t3,a4,a2
8000123c:	01c80833          	add	a6,a6,t3
80001240:	02d70e33          	mul	t3,a4,a3
80001244:	02d73733          	mulhu	a4,a4,a3
80001248:	00e80733          	add	a4,a6,a4
8000124c:	01f71b13          	slli	s6,a4,0x1f
80001250:	001e5813          	srli	a6,t3,0x1
80001254:	010b6b33          	or	s6,s6,a6
80001258:	00175c13          	srli	s8,a4,0x1
8000125c:	00058813          	mv	a6,a1
80001260:	00158593          	addi	a1,a1,1
80001264:	00b50733          	add	a4,a0,a1
80001268:	fef70fa3          	sb	a5,-1(a4)
8000126c:	f4089ce3          	bnez	a7,800011c4 <_ZN9Serial_IO7vprintfEPKcPv+0x1dc>
80001270:	00089663          	bnez	a7,8000127c <_ZN9Serial_IO7vprintfEPKcPv+0x294>
80001274:	00900793          	li	a5,9
80001278:	f467e6e3          	bltu	a5,t1,800011c4 <_ZN9Serial_IO7vprintfEPKcPv+0x1dc>
8000127c:	0015d893          	srli	a7,a1,0x1
80001280:	00100793          	li	a5,1
80001284:	02b7f863          	bgeu	a5,a1,800012b4 <_ZN9Serial_IO7vprintfEPKcPv+0x2cc>
80001288:	010107b3          	add	a5,sp,a6
8000128c:	00010713          	mv	a4,sp
80001290:	00078513          	mv	a0,a5
80001294:	0007c683          	lbu	a3,0(a5)
80001298:	00074603          	lbu	a2,0(a4)
8000129c:	00c78023          	sb	a2,0(a5)
800012a0:	00d70023          	sb	a3,0(a4)
800012a4:	fff78793          	addi	a5,a5,-1
800012a8:	00170713          	addi	a4,a4,1
800012ac:	40f506b3          	sub	a3,a0,a5
800012b0:	ff16e2e3          	bltu	a3,a7,80001294 <_ZN9Serial_IO7vprintfEPKcPv+0x2ac>
800012b4:	00010513          	mv	a0,sp
800012b8:	e55fe0ef          	jal	8000010c <_ZN9Serial_IO5writeEPKcm>
800012bc:	00000513          	li	a0,0
800012c0:	e29fe0ef          	jal	800000e8 <_ZN9Serial_IO5writeEc>
800012c4:	00048b13          	mv	s6,s1
800012c8:	6940006f          	j	8000195c <_ZN9Serial_IO7vprintfEPKcPv+0x974>
800012cc:	00e03c33          	snez	s8,a4
800012d0:	40f007b3          	neg	a5,a5
800012d4:	40e00b33          	neg	s6,a4
800012d8:	41878c33          	sub	s8,a5,s8
800012dc:	02d00513          	li	a0,45
800012e0:	e09fe0ef          	jal	800000e8 <_ZN9Serial_IO5writeEc>
800012e4:	ec9ff06f          	j	800011ac <_ZN9Serial_IO7vprintfEPKcPv+0x1c4>
800012e8:	004b8b13          	addi	s6,s7,4
800012ec:	000ba683          	lw	a3,0(s7)
800012f0:	00000893          	li	a7,0
800012f4:	00000593          	li	a1,0
800012f8:	ccccd637          	lui	a2,0xccccd
800012fc:	ccd60613          	addi	a2,a2,-819 # cccccccd <_ZN9Serial_IO6statusE+0x4ccca149>
80001300:	ccccd537          	lui	a0,0xccccd
80001304:	ccc50513          	addi	a0,a0,-820 # cccccccc <_ZN9Serial_IO6statusE+0x4ccca148>
80001308:	00010813          	mv	a6,sp
8000130c:	011687b3          	add	a5,a3,a7
80001310:	00d7b733          	sltu	a4,a5,a3
80001314:	00e787b3          	add	a5,a5,a4
80001318:	02c7b733          	mulhu	a4,a5,a2
8000131c:	00275313          	srli	t1,a4,0x2
80001320:	ffc77713          	andi	a4,a4,-4
80001324:	00670733          	add	a4,a4,t1
80001328:	40e787b3          	sub	a5,a5,a4
8000132c:	40f687b3          	sub	a5,a3,a5
80001330:	02c787b3          	mul	a5,a5,a2
80001334:	0017d793          	srli	a5,a5,0x1
80001338:	20f7c7b3          	sh2add	a5,a5,a5
8000133c:	00179793          	slli	a5,a5,0x1
80001340:	40f687b3          	sub	a5,a3,a5
80001344:	03078793          	addi	a5,a5,48
80001348:	00068e93          	mv	t4,a3
8000134c:	00088e13          	mv	t3,a7
80001350:	01168733          	add	a4,a3,a7
80001354:	00d73333          	sltu	t1,a4,a3
80001358:	00670733          	add	a4,a4,t1
8000135c:	02c73333          	mulhu	t1,a4,a2
80001360:	00235f13          	srli	t5,t1,0x2
80001364:	ffc37313          	andi	t1,t1,-4
80001368:	01e30333          	add	t1,t1,t5
8000136c:	40670733          	sub	a4,a4,t1
80001370:	40e68733          	sub	a4,a3,a4
80001374:	00e6b6b3          	sltu	a3,a3,a4
80001378:	40d886b3          	sub	a3,a7,a3
8000137c:	02c686b3          	mul	a3,a3,a2
80001380:	02a708b3          	mul	a7,a4,a0
80001384:	011686b3          	add	a3,a3,a7
80001388:	02c708b3          	mul	a7,a4,a2
8000138c:	02c73733          	mulhu	a4,a4,a2
80001390:	00e68733          	add	a4,a3,a4
80001394:	01f71693          	slli	a3,a4,0x1f
80001398:	0018d893          	srli	a7,a7,0x1
8000139c:	0116e6b3          	or	a3,a3,a7
800013a0:	00175893          	srli	a7,a4,0x1
800013a4:	00058313          	mv	t1,a1
800013a8:	00158593          	addi	a1,a1,1
800013ac:	00b80733          	add	a4,a6,a1
800013b0:	fef70fa3          	sb	a5,-1(a4)
800013b4:	f40e1ce3          	bnez	t3,8000130c <_ZN9Serial_IO7vprintfEPKcPv+0x324>
800013b8:	000e1663          	bnez	t3,800013c4 <_ZN9Serial_IO7vprintfEPKcPv+0x3dc>
800013bc:	00900793          	li	a5,9
800013c0:	f5d7e6e3          	bltu	a5,t4,8000130c <_ZN9Serial_IO7vprintfEPKcPv+0x324>
800013c4:	0015d813          	srli	a6,a1,0x1
800013c8:	00100793          	li	a5,1
800013cc:	02b7f863          	bgeu	a5,a1,800013fc <_ZN9Serial_IO7vprintfEPKcPv+0x414>
800013d0:	006107b3          	add	a5,sp,t1
800013d4:	00010713          	mv	a4,sp
800013d8:	00078513          	mv	a0,a5
800013dc:	0007c683          	lbu	a3,0(a5)
800013e0:	00074603          	lbu	a2,0(a4)
800013e4:	00c78023          	sb	a2,0(a5)
800013e8:	00d70023          	sb	a3,0(a4)
800013ec:	fff78793          	addi	a5,a5,-1
800013f0:	00170713          	addi	a4,a4,1
800013f4:	40f506b3          	sub	a3,a0,a5
800013f8:	ff06e2e3          	bltu	a3,a6,800013dc <_ZN9Serial_IO7vprintfEPKcPv+0x3f4>
800013fc:	00010513          	mv	a0,sp
80001400:	d0dfe0ef          	jal	8000010c <_ZN9Serial_IO5writeEPKcm>
80001404:	00000513          	li	a0,0
80001408:	ce1fe0ef          	jal	800000e8 <_ZN9Serial_IO5writeEc>
8000140c:	000b0b93          	mv	s7,s6
80001410:	00048b13          	mv	s6,s1
80001414:	5480006f          	j	8000195c <_ZN9Serial_IO7vprintfEPKcPv+0x974>
80001418:	002b0b13          	addi	s6,s6,2
8000141c:	016407b3          	add	a5,s0,s6
80001420:	0007c783          	lbu	a5,0(a5)
80001424:	06400713          	li	a4,100
80001428:	0ce78a63          	beq	a5,a4,800014fc <_ZN9Serial_IO7vprintfEPKcPv+0x514>
8000142c:	06800713          	li	a4,104
80001430:	02e78063          	beq	a5,a4,80001450 <_ZN9Serial_IO7vprintfEPKcPv+0x468>
80001434:	06200713          	li	a4,98
80001438:	16e79e63          	bne	a5,a4,800015b4 <_ZN9Serial_IO7vprintfEPKcPv+0x5cc>
8000143c:	004b8493          	addi	s1,s7,4
80001440:	000bc503          	lbu	a0,0(s7)
80001444:	d05fe0ef          	jal	80000148 <_ZN9Serial_IO6writeHIhEEvT_>
80001448:	00048b93          	mv	s7,s1
8000144c:	5100006f          	j	8000195c <_ZN9Serial_IO7vprintfEPKcPv+0x974>
80001450:	004b8493          	addi	s1,s7,4
80001454:	000ba703          	lw	a4,0(s7)
80001458:	01071793          	slli	a5,a4,0x10
8000145c:	0107d793          	srli	a5,a5,0x10
80001460:	0047d693          	srli	a3,a5,0x4
80001464:	00f6f693          	andi	a3,a3,15
80001468:	00f77713          	andi	a4,a4,15
8000146c:	00900593          	li	a1,9
80001470:	03070613          	addi	a2,a4,48
80001474:	00e5f463          	bgeu	a1,a4,8000147c <_ZN9Serial_IO7vprintfEPKcPv+0x494>
80001478:	03770613          	addi	a2,a4,55
8000147c:	00c10023          	sb	a2,0(sp)
80001480:	00900613          	li	a2,9
80001484:	03768713          	addi	a4,a3,55
80001488:	00d66463          	bltu	a2,a3,80001490 <_ZN9Serial_IO7vprintfEPKcPv+0x4a8>
8000148c:	03068713          	addi	a4,a3,48
80001490:	00e100a3          	sb	a4,1(sp)
80001494:	00c7d713          	srli	a4,a5,0xc
80001498:	0087d793          	srli	a5,a5,0x8
8000149c:	00f7f793          	andi	a5,a5,15
800014a0:	00900613          	li	a2,9
800014a4:	03078693          	addi	a3,a5,48
800014a8:	00f67463          	bgeu	a2,a5,800014b0 <_ZN9Serial_IO7vprintfEPKcPv+0x4c8>
800014ac:	03778693          	addi	a3,a5,55
800014b0:	00d10123          	sb	a3,2(sp)
800014b4:	00900693          	li	a3,9
800014b8:	03770793          	addi	a5,a4,55
800014bc:	00e6e463          	bltu	a3,a4,800014c4 <_ZN9Serial_IO7vprintfEPKcPv+0x4dc>
800014c0:	03070793          	addi	a5,a4,48
800014c4:	00014703          	lbu	a4,0(sp)
800014c8:	00e101a3          	sb	a4,3(sp)
800014cc:	00f10023          	sb	a5,0(sp)
800014d0:	00214783          	lbu	a5,2(sp)
800014d4:	00114703          	lbu	a4,1(sp)
800014d8:	00e10123          	sb	a4,2(sp)
800014dc:	00f100a3          	sb	a5,1(sp)
800014e0:	00400593          	li	a1,4
800014e4:	00010513          	mv	a0,sp
800014e8:	c25fe0ef          	jal	8000010c <_ZN9Serial_IO5writeEPKcm>
800014ec:	00000513          	li	a0,0
800014f0:	bf9fe0ef          	jal	800000e8 <_ZN9Serial_IO5writeEc>
800014f4:	00048b93          	mv	s7,s1
800014f8:	4640006f          	j	8000195c <_ZN9Serial_IO7vprintfEPKcPv+0x974>
800014fc:	007b8793          	addi	a5,s7,7
80001500:	ff87f793          	andi	a5,a5,-8
80001504:	00878b93          	addi	s7,a5,8
80001508:	0007a703          	lw	a4,0(a5)
8000150c:	0047a503          	lw	a0,4(a5)
80001510:	00010593          	mv	a1,sp
80001514:	01010893          	addi	a7,sp,16
80001518:	00010693          	mv	a3,sp
8000151c:	00900813          	li	a6,9
80001520:	0300006f          	j	80001550 <_ZN9Serial_IO7vprintfEPKcPv+0x568>
80001524:	03060613          	addi	a2,a2,48
80001528:	00c68023          	sb	a2,0(a3)
8000152c:	03c0006f          	j	80001568 <_ZN9Serial_IO7vprintfEPKcPv+0x580>
80001530:	03778793          	addi	a5,a5,55
80001534:	00f680a3          	sb	a5,1(a3)
80001538:	01851793          	slli	a5,a0,0x18
8000153c:	00875713          	srli	a4,a4,0x8
80001540:	00e7e733          	or	a4,a5,a4
80001544:	00855513          	srli	a0,a0,0x8
80001548:	00268693          	addi	a3,a3,2
8000154c:	03168663          	beq	a3,a7,80001578 <_ZN9Serial_IO7vprintfEPKcPv+0x590>
80001550:	00475793          	srli	a5,a4,0x4
80001554:	00f7f793          	andi	a5,a5,15
80001558:	00f77613          	andi	a2,a4,15
8000155c:	fcc874e3          	bgeu	a6,a2,80001524 <_ZN9Serial_IO7vprintfEPKcPv+0x53c>
80001560:	03760613          	addi	a2,a2,55
80001564:	00c68023          	sb	a2,0(a3)
80001568:	fcf864e3          	bltu	a6,a5,80001530 <_ZN9Serial_IO7vprintfEPKcPv+0x548>
8000156c:	03078793          	addi	a5,a5,48
80001570:	00f680a3          	sb	a5,1(a3)
80001574:	fc5ff06f          	j	80001538 <_ZN9Serial_IO7vprintfEPKcPv+0x550>
80001578:	00858613          	addi	a2,a1,8
8000157c:	00058793          	mv	a5,a1
80001580:	00f5c703          	lbu	a4,15(a1)
80001584:	0007c683          	lbu	a3,0(a5)
80001588:	00d587a3          	sb	a3,15(a1)
8000158c:	00e78023          	sb	a4,0(a5)
80001590:	fff58593          	addi	a1,a1,-1
80001594:	00178793          	addi	a5,a5,1
80001598:	fec794e3          	bne	a5,a2,80001580 <_ZN9Serial_IO7vprintfEPKcPv+0x598>
8000159c:	01000593          	li	a1,16
800015a0:	00010513          	mv	a0,sp
800015a4:	b69fe0ef          	jal	8000010c <_ZN9Serial_IO5writeEPKcm>
800015a8:	00000513          	li	a0,0
800015ac:	b3dfe0ef          	jal	800000e8 <_ZN9Serial_IO5writeEc>
800015b0:	3ac0006f          	j	8000195c <_ZN9Serial_IO7vprintfEPKcPv+0x974>
800015b4:	004b8b13          	addi	s6,s7,4
800015b8:	000ba503          	lw	a0,0(s7)
800015bc:	be1fe0ef          	jal	8000019c <_ZN9Serial_IO6writeHImEEvT_>
800015c0:	000b0b93          	mv	s7,s6
800015c4:	00048b13          	mv	s6,s1
800015c8:	3940006f          	j	8000195c <_ZN9Serial_IO7vprintfEPKcPv+0x974>
800015cc:	002b0b13          	addi	s6,s6,2
800015d0:	016407b3          	add	a5,s0,s6
800015d4:	0007c783          	lbu	a5,0(a5)
800015d8:	06400713          	li	a4,100
800015dc:	0ae78063          	beq	a5,a4,8000167c <_ZN9Serial_IO7vprintfEPKcPv+0x694>
800015e0:	06800713          	li	a4,104
800015e4:	04e78863          	beq	a5,a4,80001634 <_ZN9Serial_IO7vprintfEPKcPv+0x64c>
800015e8:	06200713          	li	a4,98
800015ec:	0ee79663          	bne	a5,a4,800016d8 <_ZN9Serial_IO7vprintfEPKcPv+0x6f0>
800015f0:	004b8493          	addi	s1,s7,4
800015f4:	000bc683          	lbu	a3,0(s7)
800015f8:	00010793          	mv	a5,sp
800015fc:	ff810613          	addi	a2,sp,-8
80001600:	0016f713          	andi	a4,a3,1
80001604:	03070713          	addi	a4,a4,48
80001608:	00e783a3          	sb	a4,7(a5)
8000160c:	0016d693          	srli	a3,a3,0x1
80001610:	fff78793          	addi	a5,a5,-1
80001614:	fec796e3          	bne	a5,a2,80001600 <_ZN9Serial_IO7vprintfEPKcPv+0x618>
80001618:	00800593          	li	a1,8
8000161c:	00010513          	mv	a0,sp
80001620:	aedfe0ef          	jal	8000010c <_ZN9Serial_IO5writeEPKcm>
80001624:	00000513          	li	a0,0
80001628:	ac1fe0ef          	jal	800000e8 <_ZN9Serial_IO5writeEc>
8000162c:	00048b93          	mv	s7,s1
80001630:	32c0006f          	j	8000195c <_ZN9Serial_IO7vprintfEPKcPv+0x974>
80001634:	004b8493          	addi	s1,s7,4
80001638:	000bd683          	lhu	a3,0(s7)
8000163c:	00f10793          	addi	a5,sp,15
80001640:	00010613          	mv	a2,sp
80001644:	0016f713          	andi	a4,a3,1
80001648:	03070713          	addi	a4,a4,48
8000164c:	00e78023          	sb	a4,0(a5)
80001650:	0016d693          	srli	a3,a3,0x1
80001654:	00078713          	mv	a4,a5
80001658:	fff78793          	addi	a5,a5,-1
8000165c:	fee614e3          	bne	a2,a4,80001644 <_ZN9Serial_IO7vprintfEPKcPv+0x65c>
80001660:	01000593          	li	a1,16
80001664:	00010513          	mv	a0,sp
80001668:	aa5fe0ef          	jal	8000010c <_ZN9Serial_IO5writeEPKcm>
8000166c:	00000513          	li	a0,0
80001670:	a79fe0ef          	jal	800000e8 <_ZN9Serial_IO5writeEc>
80001674:	00048b93          	mv	s7,s1
80001678:	2e40006f          	j	8000195c <_ZN9Serial_IO7vprintfEPKcPv+0x974>
8000167c:	007b8713          	addi	a4,s7,7
80001680:	ff877713          	andi	a4,a4,-8
80001684:	00870b93          	addi	s7,a4,8
80001688:	00072783          	lw	a5,0(a4)
8000168c:	00472603          	lw	a2,4(a4)
80001690:	03f10713          	addi	a4,sp,63
80001694:	00010593          	mv	a1,sp
80001698:	0017f693          	andi	a3,a5,1
8000169c:	03068693          	addi	a3,a3,48
800016a0:	00d70023          	sb	a3,0(a4)
800016a4:	01f61693          	slli	a3,a2,0x1f
800016a8:	0017d793          	srli	a5,a5,0x1
800016ac:	00f6e7b3          	or	a5,a3,a5
800016b0:	00165613          	srli	a2,a2,0x1
800016b4:	00070693          	mv	a3,a4
800016b8:	fff70713          	addi	a4,a4,-1
800016bc:	fcb69ee3          	bne	a3,a1,80001698 <_ZN9Serial_IO7vprintfEPKcPv+0x6b0>
800016c0:	04000593          	li	a1,64
800016c4:	00010513          	mv	a0,sp
800016c8:	a45fe0ef          	jal	8000010c <_ZN9Serial_IO5writeEPKcm>
800016cc:	00000513          	li	a0,0
800016d0:	a19fe0ef          	jal	800000e8 <_ZN9Serial_IO5writeEc>
800016d4:	2880006f          	j	8000195c <_ZN9Serial_IO7vprintfEPKcPv+0x974>
800016d8:	004b8b13          	addi	s6,s7,4
800016dc:	000ba683          	lw	a3,0(s7)
800016e0:	01f10793          	addi	a5,sp,31
800016e4:	00010613          	mv	a2,sp
800016e8:	0016f713          	andi	a4,a3,1
800016ec:	03070713          	addi	a4,a4,48
800016f0:	00e78023          	sb	a4,0(a5)
800016f4:	0016d693          	srli	a3,a3,0x1
800016f8:	00078713          	mv	a4,a5
800016fc:	fff78793          	addi	a5,a5,-1
80001700:	fec714e3          	bne	a4,a2,800016e8 <_ZN9Serial_IO7vprintfEPKcPv+0x700>
80001704:	02000593          	li	a1,32
80001708:	00010513          	mv	a0,sp
8000170c:	a01fe0ef          	jal	8000010c <_ZN9Serial_IO5writeEPKcm>
80001710:	00000513          	li	a0,0
80001714:	9d5fe0ef          	jal	800000e8 <_ZN9Serial_IO5writeEc>
80001718:	000b0b93          	mv	s7,s6
8000171c:	00048b13          	mv	s6,s1
80001720:	23c0006f          	j	8000195c <_ZN9Serial_IO7vprintfEPKcPv+0x974>
80001724:	002b0b13          	addi	s6,s6,2
80001728:	016407b3          	add	a5,s0,s6
8000172c:	0007c703          	lbu	a4,0(a5)
80001730:	fd070793          	addi	a5,a4,-48
80001734:	0ff7f793          	zext.b	a5,a5
80001738:	00900693          	li	a3,9
8000173c:	04f6e263          	bltu	a3,a5,80001780 <_ZN9Serial_IO7vprintfEPKcPv+0x798>
80001740:	00000493          	li	s1,0
80001744:	2094c4b3          	sh2add	s1,s1,s1
80001748:	20e4a4b3          	sh1add	s1,s1,a4
8000174c:	fd048493          	addi	s1,s1,-48
80001750:	001b0b13          	addi	s6,s6,1
80001754:	016407b3          	add	a5,s0,s6
80001758:	0007c703          	lbu	a4,0(a5)
8000175c:	fd070793          	addi	a5,a4,-48
80001760:	0ff7f793          	zext.b	a5,a5
80001764:	fef6f0e3          	bgeu	a3,a5,80001744 <_ZN9Serial_IO7vprintfEPKcPv+0x75c>
80001768:	06600793          	li	a5,102
8000176c:	00f70e63          	beq	a4,a5,80001788 <_ZN9Serial_IO7vprintfEPKcPv+0x7a0>
80001770:	80002537          	lui	a0,0x80002
80001774:	70450513          	addi	a0,a0,1796 # 80002704 <memset+0xdc>
80001778:	ab9fe0ef          	jal	80000230 <_ZN9Serial_IO5writeEPKc>
8000177c:	1e00006f          	j	8000195c <_ZN9Serial_IO7vprintfEPKcPv+0x974>
80001780:	00000493          	li	s1,0
80001784:	fe5ff06f          	j	80001768 <_ZN9Serial_IO7vprintfEPKcPv+0x780>
80001788:	05912a23          	sw	s9,84(sp)
8000178c:	05a12823          	sw	s10,80(sp)
80001790:	05b12623          	sw	s11,76(sp)
80001794:	007b8793          	addi	a5,s7,7
80001798:	ff87f793          	andi	a5,a5,-8
8000179c:	00878b93          	addi	s7,a5,8
800017a0:	0007a503          	lw	a0,0(a5)
800017a4:	0047a583          	lw	a1,4(a5)
800017a8:	399000ef          	jal	80002340 <__truncdfsf2>
800017ac:	00050c13          	mv	s8,a0
800017b0:	00000793          	li	a5,0
800017b4:	a0f517d3          	flt.s	a5,a0,a5
800017b8:	16079e63          	bnez	a5,80001934 <_ZN9Serial_IO7vprintfEPKcPv+0x94c>
800017bc:	c00c1553          	fcvt.w.s	a0,s8,rtz
800017c0:	d00577d3          	fcvt.s.w	a5,a0
800017c4:	08fc7c53          	fsub.s	s8,s8,a5
800017c8:	00050693          	mv	a3,a0
800017cc:	41f55513          	srai	a0,a0,0x1f
800017d0:	00000593          	li	a1,0
800017d4:	ccccd637          	lui	a2,0xccccd
800017d8:	ccd60613          	addi	a2,a2,-819 # cccccccd <_ZN9Serial_IO6statusE+0x4ccca149>
800017dc:	ccccd837          	lui	a6,0xccccd
800017e0:	ccc80813          	addi	a6,a6,-820 # cccccccc <_ZN9Serial_IO6statusE+0x4ccca148>
800017e4:	00010893          	mv	a7,sp
800017e8:	00a687b3          	add	a5,a3,a0
800017ec:	00d7b733          	sltu	a4,a5,a3
800017f0:	00e787b3          	add	a5,a5,a4
800017f4:	02c7b733          	mulhu	a4,a5,a2
800017f8:	00275313          	srli	t1,a4,0x2
800017fc:	ffc77713          	andi	a4,a4,-4
80001800:	00670733          	add	a4,a4,t1
80001804:	40e787b3          	sub	a5,a5,a4
80001808:	40f687b3          	sub	a5,a3,a5
8000180c:	02c787b3          	mul	a5,a5,a2
80001810:	0017d793          	srli	a5,a5,0x1
80001814:	20f7c7b3          	sh2add	a5,a5,a5
80001818:	00179793          	slli	a5,a5,0x1
8000181c:	40f687b3          	sub	a5,a3,a5
80001820:	03078793          	addi	a5,a5,48
80001824:	00068e13          	mv	t3,a3
80001828:	00050313          	mv	t1,a0
8000182c:	00a68733          	add	a4,a3,a0
80001830:	00d73eb3          	sltu	t4,a4,a3
80001834:	01d70733          	add	a4,a4,t4
80001838:	02c73eb3          	mulhu	t4,a4,a2
8000183c:	002edf13          	srli	t5,t4,0x2
80001840:	ffcefe93          	andi	t4,t4,-4
80001844:	01ee8eb3          	add	t4,t4,t5
80001848:	41d70733          	sub	a4,a4,t4
8000184c:	40e68733          	sub	a4,a3,a4
80001850:	00e6b6b3          	sltu	a3,a3,a4
80001854:	40d506b3          	sub	a3,a0,a3
80001858:	02c686b3          	mul	a3,a3,a2
8000185c:	03070533          	mul	a0,a4,a6
80001860:	00a686b3          	add	a3,a3,a0
80001864:	02c70533          	mul	a0,a4,a2
80001868:	02c73733          	mulhu	a4,a4,a2
8000186c:	00e68733          	add	a4,a3,a4
80001870:	01f71693          	slli	a3,a4,0x1f
80001874:	00155513          	srli	a0,a0,0x1
80001878:	00a6e6b3          	or	a3,a3,a0
8000187c:	00175513          	srli	a0,a4,0x1
80001880:	00058e93          	mv	t4,a1
80001884:	00158593          	addi	a1,a1,1
80001888:	00b88733          	add	a4,a7,a1
8000188c:	fef70fa3          	sb	a5,-1(a4)
80001890:	f4031ce3          	bnez	t1,800017e8 <_ZN9Serial_IO7vprintfEPKcPv+0x800>
80001894:	00031663          	bnez	t1,800018a0 <_ZN9Serial_IO7vprintfEPKcPv+0x8b8>
80001898:	00900793          	li	a5,9
8000189c:	f5c7e6e3          	bltu	a5,t3,800017e8 <_ZN9Serial_IO7vprintfEPKcPv+0x800>
800018a0:	0015d813          	srli	a6,a1,0x1
800018a4:	00100793          	li	a5,1
800018a8:	02b7f863          	bgeu	a5,a1,800018d8 <_ZN9Serial_IO7vprintfEPKcPv+0x8f0>
800018ac:	01d107b3          	add	a5,sp,t4
800018b0:	00010713          	mv	a4,sp
800018b4:	00078513          	mv	a0,a5
800018b8:	0007c683          	lbu	a3,0(a5)
800018bc:	00074603          	lbu	a2,0(a4)
800018c0:	00c78023          	sb	a2,0(a5)
800018c4:	00d70023          	sb	a3,0(a4)
800018c8:	fff78793          	addi	a5,a5,-1
800018cc:	00170713          	addi	a4,a4,1
800018d0:	40f506b3          	sub	a3,a0,a5
800018d4:	ff06e2e3          	bltu	a3,a6,800018b8 <_ZN9Serial_IO7vprintfEPKcPv+0x8d0>
800018d8:	00010513          	mv	a0,sp
800018dc:	831fe0ef          	jal	8000010c <_ZN9Serial_IO5writeEPKcm>
800018e0:	00000513          	li	a0,0
800018e4:	805fe0ef          	jal	800000e8 <_ZN9Serial_IO5writeEc>
800018e8:	02e00513          	li	a0,46
800018ec:	ffcfe0ef          	jal	800000e8 <_ZN9Serial_IO5writeEc>
800018f0:	0a048e63          	beqz	s1,800019ac <_ZN9Serial_IO7vprintfEPKcPv+0x9c4>
800018f4:	00000d13          	li	s10,0
800018f8:	800037b7          	lui	a5,0x80003
800018fc:	b7c7ad83          	lw	s11,-1156(a5) # 80002b7c <memset+0x554>
80001900:	11bc7c53          	fmul.s	s8,s8,s11
80001904:	c00c1cd3          	fcvt.w.s	s9,s8,rtz
80001908:	030c8513          	addi	a0,s9,48
8000190c:	0ff57513          	zext.b	a0,a0
80001910:	fd8fe0ef          	jal	800000e8 <_ZN9Serial_IO5writeEc>
80001914:	d00cfcd3          	fcvt.s.w	s9,s9
80001918:	099c7c53          	fsub.s	s8,s8,s9
8000191c:	001d0d13          	addi	s10,s10,1
80001920:	fe9d10e3          	bne	s10,s1,80001900 <_ZN9Serial_IO7vprintfEPKcPv+0x918>
80001924:	05412c83          	lw	s9,84(sp)
80001928:	05012d03          	lw	s10,80(sp)
8000192c:	04c12d83          	lw	s11,76(sp)
80001930:	02c0006f          	j	8000195c <_ZN9Serial_IO7vprintfEPKcPv+0x974>
80001934:	02d00513          	li	a0,45
80001938:	fb0fe0ef          	jal	800000e8 <_ZN9Serial_IO5writeEc>
8000193c:	218c1c53          	fneg.s	s8,s8
80001940:	e7dff06f          	j	800017bc <_ZN9Serial_IO7vprintfEPKcPv+0x7d4>
80001944:	80002537          	lui	a0,0x80002
80001948:	70450513          	addi	a0,a0,1796 # 80002704 <memset+0xdc>
8000194c:	8e5fe0ef          	jal	80000230 <_ZN9Serial_IO5writeEPKc>
80001950:	00048b13          	mv	s6,s1
80001954:	0080006f          	j	8000195c <_ZN9Serial_IO7vprintfEPKcPv+0x974>
80001958:	f90fe0ef          	jal	800000e8 <_ZN9Serial_IO5writeEc>
8000195c:	001b0b13          	addi	s6,s6,1
80001960:	016407b3          	add	a5,s0,s6
80001964:	0007c503          	lbu	a0,0(a5)
80001968:	04050a63          	beqz	a0,800019bc <_ZN9Serial_IO7vprintfEPKcPv+0x9d4>
8000196c:	ff2516e3          	bne	a0,s2,80001958 <_ZN9Serial_IO7vprintfEPKcPv+0x970>
80001970:	001b0493          	addi	s1,s6,1
80001974:	009407b3          	add	a5,s0,s1
80001978:	0007c783          	lbu	a5,0(a5)
8000197c:	db4784e3          	beq	a5,s4,80001724 <_ZN9Serial_IO7vprintfEPKcPv+0x73c>
80001980:	f9e78713          	addi	a4,a5,-98
80001984:	0ff77713          	zext.b	a4,a4
80001988:	fae9eee3          	bltu	s3,a4,80001944 <_ZN9Serial_IO7vprintfEPKcPv+0x95c>
8000198c:	f9e78793          	addi	a5,a5,-98
80001990:	0ff7f713          	zext.b	a4,a5
80001994:	fae9e8e3          	bltu	s3,a4,80001944 <_ZN9Serial_IO7vprintfEPKcPv+0x95c>
80001998:	00070793          	mv	a5,a4
8000199c:	b20a8713          	addi	a4,s5,-1248 # 80002b20 <memset+0x4f8>
800019a0:	20e7c7b3          	sh2add	a5,a5,a4
800019a4:	0007a783          	lw	a5,0(a5)
800019a8:	00078067          	jr	a5
800019ac:	05412c83          	lw	s9,84(sp)
800019b0:	05012d03          	lw	s10,80(sp)
800019b4:	04c12d83          	lw	s11,76(sp)
800019b8:	fa5ff06f          	j	8000195c <_ZN9Serial_IO7vprintfEPKcPv+0x974>
800019bc:	07412483          	lw	s1,116(sp)
800019c0:	07012903          	lw	s2,112(sp)
800019c4:	06c12983          	lw	s3,108(sp)
800019c8:	06812a03          	lw	s4,104(sp)
800019cc:	06412a83          	lw	s5,100(sp)
800019d0:	06012b03          	lw	s6,96(sp)
800019d4:	05c12b83          	lw	s7,92(sp)
800019d8:	05812c03          	lw	s8,88(sp)
800019dc:	07c12083          	lw	ra,124(sp)
800019e0:	07812403          	lw	s0,120(sp)
800019e4:	08010113          	addi	sp,sp,128
800019e8:	00008067          	ret

800019ec <_ZN9Serial_IO6printfEPKcz>:
800019ec:	fc010113          	addi	sp,sp,-64
800019f0:	00112e23          	sw	ra,28(sp)
800019f4:	02b12223          	sw	a1,36(sp)
800019f8:	02c12423          	sw	a2,40(sp)
800019fc:	02d12623          	sw	a3,44(sp)
80001a00:	02e12823          	sw	a4,48(sp)
80001a04:	02f12a23          	sw	a5,52(sp)
80001a08:	03012c23          	sw	a6,56(sp)
80001a0c:	03112e23          	sw	a7,60(sp)
80001a10:	02410593          	addi	a1,sp,36
80001a14:	00b12623          	sw	a1,12(sp)
80001a18:	dd0ff0ef          	jal	80000fe8 <_ZN9Serial_IO7vprintfEPKcPv>
80001a1c:	00000513          	li	a0,0
80001a20:	ec8fe0ef          	jal	800000e8 <_ZN9Serial_IO5writeEc>
80001a24:	01c12083          	lw	ra,28(sp)
80001a28:	04010113          	addi	sp,sp,64
80001a2c:	00008067          	ret

80001a30 <_Z8testReadR2SDmR5Timer>:
80001a30:	dd010113          	addi	sp,sp,-560
80001a34:	22912223          	sw	s1,548(sp)
80001a38:	01010493          	addi	s1,sp,16
80001a3c:	22812423          	sw	s0,552(sp)
80001a40:	23212023          	sw	s2,544(sp)
80001a44:	00060413          	mv	s0,a2
80001a48:	21312e23          	sw	s3,540(sp)
80001a4c:	20000613          	li	a2,512
80001a50:	00050913          	mv	s2,a0
80001a54:	00058993          	mv	s3,a1
80001a58:	00048513          	mv	a0,s1
80001a5c:	00000593          	li	a1,0
80001a60:	22112623          	sw	ra,556(sp)
80001a64:	3c5000ef          	jal	80002628 <memset>
80001a68:	00040513          	mv	a0,s0
80001a6c:	000103a3          	sb	zero,7(sp)
80001a70:	d50ff0ef          	jal	80000fc0 <_ZN5Timer7restartEv>
80001a74:	00098593          	mv	a1,s3
80001a78:	00710713          	addi	a4,sp,7
80001a7c:	00048613          	mv	a2,s1
80001a80:	00000693          	li	a3,0
80001a84:	00090513          	mv	a0,s2
80001a88:	8e4ff0ef          	jal	80000b6c <_ZN2SD9readBlockEmPmPhRb>
80001a8c:	00040513          	mv	a0,s0
80001a90:	d1cff0ef          	jal	80000fac <_ZN5Timer4stopEv>
80001a94:	00714783          	lbu	a5,7(sp)
80001a98:	10079463          	bnez	a5,80001ba0 <_Z8testReadR2SDmR5Timer+0x170>
80001a9c:	00040513          	mv	a0,s0
80001aa0:	cfcff0ef          	jal	80000f9c <_ZNK5Timer7getTimeEv>
80001aa4:	00259713          	slli	a4,a1,0x2
80001aa8:	01e55793          	srli	a5,a0,0x1e
80001aac:	20a54633          	sh2add	a2,a0,a0
80001ab0:	00e7e733          	or	a4,a5,a4
80001ab4:	00251793          	slli	a5,a0,0x2
80001ab8:	00b70733          	add	a4,a4,a1
80001abc:	00f637b3          	sltu	a5,a2,a5
80001ac0:	00e787b3          	add	a5,a5,a4
80001ac4:	00179793          	slli	a5,a5,0x1
80001ac8:	01f65693          	srli	a3,a2,0x1f
80001acc:	80002537          	lui	a0,0x80002
80001ad0:	00f6e6b3          	or	a3,a3,a5
80001ad4:	00161613          	slli	a2,a2,0x1
80001ad8:	73450513          	addi	a0,a0,1844 # 80002734 <memset+0x10c>
80001adc:	f11ff0ef          	jal	800019ec <_ZN9Serial_IO6printfEPKcz>
80001ae0:	80002537          	lui	a0,0x80002
80001ae4:	74850513          	addi	a0,a0,1864 # 80002748 <memset+0x120>
80001ae8:	f48fe0ef          	jal	80000230 <_ZN9Serial_IO5writeEPKc>
80001aec:	00048993          	mv	s3,s1
80001af0:	00c10913          	addi	s2,sp,12
80001af4:	00900413          	li	s0,9
80001af8:	0009a603          	lw	a2,0(s3)
80001afc:	00810693          	addi	a3,sp,8
80001b00:	00068713          	mv	a4,a3
80001b04:	00465793          	srli	a5,a2,0x4
80001b08:	00f67593          	andi	a1,a2,15
80001b0c:	00f7f793          	andi	a5,a5,15
80001b10:	03058513          	addi	a0,a1,48
80001b14:	00b47463          	bgeu	s0,a1,80001b1c <_Z8testReadR2SDmR5Timer+0xec>
80001b18:	03758513          	addi	a0,a1,55
80001b1c:	03078593          	addi	a1,a5,48
80001b20:	00f47463          	bgeu	s0,a5,80001b28 <_Z8testReadR2SDmR5Timer+0xf8>
80001b24:	03778593          	addi	a1,a5,55
80001b28:	00a70023          	sb	a0,0(a4)
80001b2c:	00b700a3          	sb	a1,1(a4)
80001b30:	00270713          	addi	a4,a4,2
80001b34:	00865613          	srli	a2,a2,0x8
80001b38:	fc9716e3          	bne	a4,s1,80001b04 <_Z8testReadR2SDmR5Timer+0xd4>
80001b3c:	00810793          	addi	a5,sp,8
80001b40:	0007c603          	lbu	a2,0(a5)
80001b44:	0076c703          	lbu	a4,7(a3)
80001b48:	00178793          	addi	a5,a5,1
80001b4c:	00c683a3          	sb	a2,7(a3)
80001b50:	fee78fa3          	sb	a4,-1(a5)
80001b54:	fff68693          	addi	a3,a3,-1
80001b58:	fef914e3          	bne	s2,a5,80001b40 <_Z8testReadR2SDmR5Timer+0x110>
80001b5c:	00800593          	li	a1,8
80001b60:	00b10533          	add	a0,sp,a1
80001b64:	da8fe0ef          	jal	8000010c <_ZN9Serial_IO5writeEPKcm>
80001b68:	00000513          	li	a0,0
80001b6c:	d7cfe0ef          	jal	800000e8 <_ZN9Serial_IO5writeEc>
80001b70:	00498993          	addi	s3,s3,4
80001b74:	21010793          	addi	a5,sp,528
80001b78:	f8f990e3          	bne	s3,a5,80001af8 <_Z8testReadR2SDmR5Timer+0xc8>
80001b7c:	22812403          	lw	s0,552(sp)
80001b80:	22c12083          	lw	ra,556(sp)
80001b84:	22412483          	lw	s1,548(sp)
80001b88:	22012903          	lw	s2,544(sp)
80001b8c:	21c12983          	lw	s3,540(sp)
80001b90:	80002537          	lui	a0,0x80002
80001b94:	75850513          	addi	a0,a0,1880 # 80002758 <memset+0x130>
80001b98:	23010113          	addi	sp,sp,560
80001b9c:	e94fe06f          	j	80000230 <_ZN9Serial_IO5writeEPKc>
80001ba0:	22812403          	lw	s0,552(sp)
80001ba4:	22c12083          	lw	ra,556(sp)
80001ba8:	22412483          	lw	s1,548(sp)
80001bac:	22012903          	lw	s2,544(sp)
80001bb0:	21c12983          	lw	s3,540(sp)
80001bb4:	80002537          	lui	a0,0x80002
80001bb8:	72050513          	addi	a0,a0,1824 # 80002720 <memset+0xf8>
80001bbc:	23010113          	addi	sp,sp,560
80001bc0:	e70fe06f          	j	80000230 <_ZN9Serial_IO5writeEPKc>

80001bc4 <_Z13testBurstReadR2SDmR5Timer>:
80001bc4:	fd010113          	addi	sp,sp,-48
80001bc8:	ffffe2b7          	lui	t0,0xffffe
80001bcc:	02112623          	sw	ra,44(sp)
80001bd0:	01312e23          	sw	s3,28(sp)
80001bd4:	02812423          	sw	s0,40(sp)
80001bd8:	02912223          	sw	s1,36(sp)
80001bdc:	03212023          	sw	s2,32(sp)
80001be0:	00510133          	add	sp,sp,t0
80001be4:	01010993          	addi	s3,sp,16
80001be8:	00060413          	mv	s0,a2
80001bec:	00050493          	mv	s1,a0
80001bf0:	00002637          	lui	a2,0x2
80001bf4:	00058913          	mv	s2,a1
80001bf8:	00098513          	mv	a0,s3
80001bfc:	00000593          	li	a1,0
80001c00:	229000ef          	jal	80002628 <memset>
80001c04:	00040513          	mv	a0,s0
80001c08:	fe098ba3          	sb	zero,-9(s3)
80001c0c:	bb4ff0ef          	jal	80000fc0 <_ZN5Timer7restartEv>
80001c10:	00710793          	addi	a5,sp,7
80001c14:	00090593          	mv	a1,s2
80001c18:	00098693          	mv	a3,s3
80001c1c:	00000713          	li	a4,0
80001c20:	01000613          	li	a2,16
80001c24:	00048513          	mv	a0,s1
80001c28:	818ff0ef          	jal	80000c40 <_ZN2SD9readBurstEmmPmPhRb>
80001c2c:	00040513          	mv	a0,s0
80001c30:	b7cff0ef          	jal	80000fac <_ZN5Timer4stopEv>
80001c34:	ff79c783          	lbu	a5,-9(s3)
80001c38:	12079263          	bnez	a5,80001d5c <_Z13testBurstReadR2SDmR5Timer+0x198>
80001c3c:	00040513          	mv	a0,s0
80001c40:	b5cff0ef          	jal	80000f9c <_ZNK5Timer7getTimeEv>
80001c44:	00259713          	slli	a4,a1,0x2
80001c48:	01e55793          	srli	a5,a0,0x1e
80001c4c:	20a54633          	sh2add	a2,a0,a0
80001c50:	00e7e733          	or	a4,a5,a4
80001c54:	00251793          	slli	a5,a0,0x2
80001c58:	00b70733          	add	a4,a4,a1
80001c5c:	00f637b3          	sltu	a5,a2,a5
80001c60:	00e787b3          	add	a5,a5,a4
80001c64:	00179793          	slli	a5,a5,0x1
80001c68:	01f65693          	srli	a3,a2,0x1f
80001c6c:	80002537          	lui	a0,0x80002
80001c70:	00f6e6b3          	or	a3,a3,a5
80001c74:	00161613          	slli	a2,a2,0x1
80001c78:	77450513          	addi	a0,a0,1908 # 80002774 <memset+0x14c>
80001c7c:	d71ff0ef          	jal	800019ec <_ZN9Serial_IO6printfEPKcz>
80001c80:	80002537          	lui	a0,0x80002
80001c84:	79050513          	addi	a0,a0,1936 # 80002790 <memset+0x168>
80001c88:	ffffe437          	lui	s0,0xffffe
80001c8c:	da4fe0ef          	jal	80000230 <_ZN9Serial_IO5writeEPKc>
80001c90:	ff840413          	addi	s0,s0,-8 # ffffdff8 <_ZN9Serial_IO6statusE+0x7fffb474>
80001c94:	00810493          	addi	s1,sp,8
80001c98:	00900913          	li	s2,9
80001c9c:	0009a603          	lw	a2,0(s3)
80001ca0:	00810693          	addi	a3,sp,8
80001ca4:	00868813          	addi	a6,a3,8
80001ca8:	00068713          	mv	a4,a3
80001cac:	00465793          	srli	a5,a2,0x4
80001cb0:	00f67593          	andi	a1,a2,15
80001cb4:	00f7f793          	andi	a5,a5,15
80001cb8:	03058513          	addi	a0,a1,48
80001cbc:	00b97463          	bgeu	s2,a1,80001cc4 <_Z13testBurstReadR2SDmR5Timer+0x100>
80001cc0:	03758513          	addi	a0,a1,55
80001cc4:	03078593          	addi	a1,a5,48
80001cc8:	00f97463          	bgeu	s2,a5,80001cd0 <_Z13testBurstReadR2SDmR5Timer+0x10c>
80001ccc:	03778593          	addi	a1,a5,55
80001cd0:	00a70023          	sb	a0,0(a4)
80001cd4:	00b700a3          	sb	a1,1(a4)
80001cd8:	00270713          	addi	a4,a4,2
80001cdc:	00865613          	srli	a2,a2,0x8
80001ce0:	fd0716e3          	bne	a4,a6,80001cac <_Z13testBurstReadR2SDmR5Timer+0xe8>
80001ce4:	00468593          	addi	a1,a3,4
80001ce8:	00068793          	mv	a5,a3
80001cec:	0007c603          	lbu	a2,0(a5)
80001cf0:	0076c703          	lbu	a4,7(a3)
80001cf4:	00178793          	addi	a5,a5,1
80001cf8:	00c683a3          	sb	a2,7(a3)
80001cfc:	fee78fa3          	sb	a4,-1(a5)
80001d00:	fff68693          	addi	a3,a3,-1
80001d04:	fef594e3          	bne	a1,a5,80001cec <_Z13testBurstReadR2SDmR5Timer+0x128>
80001d08:	00800593          	li	a1,8
80001d0c:	00048513          	mv	a0,s1
80001d10:	bfcfe0ef          	jal	8000010c <_ZN9Serial_IO5writeEPKcm>
80001d14:	00000513          	li	a0,0
80001d18:	bd0fe0ef          	jal	800000e8 <_ZN9Serial_IO5writeEc>
80001d1c:	000027b7          	lui	a5,0x2
80001d20:	01078793          	addi	a5,a5,16 # 2010 <copy_loop+0x1fec>
80001d24:	00498993          	addi	s3,s3,4
80001d28:	002787b3          	add	a5,a5,sp
80001d2c:	f6f998e3          	bne	s3,a5,80001c9c <_Z13testBurstReadR2SDmR5Timer+0xd8>
80001d30:	80002537          	lui	a0,0x80002
80001d34:	75850513          	addi	a0,a0,1880 # 80002758 <memset+0x130>
80001d38:	000022b7          	lui	t0,0x2
80001d3c:	00510133          	add	sp,sp,t0
80001d40:	02c12083          	lw	ra,44(sp)
80001d44:	02812403          	lw	s0,40(sp)
80001d48:	02412483          	lw	s1,36(sp)
80001d4c:	02012903          	lw	s2,32(sp)
80001d50:	01c12983          	lw	s3,28(sp)
80001d54:	03010113          	addi	sp,sp,48
80001d58:	cd8fe06f          	j	80000230 <_ZN9Serial_IO5writeEPKc>
80001d5c:	80002537          	lui	a0,0x80002
80001d60:	75c50513          	addi	a0,a0,1884 # 8000275c <memset+0x134>
80001d64:	fd5ff06f          	j	80001d38 <_Z13testBurstReadR2SDmR5Timer+0x174>

80001d68 <_Z14testBurstWriteR2SDmR5Timer>:
80001d68:	fd010113          	addi	sp,sp,-48
80001d6c:	ffffe2b7          	lui	t0,0xffffe
80001d70:	02812423          	sw	s0,40(sp)
80001d74:	03212023          	sw	s2,32(sp)
80001d78:	01312e23          	sw	s3,28(sp)
80001d7c:	02112623          	sw	ra,44(sp)
80001d80:	02912223          	sw	s1,36(sp)
80001d84:	00510133          	add	sp,sp,t0
80001d88:	01010793          	addi	a5,sp,16
80001d8c:	00058913          	mv	s2,a1
80001d90:	00050993          	mv	s3,a0
80001d94:	00060413          	mv	s0,a2
80001d98:	00078513          	mv	a0,a5
80001d9c:	00002637          	lui	a2,0x2
80001da0:	00000593          	li	a1,0
80001da4:	000107a3          	sb	zero,15(sp)
80001da8:	00010723          	sb	zero,14(sp)
80001dac:	07d000ef          	jal	80002628 <memset>
80001db0:	00050793          	mv	a5,a0
80001db4:	00090713          	mv	a4,s2
80001db8:	000026b7          	lui	a3,0x2
80001dbc:	01068693          	addi	a3,a3,16 # 2010 <copy_loop+0x1fec>
80001dc0:	00e7a023          	sw	a4,0(a5)
80001dc4:	002686b3          	add	a3,a3,sp
80001dc8:	00478793          	addi	a5,a5,4
80001dcc:	00170713          	addi	a4,a4,1
80001dd0:	fed794e3          	bne	a5,a3,80001db8 <_Z14testBurstWriteR2SDmR5Timer+0x50>
80001dd4:	00040513          	mv	a0,s0
80001dd8:	9e8ff0ef          	jal	80000fc0 <_ZN5Timer7restartEv>
80001ddc:	01010493          	addi	s1,sp,16
80001de0:	00e10793          	addi	a5,sp,14
80001de4:	00090593          	mv	a1,s2
80001de8:	00048693          	mv	a3,s1
80001dec:	00f10813          	addi	a6,sp,15
80001df0:	00000713          	li	a4,0
80001df4:	01000613          	li	a2,16
80001df8:	00098513          	mv	a0,s3
80001dfc:	f41fe0ef          	jal	80000d3c <_ZN2SD10writeBurstEmmPmPhS1_Rb>
80001e00:	00040513          	mv	a0,s0
80001e04:	9a8ff0ef          	jal	80000fac <_ZN5Timer4stopEv>
80001e08:	00f14783          	lbu	a5,15(sp)
80001e0c:	06079a63          	bnez	a5,80001e80 <_Z14testBurstWriteR2SDmR5Timer+0x118>
80001e10:	00040513          	mv	a0,s0
80001e14:	988ff0ef          	jal	80000f9c <_ZNK5Timer7getTimeEv>
80001e18:	01e55793          	srli	a5,a0,0x1e
80001e1c:	00259713          	slli	a4,a1,0x2
80001e20:	20a54633          	sh2add	a2,a0,a0
80001e24:	00e7e733          	or	a4,a5,a4
80001e28:	00251793          	slli	a5,a0,0x2
80001e2c:	00b70733          	add	a4,a4,a1
80001e30:	00f637b3          	sltu	a5,a2,a5
80001e34:	00e787b3          	add	a5,a5,a4
80001e38:	00179793          	slli	a5,a5,0x1
80001e3c:	01f65693          	srli	a3,a2,0x1f
80001e40:	80002537          	lui	a0,0x80002
80001e44:	7bc50513          	addi	a0,a0,1980 # 800027bc <memset+0x194>
80001e48:	00f6e6b3          	or	a3,a3,a5
80001e4c:	00161613          	slli	a2,a2,0x1
80001e50:	b9dff0ef          	jal	800019ec <_ZN9Serial_IO6printfEPKcz>
80001e54:	80002537          	lui	a0,0x80002
80001e58:	75850513          	addi	a0,a0,1880 # 80002758 <memset+0x130>
80001e5c:	000022b7          	lui	t0,0x2
80001e60:	00510133          	add	sp,sp,t0
80001e64:	02c12083          	lw	ra,44(sp)
80001e68:	02812403          	lw	s0,40(sp)
80001e6c:	02412483          	lw	s1,36(sp)
80001e70:	02012903          	lw	s2,32(sp)
80001e74:	01c12983          	lw	s3,28(sp)
80001e78:	03010113          	addi	sp,sp,48
80001e7c:	bb4fe06f          	j	80000230 <_ZN9Serial_IO5writeEPKc>
80001e80:	80002537          	lui	a0,0x80002
80001e84:	7a450513          	addi	a0,a0,1956 # 800027a4 <memset+0x17c>
80001e88:	fd5ff06f          	j	80001e5c <_Z14testBurstWriteR2SDmR5Timer+0xf4>

80001e8c <sd_test>:
80001e8c:	0001c537          	lui	a0,0x1c
80001e90:	d4010113          	addi	sp,sp,-704
80001e94:	00300713          	li	a4,3
80001e98:	00000693          	li	a3,0
80001e9c:	00000613          	li	a2,0
80001ea0:	20050513          	addi	a0,a0,512 # 1c200 <copy_loop+0x1c1dc>
80001ea4:	00100593          	li	a1,1
80001ea8:	2a112e23          	sw	ra,700(sp)
80001eac:	954fe0ef          	jal	80000000 <_ZN9Serial_IO4initEmbN4UART12parityMode_eENS0_10stopBits_eENS0_12dataLenght_eE>
80001eb0:	01010513          	addi	a0,sp,16
80001eb4:	00000593          	li	a1,0
80001eb8:	fb5fe0ef          	jal	80000e6c <_ZN5TimerC1Em>
80001ebc:	00100693          	li	a3,1
80001ec0:	fff00593          	li	a1,-1
80001ec4:	fff00613          	li	a2,-1
80001ec8:	01010513          	addi	a0,sp,16
80001ecc:	87cff0ef          	jal	80000f48 <_ZN5Timer4initEyNS_11timerMode_eE>
80001ed0:	80002537          	lui	a0,0x80002
80001ed4:	7d850513          	addi	a0,a0,2008 # 800027d8 <memset+0x1b0>
80001ed8:	b58fe0ef          	jal	80000230 <_ZN9Serial_IO5writeEPKc>
80001edc:	02010513          	addi	a0,sp,32
80001ee0:	00012423          	sw	zero,8(sp)
80001ee4:	00011623          	sh	zero,12(sp)
80001ee8:	000100a3          	sb	zero,1(sp)
80001eec:	00010023          	sb	zero,0(sp)
80001ef0:	b7cfe0ef          	jal	8000026c <_ZN2SDC1Ev>
80001ef4:	00010793          	mv	a5,sp
80001ef8:	00810693          	addi	a3,sp,8
80001efc:	00110713          	addi	a4,sp,1
80001f00:	02010513          	addi	a0,sp,32
80001f04:	00000613          	li	a2,0
80001f08:	00100593          	li	a1,1
80001f0c:	efcfe0ef          	jal	80000608 <_ZN2SD4initENS_12clockSpeed_eENS_10busWidth_eEPhRbS3_>
80001f10:	00114783          	lbu	a5,1(sp)
80001f14:	40079263          	bnez	a5,80002318 <sd_test+0x48c>
80001f18:	00014783          	lbu	a5,0(sp)
80001f1c:	2a812c23          	sw	s0,696(sp)
80001f20:	2a912a23          	sw	s1,692(sp)
80001f24:	2b212823          	sw	s2,688(sp)
80001f28:	2b312623          	sw	s3,684(sp)
80001f2c:	2b412423          	sw	s4,680(sp)
80001f30:	2b512223          	sw	s5,676(sp)
80001f34:	2b612023          	sw	s6,672(sp)
80001f38:	29712e23          	sw	s7,668(sp)
80001f3c:	29812c23          	sw	s8,664(sp)
80001f40:	29912a23          	sw	s9,660(sp)
80001f44:	29a12823          	sw	s10,656(sp)
80001f48:	29b12623          	sw	s11,652(sp)
80001f4c:	30079863          	bnez	a5,8000225c <sd_test+0x3d0>
80001f50:	80003537          	lui	a0,0x80003
80001f54:	85450513          	addi	a0,a0,-1964 # 80002854 <memset+0x22c>
80001f58:	ad8fe0ef          	jal	80000230 <_ZN9Serial_IO5writeEPKc>
80001f5c:	80003537          	lui	a0,0x80003
80001f60:	88850513          	addi	a0,a0,-1912 # 80002888 <memset+0x260>
80001f64:	accfe0ef          	jal	80000230 <_ZN9Serial_IO5writeEPKc>
80001f68:	00810413          	addi	s0,sp,8
80001f6c:	00e10993          	addi	s3,sp,14
80001f70:	80003937          	lui	s2,0x80003
80001f74:	00900493          	li	s1,9
80001f78:	00044783          	lbu	a5,0(s0)
80001f7c:	00200593          	li	a1,2
80001f80:	00410513          	addi	a0,sp,4
80001f84:	00f7f713          	andi	a4,a5,15
80001f88:	03070693          	addi	a3,a4,48
80001f8c:	0047d793          	srli	a5,a5,0x4
80001f90:	00e4f463          	bgeu	s1,a4,80001f98 <sd_test+0x10c>
80001f94:	03770693          	addi	a3,a4,55
80001f98:	03078713          	addi	a4,a5,48
80001f9c:	00f4f463          	bgeu	s1,a5,80001fa4 <sd_test+0x118>
80001fa0:	03778713          	addi	a4,a5,55
80001fa4:	00e10223          	sb	a4,4(sp)
80001fa8:	00d102a3          	sb	a3,5(sp)
80001fac:	960fe0ef          	jal	8000010c <_ZN9Serial_IO5writeEPKcm>
80001fb0:	00000513          	li	a0,0
80001fb4:	934fe0ef          	jal	800000e8 <_ZN9Serial_IO5writeEc>
80001fb8:	8ac90513          	addi	a0,s2,-1876 # 800028ac <memset+0x284>
80001fbc:	00140413          	addi	s0,s0,1
80001fc0:	a70fe0ef          	jal	80000230 <_ZN9Serial_IO5writeEPKc>
80001fc4:	fa899ae3          	bne	s3,s0,80001f78 <sd_test+0xec>
80001fc8:	80002db7          	lui	s11,0x80002
80001fcc:	758d8513          	addi	a0,s11,1880 # 80002758 <memset+0x130>
80001fd0:	a60fe0ef          	jal	80000230 <_ZN9Serial_IO5writeEPKc>
80001fd4:	80003537          	lui	a0,0x80003
80001fd8:	8b050513          	addi	a0,a0,-1872 # 800028b0 <memset+0x288>
80001fdc:	a54fe0ef          	jal	80000230 <_ZN9Serial_IO5writeEPKc>
80001fe0:	02815583          	lhu	a1,40(sp)
80001fe4:	80003537          	lui	a0,0x80003
80001fe8:	8e050513          	addi	a0,a0,-1824 # 800028e0 <memset+0x2b8>
80001fec:	a01ff0ef          	jal	800019ec <_ZN9Serial_IO6printfEPKcz>
80001ff0:	04812703          	lw	a4,72(sp)
80001ff4:	04c12783          	lw	a5,76(sp)
80001ff8:	05012603          	lw	a2,80(sp)
80001ffc:	05412683          	lw	a3,84(sp)
80002000:	80003537          	lui	a0,0x80003
80002004:	8f050513          	addi	a0,a0,-1808 # 800028f0 <memset+0x2c8>
80002008:	9e5ff0ef          	jal	800019ec <_ZN9Serial_IO6printfEPKcz>
8000200c:	03812703          	lw	a4,56(sp)
80002010:	03c12783          	lw	a5,60(sp)
80002014:	04012603          	lw	a2,64(sp)
80002018:	04412683          	lw	a3,68(sp)
8000201c:	80003537          	lui	a0,0x80003
80002020:	90050513          	addi	a0,a0,-1792 # 80002900 <memset+0x2d8>
80002024:	9c9ff0ef          	jal	800019ec <_ZN9Serial_IO6printfEPKcz>
80002028:	03012603          	lw	a2,48(sp)
8000202c:	03412683          	lw	a3,52(sp)
80002030:	80003537          	lui	a0,0x80003
80002034:	91050513          	addi	a0,a0,-1776 # 80002910 <memset+0x2e8>
80002038:	9b5ff0ef          	jal	800019ec <_ZN9Serial_IO6printfEPKcz>
8000203c:	02c12583          	lw	a1,44(sp)
80002040:	80003537          	lui	a0,0x80003
80002044:	92050513          	addi	a0,a0,-1760 # 80002920 <memset+0x2f8>
80002048:	9a5ff0ef          	jal	800019ec <_ZN9Serial_IO6printfEPKcz>
8000204c:	800037b7          	lui	a5,0x80003
80002050:	93078513          	addi	a0,a5,-1744 # 80002930 <memset+0x308>
80002054:	9dcfe0ef          	jal	80000230 <_ZN9Serial_IO5writeEPKc>
80002058:	80003537          	lui	a0,0x80003
8000205c:	93450513          	addi	a0,a0,-1740 # 80002934 <memset+0x30c>
80002060:	9d0fe0ef          	jal	80000230 <_ZN9Serial_IO5writeEPKc>
80002064:	00000593          	li	a1,0
80002068:	02010513          	addi	a0,sp,32
8000206c:	a55fe0ef          	jal	80000ac0 <_ZN2SD11setBusWidthENS_10busWidth_eE>
80002070:	02010513          	addi	a0,sp,32
80002074:	00000593          	li	a1,0
80002078:	b28fe0ef          	jal	800003a0 <_ZN2SD13setClockSpeedENS_12clockSpeed_eE>
8000207c:	00000d13          	li	s10,0
80002080:	800034b7          	lui	s1,0x80003
80002084:	80003cb7          	lui	s9,0x80003
80002088:	80003c37          	lui	s8,0x80003
8000208c:	80003bb7          	lui	s7,0x80003
80002090:	80003b37          	lui	s6,0x80003
80002094:	80003ab7          	lui	s5,0x80003
80002098:	80003a37          	lui	s4,0x80003
8000209c:	00400913          	li	s2,4
800020a0:	00000413          	li	s0,0
800020a4:	00040593          	mv	a1,s0
800020a8:	9fc48513          	addi	a0,s1,-1540 # 800029fc <memset+0x3d4>
800020ac:	941ff0ef          	jal	800019ec <_ZN9Serial_IO6printfEPKcz>
800020b0:	a18c8513          	addi	a0,s9,-1512 # 80002a18 <memset+0x3f0>
800020b4:	97cfe0ef          	jal	80000230 <_ZN9Serial_IO5writeEPKc>
800020b8:	01010613          	addi	a2,sp,16
800020bc:	00040593          	mv	a1,s0
800020c0:	02010513          	addi	a0,sp,32
800020c4:	96dff0ef          	jal	80001a30 <_Z8testReadR2SDmR5Timer>
800020c8:	a3cc0513          	addi	a0,s8,-1476 # 80002a3c <memset+0x414>
800020cc:	964fe0ef          	jal	80000230 <_ZN9Serial_IO5writeEPKc>
800020d0:	08010513          	addi	a0,sp,128
800020d4:	20000613          	li	a2,512
800020d8:	00000593          	li	a1,0
800020dc:	00010123          	sb	zero,2(sp)
800020e0:	000101a3          	sb	zero,3(sp)
800020e4:	544000ef          	jal	80002628 <memset>
800020e8:	08010793          	addi	a5,sp,128
800020ec:	00040713          	mv	a4,s0
800020f0:	00e7a023          	sw	a4,0(a5)
800020f4:	28010693          	addi	a3,sp,640
800020f8:	00478793          	addi	a5,a5,4
800020fc:	00170713          	addi	a4,a4,1
80002100:	fed798e3          	bne	a5,a3,800020f0 <sd_test+0x264>
80002104:	01010513          	addi	a0,sp,16
80002108:	eb9fe0ef          	jal	80000fc0 <_ZN5Timer7restartEv>
8000210c:	00210793          	addi	a5,sp,2
80002110:	00310713          	addi	a4,sp,3
80002114:	08010613          	addi	a2,sp,128
80002118:	00040593          	mv	a1,s0
8000211c:	00000693          	li	a3,0
80002120:	02010513          	addi	a0,sp,32
80002124:	bb4fe0ef          	jal	800004d8 <_ZN2SD10writeBlockEmPmPhRhRb>
80002128:	01010513          	addi	a0,sp,16
8000212c:	e81fe0ef          	jal	80000fac <_ZN5Timer4stopEv>
80002130:	00214783          	lbu	a5,2(sp)
80002134:	12079c63          	bnez	a5,8000226c <sd_test+0x3e0>
80002138:	01010513          	addi	a0,sp,16
8000213c:	e61fe0ef          	jal	80000f9c <_ZNK5Timer7getTimeEv>
80002140:	01e55793          	srli	a5,a0,0x1e
80002144:	00259713          	slli	a4,a1,0x2
80002148:	00e7e733          	or	a4,a5,a4
8000214c:	00251793          	slli	a5,a0,0x2
80002150:	20a54533          	sh2add	a0,a0,a0
80002154:	00b70733          	add	a4,a4,a1
80002158:	00f537b3          	sltu	a5,a0,a5
8000215c:	00e787b3          	add	a5,a5,a4
80002160:	00179793          	slli	a5,a5,0x1
80002164:	01f55693          	srli	a3,a0,0x1f
80002168:	00f6e6b3          	or	a3,a3,a5
8000216c:	800037b7          	lui	a5,0x80003
80002170:	00151613          	slli	a2,a0,0x1
80002174:	a7078513          	addi	a0,a5,-1424 # 80002a70 <memset+0x448>
80002178:	875ff0ef          	jal	800019ec <_ZN9Serial_IO6printfEPKcz>
8000217c:	758d8513          	addi	a0,s11,1880
80002180:	8b0fe0ef          	jal	80000230 <_ZN9Serial_IO5writeEPKc>
80002184:	a88b8513          	addi	a0,s7,-1400 # 80002a88 <memset+0x460>
80002188:	8a8fe0ef          	jal	80000230 <_ZN9Serial_IO5writeEPKc>
8000218c:	00040593          	mv	a1,s0
80002190:	01010613          	addi	a2,sp,16
80002194:	02010513          	addi	a0,sp,32
80002198:	00140413          	addi	s0,s0,1
8000219c:	895ff0ef          	jal	80001a30 <_Z8testReadR2SDmR5Timer>
800021a0:	f12412e3          	bne	s0,s2,800020a4 <sd_test+0x218>
800021a4:	758d8513          	addi	a0,s11,1880
800021a8:	888fe0ef          	jal	80000230 <_ZN9Serial_IO5writeEPKc>
800021ac:	04400993          	li	s3,68
800021b0:	00040593          	mv	a1,s0
800021b4:	9fc48513          	addi	a0,s1,-1540
800021b8:	835ff0ef          	jal	800019ec <_ZN9Serial_IO6printfEPKcz>
800021bc:	aa8b0513          	addi	a0,s6,-1368 # 80002aa8 <memset+0x480>
800021c0:	870fe0ef          	jal	80000230 <_ZN9Serial_IO5writeEPKc>
800021c4:	00040593          	mv	a1,s0
800021c8:	01010613          	addi	a2,sp,16
800021cc:	02010513          	addi	a0,sp,32
800021d0:	9f5ff0ef          	jal	80001bc4 <_Z13testBurstReadR2SDmR5Timer>
800021d4:	ad4a8513          	addi	a0,s5,-1324 # 80002ad4 <memset+0x4ac>
800021d8:	858fe0ef          	jal	80000230 <_ZN9Serial_IO5writeEPKc>
800021dc:	00040593          	mv	a1,s0
800021e0:	01010613          	addi	a2,sp,16
800021e4:	02010513          	addi	a0,sp,32
800021e8:	b81ff0ef          	jal	80001d68 <_Z14testBurstWriteR2SDmR5Timer>
800021ec:	afca0513          	addi	a0,s4,-1284 # 80002afc <memset+0x4d4>
800021f0:	840fe0ef          	jal	80000230 <_ZN9Serial_IO5writeEPKc>
800021f4:	00040593          	mv	a1,s0
800021f8:	01010613          	addi	a2,sp,16
800021fc:	02010513          	addi	a0,sp,32
80002200:	01040413          	addi	s0,s0,16
80002204:	9c1ff0ef          	jal	80001bc4 <_Z13testBurstReadR2SDmR5Timer>
80002208:	fb3414e3          	bne	s0,s3,800021b0 <sd_test+0x324>
8000220c:	800037b7          	lui	a5,0x80003
80002210:	93078513          	addi	a0,a5,-1744 # 80002930 <memset+0x308>
80002214:	001d0d13          	addi	s10,s10,1
80002218:	818fe0ef          	jal	80000230 <_ZN9Serial_IO5writeEPKc>
8000221c:	0b2d0863          	beq	s10,s2,800022cc <sd_test+0x440>
80002220:	00200793          	li	a5,2
80002224:	08fd0063          	beq	s10,a5,800022a4 <sd_test+0x418>
80002228:	00300793          	li	a5,3
8000222c:	04fd0863          	beq	s10,a5,8000227c <sd_test+0x3f0>
80002230:	80003537          	lui	a0,0x80003
80002234:	96850513          	addi	a0,a0,-1688 # 80002968 <memset+0x340>
80002238:	ff9fd0ef          	jal	80000230 <_ZN9Serial_IO5writeEPKc>
8000223c:	00000593          	li	a1,0
80002240:	02010513          	addi	a0,sp,32
80002244:	87dfe0ef          	jal	80000ac0 <_ZN2SD11setBusWidthENS_10busWidth_eE>
80002248:	02010513          	addi	a0,sp,32
8000224c:	00100593          	li	a1,1
80002250:	950fe0ef          	jal	800003a0 <_ZN2SD13setClockSpeedENS_12clockSpeed_eE>
80002254:	00100d13          	li	s10,1
80002258:	e49ff06f          	j	800020a0 <sd_test+0x214>
8000225c:	80003537          	lui	a0,0x80003
80002260:	82050513          	addi	a0,a0,-2016 # 80002820 <memset+0x1f8>
80002264:	fcdfd0ef          	jal	80000230 <_ZN9Serial_IO5writeEPKc>
80002268:	cf5ff06f          	j	80001f5c <sd_test+0xd0>
8000226c:	800037b7          	lui	a5,0x80003
80002270:	a5c78513          	addi	a0,a5,-1444 # 80002a5c <memset+0x434>
80002274:	fbdfd0ef          	jal	80000230 <_ZN9Serial_IO5writeEPKc>
80002278:	f0dff06f          	j	80002184 <sd_test+0x2f8>
8000227c:	80003537          	lui	a0,0x80003
80002280:	9cc50513          	addi	a0,a0,-1588 # 800029cc <memset+0x3a4>
80002284:	fadfd0ef          	jal	80000230 <_ZN9Serial_IO5writeEPKc>
80002288:	02010513          	addi	a0,sp,32
8000228c:	00100593          	li	a1,1
80002290:	831fe0ef          	jal	80000ac0 <_ZN2SD11setBusWidthENS_10busWidth_eE>
80002294:	02010513          	addi	a0,sp,32
80002298:	00100593          	li	a1,1
8000229c:	904fe0ef          	jal	800003a0 <_ZN2SD13setClockSpeedENS_12clockSpeed_eE>
800022a0:	e01ff06f          	j	800020a0 <sd_test+0x214>
800022a4:	80003537          	lui	a0,0x80003
800022a8:	99c50513          	addi	a0,a0,-1636 # 8000299c <memset+0x374>
800022ac:	f85fd0ef          	jal	80000230 <_ZN9Serial_IO5writeEPKc>
800022b0:	02010513          	addi	a0,sp,32
800022b4:	00100593          	li	a1,1
800022b8:	809fe0ef          	jal	80000ac0 <_ZN2SD11setBusWidthENS_10busWidth_eE>
800022bc:	02010513          	addi	a0,sp,32
800022c0:	00000593          	li	a1,0
800022c4:	8dcfe0ef          	jal	800003a0 <_ZN2SD13setClockSpeedENS_12clockSpeed_eE>
800022c8:	dd9ff06f          	j	800020a0 <sd_test+0x214>
800022cc:	02010513          	addi	a0,sp,32
800022d0:	88cfe0ef          	jal	8000035c <_ZN2SDD1Ev>
800022d4:	01010513          	addi	a0,sp,16
800022d8:	c15fe0ef          	jal	80000eec <_ZN5TimerD1Ev>
800022dc:	2bc12083          	lw	ra,700(sp)
800022e0:	2b812403          	lw	s0,696(sp)
800022e4:	2b412483          	lw	s1,692(sp)
800022e8:	2b012903          	lw	s2,688(sp)
800022ec:	2ac12983          	lw	s3,684(sp)
800022f0:	2a812a03          	lw	s4,680(sp)
800022f4:	2a412a83          	lw	s5,676(sp)
800022f8:	2a012b03          	lw	s6,672(sp)
800022fc:	29c12b83          	lw	s7,668(sp)
80002300:	29812c03          	lw	s8,664(sp)
80002304:	29412c83          	lw	s9,660(sp)
80002308:	29012d03          	lw	s10,656(sp)
8000230c:	28c12d83          	lw	s11,652(sp)
80002310:	2c010113          	addi	sp,sp,704
80002314:	00008067          	ret
80002318:	80003537          	lui	a0,0x80003
8000231c:	80450513          	addi	a0,a0,-2044 # 80002804 <memset+0x1dc>
80002320:	f11fd0ef          	jal	80000230 <_ZN9Serial_IO5writeEPKc>
80002324:	02010513          	addi	a0,sp,32
80002328:	834fe0ef          	jal	8000035c <_ZN2SDD1Ev>
8000232c:	01010513          	addi	a0,sp,16
80002330:	bbdfe0ef          	jal	80000eec <_ZN5TimerD1Ev>
80002334:	2bc12083          	lw	ra,700(sp)
80002338:	2c010113          	addi	sp,sp,704
8000233c:	00008067          	ret

80002340 <__truncdfsf2>:
80002340:	00202673          	frrm	a2
80002344:	0145d313          	srli	t1,a1,0x14
80002348:	7ff37313          	andi	t1,t1,2047
8000234c:	00c59793          	slli	a5,a1,0xc
80002350:	00130813          	addi	a6,t1,1
80002354:	0097d793          	srli	a5,a5,0x9
80002358:	01d55713          	srli	a4,a0,0x1d
8000235c:	7fe87813          	andi	a6,a6,2046
80002360:	01f5d593          	srli	a1,a1,0x1f
80002364:	00f76733          	or	a4,a4,a5
80002368:	00351693          	slli	a3,a0,0x3
8000236c:	18080263          	beqz	a6,800024f0 <__truncdfsf2+0x1b0>
80002370:	c8030813          	addi	a6,t1,-896
80002374:	0fe00893          	li	a7,254
80002378:	0b08d263          	bge	a7,a6,8000241c <__truncdfsf2+0xdc>
8000237c:	28060e63          	beqz	a2,80002618 <__truncdfsf2+0x2d8>
80002380:	00300793          	li	a5,3
80002384:	06f61a63          	bne	a2,a5,800023f8 <__truncdfsf2+0xb8>
80002388:	28058863          	beqz	a1,80002618 <__truncdfsf2+0x2d8>
8000238c:	fff00793          	li	a5,-1
80002390:	00000713          	li	a4,0
80002394:	00088313          	mv	t1,a7
80002398:	00500813          	li	a6,5
8000239c:	00300693          	li	a3,3
800023a0:	1ed60c63          	beq	a2,a3,80002598 <__truncdfsf2+0x258>
800023a4:	00061a63          	bnez	a2,800023b8 <__truncdfsf2+0x78>
800023a8:	00f7f693          	andi	a3,a5,15
800023ac:	00400513          	li	a0,4
800023b0:	00a68463          	beq	a3,a0,800023b8 <__truncdfsf2+0x78>
800023b4:	00a787b3          	add	a5,a5,a0
800023b8:	00070863          	beqz	a4,800023c8 <__truncdfsf2+0x88>
800023bc:	00187713          	andi	a4,a6,1
800023c0:	00171713          	slli	a4,a4,0x1
800023c4:	00e86833          	or	a6,a6,a4
800023c8:	00579713          	slli	a4,a5,0x5
800023cc:	1e074463          	bltz	a4,800025b4 <__truncdfsf2+0x274>
800023d0:	0037d793          	srli	a5,a5,0x3
800023d4:	00979793          	slli	a5,a5,0x9
800023d8:	0097d793          	srli	a5,a5,0x9
800023dc:	01731513          	slli	a0,t1,0x17
800023e0:	00f56533          	or	a0,a0,a5
800023e4:	01f59793          	slli	a5,a1,0x1f
800023e8:	00f56533          	or	a0,a0,a5
800023ec:	00080463          	beqz	a6,800023f4 <__truncdfsf2+0xb4>
800023f0:	00182073          	csrs	fflags,a6
800023f4:	00008067          	ret
800023f8:	00200793          	li	a5,2
800023fc:	1af61463          	bne	a2,a5,800025a4 <__truncdfsf2+0x264>
80002400:	20059c63          	bnez	a1,80002618 <__truncdfsf2+0x2d8>
80002404:	00000713          	li	a4,0
80002408:	fff00793          	li	a5,-1
8000240c:	00088313          	mv	t1,a7
80002410:	00500813          	li	a6,5
80002414:	20f5e7b3          	sh3add	a5,a1,a5
80002418:	fa1ff06f          	j	800023b8 <__truncdfsf2+0x78>
8000241c:	0b004663          	bgtz	a6,800024c8 <__truncdfsf2+0x188>
80002420:	fe900513          	li	a0,-23
80002424:	00100793          	li	a5,1
80002428:	02a84a63          	blt	a6,a0,8000245c <__truncdfsf2+0x11c>
8000242c:	01e00893          	li	a7,30
80002430:	410888b3          	sub	a7,a7,a6
80002434:	01f00793          	li	a5,31
80002438:	29771713          	bseti	a4,a4,0x17
8000243c:	0517ce63          	blt	a5,a7,80002498 <__truncdfsf2+0x158>
80002440:	c8230513          	addi	a0,t1,-894
80002444:	0116d8b3          	srl	a7,a3,a7
80002448:	00a696b3          	sll	a3,a3,a0
8000244c:	00d036b3          	snez	a3,a3
80002450:	00a71733          	sll	a4,a4,a0
80002454:	00e6e6b3          	or	a3,a3,a4
80002458:	00d8e7b3          	or	a5,a7,a3
8000245c:	00179713          	slli	a4,a5,0x1
80002460:	00777693          	andi	a3,a4,7
80002464:	10068c63          	beqz	a3,8000257c <__truncdfsf2+0x23c>
80002468:	00200693          	li	a3,2
8000246c:	0ed60e63          	beq	a2,a3,80002568 <__truncdfsf2+0x228>
80002470:	00300693          	li	a3,3
80002474:	0cd60263          	beq	a2,a3,80002538 <__truncdfsf2+0x1f8>
80002478:	0e061a63          	bnez	a2,8000256c <__truncdfsf2+0x22c>
8000247c:	00f77693          	andi	a3,a4,15
80002480:	00400513          	li	a0,4
80002484:	00a70733          	add	a4,a4,a0
80002488:	0aa69c63          	bne	a3,a0,80002540 <__truncdfsf2+0x200>
8000248c:	00000313          	li	t1,0
80002490:	00100713          	li	a4,1
80002494:	0b80006f          	j	8000254c <__truncdfsf2+0x20c>
80002498:	ffe00793          	li	a5,-2
8000249c:	410787b3          	sub	a5,a5,a6
800024a0:	02000513          	li	a0,32
800024a4:	00f757b3          	srl	a5,a4,a5
800024a8:	00000813          	li	a6,0
800024ac:	00a88663          	beq	a7,a0,800024b8 <__truncdfsf2+0x178>
800024b0:	ca230813          	addi	a6,t1,-862
800024b4:	01071833          	sll	a6,a4,a6
800024b8:	00d86833          	or	a6,a6,a3
800024bc:	01003833          	snez	a6,a6
800024c0:	0107e7b3          	or	a5,a5,a6
800024c4:	f99ff06f          	j	8000245c <__truncdfsf2+0x11c>
800024c8:	00651513          	slli	a0,a0,0x6
800024cc:	00371713          	slli	a4,a4,0x3
800024d0:	00a03533          	snez	a0,a0
800024d4:	00e56533          	or	a0,a0,a4
800024d8:	01d6d693          	srli	a3,a3,0x1d
800024dc:	00d567b3          	or	a5,a0,a3
800024e0:	00080313          	mv	t1,a6
800024e4:	00000713          	li	a4,0
800024e8:	00000813          	li	a6,0
800024ec:	0640006f          	j	80002550 <__truncdfsf2+0x210>
800024f0:	00d767b3          	or	a5,a4,a3
800024f4:	00031863          	bnez	t1,80002504 <__truncdfsf2+0x1c4>
800024f8:	ec078ee3          	beqz	a5,800023d4 <__truncdfsf2+0x94>
800024fc:	00100793          	li	a5,1
80002500:	f5dff06f          	j	8000245c <__truncdfsf2+0x11c>
80002504:	10078e63          	beqz	a5,80002620 <__truncdfsf2+0x2e0>
80002508:	7ff00793          	li	a5,2047
8000250c:	00f31863          	bne	t1,a5,8000251c <__truncdfsf2+0x1dc>
80002510:	01675813          	srli	a6,a4,0x16
80002514:	00184813          	xori	a6,a6,1
80002518:	00481813          	slli	a6,a6,0x4
8000251c:	00076793          	ori	a5,a4,0
80002520:	29679793          	bseti	a5,a5,0x16
80002524:	0e078e63          	beqz	a5,80002620 <__truncdfsf2+0x2e0>
80002528:	00000593          	li	a1,0
8000252c:	0ff00313          	li	t1,255
80002530:	004007b7          	lui	a5,0x400
80002534:	ea1ff06f          	j	800023d4 <__truncdfsf2+0x94>
80002538:	04059863          	bnez	a1,80002588 <__truncdfsf2+0x248>
8000253c:	00870713          	addi	a4,a4,8
80002540:	49b75713          	bexti	a4,a4,0x1b
80002544:	00174713          	xori	a4,a4,1
80002548:	00000313          	li	t1,0
8000254c:	00100813          	li	a6,1
80002550:	0077f693          	andi	a3,a5,7
80002554:	e60682e3          	beqz	a3,800023b8 <__truncdfsf2+0x78>
80002558:	00200693          	li	a3,2
8000255c:	00100813          	li	a6,1
80002560:	e2d61ee3          	bne	a2,a3,8000239c <__truncdfsf2+0x5c>
80002564:	eb1ff06f          	j	80002414 <__truncdfsf2+0xd4>
80002568:	fc059ae3          	bnez	a1,8000253c <__truncdfsf2+0x1fc>
8000256c:	00100713          	li	a4,1
80002570:	00000313          	li	t1,0
80002574:	00070813          	mv	a6,a4
80002578:	fd9ff06f          	j	80002550 <__truncdfsf2+0x210>
8000257c:	00000313          	li	t1,0
80002580:	00100713          	li	a4,1
80002584:	f65ff06f          	j	800024e8 <__truncdfsf2+0x1a8>
80002588:	00058713          	mv	a4,a1
8000258c:	00058813          	mv	a6,a1
80002590:	00000313          	li	t1,0
80002594:	fbdff06f          	j	80002550 <__truncdfsf2+0x210>
80002598:	e20590e3          	bnez	a1,800023b8 <__truncdfsf2+0x78>
8000259c:	00878793          	addi	a5,a5,8 # 400008 <copy_loop+0x3fffe4>
800025a0:	e19ff06f          	j	800023b8 <__truncdfsf2+0x78>
800025a4:	00088313          	mv	t1,a7
800025a8:	fff00793          	li	a5,-1
800025ac:	00500813          	li	a6,5
800025b0:	e19ff06f          	j	800023c8 <__truncdfsf2+0x88>
800025b4:	00130313          	addi	t1,t1,1
800025b8:	0ff00713          	li	a4,255
800025bc:	00e30c63          	beq	t1,a4,800025d4 <__truncdfsf2+0x294>
800025c0:	1f800737          	lui	a4,0x1f800
800025c4:	0037d793          	srli	a5,a5,0x3
800025c8:	fff70713          	addi	a4,a4,-1 # 1f7fffff <copy_loop+0x1f7fffdb>
800025cc:	00e7f7b3          	and	a5,a5,a4
800025d0:	e05ff06f          	j	800023d4 <__truncdfsf2+0x94>
800025d4:	00000793          	li	a5,0
800025d8:	02060463          	beqz	a2,80002600 <__truncdfsf2+0x2c0>
800025dc:	00300713          	li	a4,3
800025e0:	00e61a63          	bne	a2,a4,800025f4 <__truncdfsf2+0x2b4>
800025e4:	00058e63          	beqz	a1,80002600 <__truncdfsf2+0x2c0>
800025e8:	fff00793          	li	a5,-1
800025ec:	0fe00313          	li	t1,254
800025f0:	0100006f          	j	80002600 <__truncdfsf2+0x2c0>
800025f4:	00200713          	li	a4,2
800025f8:	fee618e3          	bne	a2,a4,800025e8 <__truncdfsf2+0x2a8>
800025fc:	fe0586e3          	beqz	a1,800025e8 <__truncdfsf2+0x2a8>
80002600:	0ff00713          	li	a4,255
80002604:	00586813          	ori	a6,a6,5
80002608:	0037d793          	srli	a5,a5,0x3
8000260c:	f0e30ce3          	beq	t1,a4,80002524 <__truncdfsf2+0x1e4>
80002610:	0fe00313          	li	t1,254
80002614:	dc1ff06f          	j	800023d4 <__truncdfsf2+0x94>
80002618:	00000793          	li	a5,0
8000261c:	00500813          	li	a6,5
80002620:	0ff00313          	li	t1,255
80002624:	db1ff06f          	j	800023d4 <__truncdfsf2+0x94>

80002628 <memset>:
80002628:	00f00313          	li	t1,15
8000262c:	00050713          	mv	a4,a0
80002630:	02c37e63          	bgeu	t1,a2,8000266c <memset+0x44>
80002634:	00f77793          	andi	a5,a4,15
80002638:	0a079063          	bnez	a5,800026d8 <memset+0xb0>
8000263c:	08059263          	bnez	a1,800026c0 <memset+0x98>
80002640:	ff067693          	andi	a3,a2,-16
80002644:	00f67613          	andi	a2,a2,15
80002648:	00e686b3          	add	a3,a3,a4
8000264c:	00b72023          	sw	a1,0(a4)
80002650:	00b72223          	sw	a1,4(a4)
80002654:	00b72423          	sw	a1,8(a4)
80002658:	00b72623          	sw	a1,12(a4)
8000265c:	01070713          	addi	a4,a4,16
80002660:	fed766e3          	bltu	a4,a3,8000264c <memset+0x24>
80002664:	00061463          	bnez	a2,8000266c <memset+0x44>
80002668:	00008067          	ret
8000266c:	40c306b3          	sub	a3,t1,a2
80002670:	00269693          	slli	a3,a3,0x2
80002674:	00000297          	auipc	t0,0x0
80002678:	005686b3          	add	a3,a3,t0
8000267c:	00c68067          	jr	12(a3)
80002680:	00b70723          	sb	a1,14(a4)
80002684:	00b706a3          	sb	a1,13(a4)
80002688:	00b70623          	sb	a1,12(a4)
8000268c:	00b705a3          	sb	a1,11(a4)
80002690:	00b70523          	sb	a1,10(a4)
80002694:	00b704a3          	sb	a1,9(a4)
80002698:	00b70423          	sb	a1,8(a4)
8000269c:	00b703a3          	sb	a1,7(a4)
800026a0:	00b70323          	sb	a1,6(a4)
800026a4:	00b702a3          	sb	a1,5(a4)
800026a8:	00b70223          	sb	a1,4(a4)
800026ac:	00b701a3          	sb	a1,3(a4)
800026b0:	00b70123          	sb	a1,2(a4)
800026b4:	00b700a3          	sb	a1,1(a4)
800026b8:	00b70023          	sb	a1,0(a4)
800026bc:	00008067          	ret
800026c0:	0ff5f593          	zext.b	a1,a1
800026c4:	00859693          	slli	a3,a1,0x8
800026c8:	00d5e5b3          	or	a1,a1,a3
800026cc:	01059693          	slli	a3,a1,0x10
800026d0:	00d5e5b3          	or	a1,a1,a3
800026d4:	f6dff06f          	j	80002640 <memset+0x18>
800026d8:	00279693          	slli	a3,a5,0x2
800026dc:	00000297          	auipc	t0,0x0
800026e0:	005686b3          	add	a3,a3,t0
800026e4:	00008293          	mv	t0,ra
800026e8:	fa0680e7          	jalr	-96(a3)
800026ec:	00028093          	mv	ra,t0
800026f0:	ff078793          	addi	a5,a5,-16
800026f4:	40f70733          	sub	a4,a4,a5
800026f8:	00f60633          	add	a2,a2,a5
800026fc:	f6c378e3          	bgeu	t1,a2,8000266c <memset+0x44>
80002700:	f3dff06f          	j	8000263c <memset+0x14>
