
output.elf:     file format elf32-littleriscv


Disassembly of section .boot:

00000000 <boot_program>:
   0:	88000137          	.word	0x88000137
   4:	00800293          	.word	0x00800293
   8:	3002a073          	.word	0x3002a073
   c:	fff00293          	.word	0xfff00293
  10:	3042a073          	.word	0x3042a073
  14:	04800293          	.word	0x04800293
  18:	80000337          	.word	0x80000337
  1c:	000013b7          	.word	0x000013b7
  20:	b7838393          	.word	0xb7838393

00000024 <copy_loop>:
  24:	0002a503          	.word	0x0002a503
  28:	00a32023          	.word	0x00a32023
  2c:	00428293          	.word	0x00428293
  30:	00430313          	.word	0x00430313
  34:	fe72c8e3          	.word	0xfe72c8e3
  38:	80000317          	.word	0x80000317
  3c:	0a030313          	.word	0x0a030313
  40:	000300e7          	.word	0x000300e7
  44:	c0001073          	.word	0xc0001073

Disassembly of section .text:

80000000 <_ZN9Serial_IO4initEmbN4UART12parityMode_eENS0_10stopBits_eENS0_12dataLenght_eE>:
80000000:	800017b7          	lui	a5,0x80001
80000004:	00002837          	lui	a6,0x2
80000008:	9307aa23          	sw	a6,-1740(a5) # 80000934 <_ZN9Serial_IO6statusE>
8000000c:	9347a803          	lw	a6,-1740(a5)
80000010:	9347a883          	lw	a7,-1740(a5)
80000014:	0015f593          	andi	a1,a1,1
80000018:	00b59813          	slli	a6,a1,0xb
8000001c:	0008a583          	lw	a1,0(a7)
80000020:	48b59593          	bclri	a1,a1,0xb
80000024:	0105e5b3          	or	a1,a1,a6
80000028:	00b8a023          	sw	a1,0(a7)
8000002c:	9347a803          	lw	a6,-1740(a5)
80000030:	00377713          	andi	a4,a4,3
80000034:	00e71593          	slli	a1,a4,0xe
80000038:	00082703          	lw	a4,0(a6) # 2000 <copy_loop+0x1fdc>
8000003c:	48e71713          	bclri	a4,a4,0xe
80000040:	48f71713          	bclri	a4,a4,0xf
80000044:	00b76733          	or	a4,a4,a1
80000048:	00e82023          	sw	a4,0(a6)
8000004c:	9347a583          	lw	a1,-1740(a5)
80000050:	0016f693          	andi	a3,a3,1
80000054:	00d69693          	slli	a3,a3,0xd
80000058:	0005a703          	lw	a4,0(a1)
8000005c:	48d71713          	bclri	a4,a4,0xd
80000060:	00d76733          	or	a4,a4,a3
80000064:	00e5a023          	sw	a4,0(a1)
80000068:	9347a683          	lw	a3,-1740(a5)
8000006c:	00167613          	andi	a2,a2,1
80000070:	00c61713          	slli	a4,a2,0xc
80000074:	0006a603          	lw	a2,0(a3)
80000078:	48c61613          	bclri	a2,a2,0xc
8000007c:	00e66633          	or	a2,a2,a4
80000080:	00c6a023          	sw	a2,0(a3)
80000084:	00451513          	slli	a0,a0,0x4
80000088:	05f5e737          	lui	a4,0x5f5e
8000008c:	10070713          	addi	a4,a4,256 # 5f5e100 <copy_loop+0x5f5e0dc>
80000090:	02a75733          	divu	a4,a4,a0
80000094:	fff70713          	addi	a4,a4,-1
80000098:	9347a603          	lw	a2,-1740(a5)
8000009c:	01171713          	slli	a4,a4,0x11
800000a0:	00062683          	lw	a3,0(a2)
800000a4:	00f69693          	slli	a3,a3,0xf
800000a8:	00f6d693          	srli	a3,a3,0xf
800000ac:	00e6e733          	or	a4,a3,a4
800000b0:	00e62023          	sw	a4,0(a2)
800000b4:	9347a683          	lw	a3,-1740(a5)
800000b8:	0006a703          	lw	a4,0(a3)
800000bc:	dff77713          	andi	a4,a4,-513
800000c0:	00e6a023          	sw	a4,0(a3)
800000c4:	9347a703          	lw	a4,-1740(a5)
800000c8:	00072783          	lw	a5,0(a4)
800000cc:	4007e793          	ori	a5,a5,1024
800000d0:	00f72023          	sw	a5,0(a4)
800000d4:	00008067          	ret

800000d8 <floating_point>:
800000d8:	0001c537          	lui	a0,0x1c
800000dc:	ff010113          	addi	sp,sp,-16
800000e0:	20050513          	addi	a0,a0,512 # 1c200 <copy_loop+0x1c1dc>
800000e4:	00300713          	li	a4,3
800000e8:	00000693          	li	a3,0
800000ec:	00000613          	li	a2,0
800000f0:	00100593          	li	a1,1
800000f4:	00112623          	sw	ra,12(sp)
800000f8:	f09ff0ef          	jal	80000000 <_ZN9Serial_IO4initEmbN4UART12parityMode_eENS0_10stopBits_eENS0_12dataLenght_eE>
800000fc:	800017b7          	lui	a5,0x80001
80000100:	9307ae03          	lw	t3,-1744(a5) # 80000930 <operand_2+0x320>
80000104:	80000fb7          	lui	t6,0x80000
80000108:	80000f37          	lui	t5,0x80000
8000010c:	80000eb7          	lui	t4,0x80000
80000110:	2c4f8f93          	addi	t6,t6,708 # 800002c4 <floating_point+0x1ec>
80000114:	2f0f0f13          	addi	t5,t5,752 # 800002f0 <operand_1>
80000118:	610e8e93          	addi	t4,t4,1552 # 80000610 <operand_2>
8000011c:	00000513          	li	a0,0
80000120:	00a00313          	li	t1,10
80000124:	0c800893          	li	a7,200
80000128:	000f0693          	mv	a3,t5
8000012c:	000e8613          	mv	a2,t4
80000130:	0000e737          	lui	a4,0xe
80000134:	00000793          	li	a5,0
80000138:	21f54833          	sh2add	a6,a0,t6
8000013c:	16a36a63          	bltu	t1,a0,800002b0 <floating_point+0x1d8>
80000140:	00082583          	lw	a1,0(a6)
80000144:	00058067          	jr	a1
80000148:	0006a583          	lw	a1,0(a3)
8000014c:	e00595d3          	fclass.s	a1,a1
80000150:	d005f5d3          	fcvt.s.w	a1,a1
80000154:	00b72023          	sw	a1,0(a4) # e000 <copy_loop+0xdfdc>
80000158:	00178793          	addi	a5,a5,1
8000015c:	00468693          	addi	a3,a3,4
80000160:	00460613          	addi	a2,a2,4
80000164:	00470713          	addi	a4,a4,4
80000168:	fd179ae3          	bne	a5,a7,8000013c <floating_point+0x64>
8000016c:	00150513          	addi	a0,a0,1
80000170:	fb9ff06f          	j	80000128 <floating_point+0x50>
80000174:	0006a583          	lw	a1,0(a3)
80000178:	00062383          	lw	t2,0(a2)
8000017c:	00000293          	li	t0,0
80000180:	a075a5d3          	feq.s	a1,a1,t2
80000184:	00058463          	beqz	a1,8000018c <floating_point+0xb4>
80000188:	000e0293          	mv	t0,t3
8000018c:	00572023          	sw	t0,0(a4)
80000190:	fc9ff06f          	j	80000158 <floating_point+0x80>
80000194:	0006a583          	lw	a1,0(a3)
80000198:	00062383          	lw	t2,0(a2)
8000019c:	000e0293          	mv	t0,t3
800001a0:	a07595d3          	flt.s	a1,a1,t2
800001a4:	fe0594e3          	bnez	a1,8000018c <floating_point+0xb4>
800001a8:	00000293          	li	t0,0
800001ac:	00572023          	sw	t0,0(a4)
800001b0:	fa9ff06f          	j	80000158 <floating_point+0x80>
800001b4:	0006a583          	lw	a1,0(a3)
800001b8:	00062383          	lw	t2,0(a2)
800001bc:	000e0293          	mv	t0,t3
800001c0:	a07585d3          	fle.s	a1,a1,t2
800001c4:	fe0582e3          	beqz	a1,800001a8 <floating_point+0xd0>
800001c8:	00572023          	sw	t0,0(a4)
800001cc:	f8dff06f          	j	80000158 <floating_point+0x80>
800001d0:	0006a583          	lw	a1,0(a3)
800001d4:	00062283          	lw	t0,0(a2)
800001d8:	0855f5d3          	fsub.s	a1,a1,t0
800001dc:	00b72023          	sw	a1,0(a4)
800001e0:	f79ff06f          	j	80000158 <floating_point+0x80>
800001e4:	0006a583          	lw	a1,0(a3)
800001e8:	00062283          	lw	t0,0(a2)
800001ec:	285585d3          	fmin.s	a1,a1,t0
800001f0:	00b72023          	sw	a1,0(a4)
800001f4:	f65ff06f          	j	80000158 <floating_point+0x80>
800001f8:	0006a583          	lw	a1,0(a3)
800001fc:	00062283          	lw	t0,0(a2)
80000200:	1055f5d3          	fmul.s	a1,a1,t0
80000204:	00b72023          	sw	a1,0(a4)
80000208:	f51ff06f          	j	80000158 <floating_point+0x80>
8000020c:	0006a583          	lw	a1,0(a3)
80000210:	00062283          	lw	t0,0(a2)
80000214:	285595d3          	fmax.s	a1,a1,t0
80000218:	00b72023          	sw	a1,0(a4)
8000021c:	f3dff06f          	j	80000158 <floating_point+0x80>
80000220:	0017f593          	andi	a1,a5,1
80000224:	02059463          	bnez	a1,8000024c <floating_point+0x174>
80000228:	00178793          	addi	a5,a5,1
8000022c:	0006a583          	lw	a1,0(a3)
80000230:	c015f5d3          	fcvt.wu.s	a1,a1
80000234:	00b72023          	sw	a1,0(a4)
80000238:	0017f593          	andi	a1,a5,1
8000023c:	00460613          	addi	a2,a2,4
80000240:	00468693          	addi	a3,a3,4
80000244:	00470713          	addi	a4,a4,4
80000248:	fe0580e3          	beqz	a1,80000228 <floating_point+0x150>
8000024c:	0006a583          	lw	a1,0(a3)
80000250:	c005f5d3          	fcvt.w.s	a1,a1
80000254:	00b72023          	sw	a1,0(a4)
80000258:	f01ff06f          	j	80000158 <floating_point+0x80>
8000025c:	0c800513          	li	a0,200
80000260:	0017f593          	andi	a1,a5,1
80000264:	0006a603          	lw	a2,0(a3)
80000268:	02059263          	bnez	a1,8000028c <floating_point+0x1b4>
8000026c:	00178793          	addi	a5,a5,1
80000270:	d0167653          	fcvt.s.wu	a2,a2
80000274:	00468693          	addi	a3,a3,4
80000278:	00c72023          	sw	a2,0(a4)
8000027c:	0017f593          	andi	a1,a5,1
80000280:	0006a603          	lw	a2,0(a3)
80000284:	00470713          	addi	a4,a4,4
80000288:	fe0582e3          	beqz	a1,8000026c <floating_point+0x194>
8000028c:	d0067653          	fcvt.s.w	a2,a2
80000290:	00178793          	addi	a5,a5,1
80000294:	00c72023          	sw	a2,0(a4)
80000298:	00468693          	addi	a3,a3,4
8000029c:	00470713          	addi	a4,a4,4
800002a0:	fca790e3          	bne	a5,a0,80000260 <floating_point+0x188>
800002a4:	00c12083          	lw	ra,12(sp)
800002a8:	01010113          	addi	sp,sp,16
800002ac:	00008067          	ret
800002b0:	0006a583          	lw	a1,0(a3)
800002b4:	00062283          	lw	t0,0(a2)
800002b8:	0055f5d3          	fadd.s	a1,a1,t0
800002bc:	00b72023          	sw	a1,0(a4)
800002c0:	e99ff06f          	j	80000158 <floating_point+0x80>
