
output.elf:     file format elf32-littleriscv


Disassembly of section .boot:

00000000 <boot_program>:
   0:	88000137          	.word	0x88000137
   4:	00800293          	.word	0x00800293
   8:	3002a073          	.word	0x3002a073
   c:	fff00293          	.word	0xfff00293
  10:	3042a073          	.word	0x3042a073
  14:	04800293          	.word	0x04800293
  18:	80000337          	.word	0x80000337
  1c:	000043b7          	.word	0x000043b7
  20:	fff38393          	.word	0xfff38393

00000024 <copy_loop>:
  24:	0002a503          	.word	0x0002a503
  28:	00a32023          	.word	0x00a32023
  2c:	00428293          	.word	0x00428293
  30:	00430313          	.word	0x00430313
  34:	fe72c8e3          	.word	0xfe72c8e3
  38:	80002317          	.word	0x80002317
  3c:	05830313          	.word	0x05830313
  40:	000300e7          	.word	0x000300e7
  44:	c0001073          	.word	0xc0001073

Disassembly of section .text:

80000000 <_ZN9Serial_IO4initEmbN4UART12parityMode_eENS0_10stopBits_eENS0_12dataLenght_eE>:
80000000:	800037b7          	lui	a5,0x80003
80000004:	00004837          	lui	a6,0x4
80000008:	e107a823          	sw	a6,-496(a5) # 80002e10 <_ZN9Serial_IO6statusE>
8000000c:	e107a803          	lw	a6,-496(a5)
80000010:	00480813          	addi	a6,a6,4 # 4004 <copy_loop+0x3fe0>
80000014:	800038b7          	lui	a7,0x80003
80000018:	e108a623          	sw	a6,-500(a7) # 80002e0c <_ZN9Serial_IO8bufferTXE>
8000001c:	e107a803          	lw	a6,-496(a5)
80000020:	e107a883          	lw	a7,-496(a5)
80000024:	0015f593          	andi	a1,a1,1
80000028:	00b59813          	slli	a6,a1,0xb
8000002c:	0008a583          	lw	a1,0(a7)
80000030:	48b59593          	bclri	a1,a1,0xb
80000034:	0105e5b3          	or	a1,a1,a6
80000038:	00b8a023          	sw	a1,0(a7)
8000003c:	e107a803          	lw	a6,-496(a5)
80000040:	00377713          	andi	a4,a4,3
80000044:	00e71593          	slli	a1,a4,0xe
80000048:	00082703          	lw	a4,0(a6)
8000004c:	48e71713          	bclri	a4,a4,0xe
80000050:	48f71713          	bclri	a4,a4,0xf
80000054:	00b76733          	or	a4,a4,a1
80000058:	00e82023          	sw	a4,0(a6)
8000005c:	e107a583          	lw	a1,-496(a5)
80000060:	0016f693          	andi	a3,a3,1
80000064:	00d69693          	slli	a3,a3,0xd
80000068:	0005a703          	lw	a4,0(a1)
8000006c:	48d71713          	bclri	a4,a4,0xd
80000070:	00d76733          	or	a4,a4,a3
80000074:	00e5a023          	sw	a4,0(a1)
80000078:	e107a683          	lw	a3,-496(a5)
8000007c:	00167613          	andi	a2,a2,1
80000080:	00c61713          	slli	a4,a2,0xc
80000084:	0006a603          	lw	a2,0(a3)
80000088:	48c61613          	bclri	a2,a2,0xc
8000008c:	00e66633          	or	a2,a2,a4
80000090:	00c6a023          	sw	a2,0(a3)
80000094:	00451513          	slli	a0,a0,0x4
80000098:	05f5e737          	lui	a4,0x5f5e
8000009c:	10070713          	addi	a4,a4,256 # 5f5e100 <copy_loop+0x5f5e0dc>
800000a0:	02a75733          	divu	a4,a4,a0
800000a4:	fff70713          	addi	a4,a4,-1
800000a8:	e107a603          	lw	a2,-496(a5)
800000ac:	01171713          	slli	a4,a4,0x11
800000b0:	00062683          	lw	a3,0(a2)
800000b4:	00f69693          	slli	a3,a3,0xf
800000b8:	00f6d693          	srli	a3,a3,0xf
800000bc:	00e6e733          	or	a4,a3,a4
800000c0:	00e62023          	sw	a4,0(a2)
800000c4:	e107a683          	lw	a3,-496(a5)
800000c8:	0006a703          	lw	a4,0(a3)
800000cc:	20076713          	ori	a4,a4,512
800000d0:	00e6a023          	sw	a4,0(a3)
800000d4:	e107a703          	lw	a4,-496(a5)
800000d8:	00072783          	lw	a5,0(a4)
800000dc:	4007e793          	ori	a5,a5,1024
800000e0:	00f72023          	sw	a5,0(a4)
800000e4:	00008067          	ret

800000e8 <_ZN9Serial_IO5writeEc>:
800000e8:	80003737          	lui	a4,0x80003
800000ec:	e1072783          	lw	a5,-496(a4) # 80002e10 <_ZN9Serial_IO6statusE>
800000f0:	0007a783          	lw	a5,0(a5)
800000f4:	4837d793          	bexti	a5,a5,0x3
800000f8:	fe079ae3          	bnez	a5,800000ec <_ZN9Serial_IO5writeEc+0x4>
800000fc:	800037b7          	lui	a5,0x80003
80000100:	e0c7a783          	lw	a5,-500(a5) # 80002e0c <_ZN9Serial_IO8bufferTXE>
80000104:	00a78023          	sb	a0,0(a5)
80000108:	00008067          	ret

8000010c <_ZN9Serial_IO5writeEPKcm>:
8000010c:	02058c63          	beqz	a1,80000144 <_ZN9Serial_IO5writeEPKcm+0x38>
80000110:	800037b7          	lui	a5,0x80003
80000114:	e0c7a803          	lw	a6,-500(a5) # 80002e0c <_ZN9Serial_IO8bufferTXE>
80000118:	00050693          	mv	a3,a0
8000011c:	00b50633          	add	a2,a0,a1
80000120:	80003737          	lui	a4,0x80003
80000124:	e1072783          	lw	a5,-496(a4) # 80002e10 <_ZN9Serial_IO6statusE>
80000128:	0007a783          	lw	a5,0(a5)
8000012c:	4837d793          	bexti	a5,a5,0x3
80000130:	fe079ae3          	bnez	a5,80000124 <_ZN9Serial_IO5writeEPKcm+0x18>
80000134:	0006c783          	lbu	a5,0(a3)
80000138:	00f80023          	sb	a5,0(a6)
8000013c:	00168693          	addi	a3,a3,1
80000140:	fec692e3          	bne	a3,a2,80000124 <_ZN9Serial_IO5writeEPKcm+0x18>
80000144:	00008067          	ret

80000148 <_ZN9Serial_IO6writeHIhEEvT_>:
80000148:	fe010113          	addi	sp,sp,-32
8000014c:	00f57793          	andi	a5,a0,15
80000150:	00112e23          	sw	ra,28(sp)
80000154:	00900693          	li	a3,9
80000158:	00455513          	srli	a0,a0,0x4
8000015c:	03778713          	addi	a4,a5,55
80000160:	00f6e463          	bltu	a3,a5,80000168 <_ZN9Serial_IO6writeHIhEEvT_+0x20>
80000164:	03078713          	addi	a4,a5,48
80000168:	00900693          	li	a3,9
8000016c:	03050793          	addi	a5,a0,48
80000170:	00a6f463          	bgeu	a3,a0,80000178 <_ZN9Serial_IO6writeHIhEEvT_+0x30>
80000174:	03750793          	addi	a5,a0,55
80000178:	00c10513          	addi	a0,sp,12
8000017c:	00200593          	li	a1,2
80000180:	00f10623          	sb	a5,12(sp)
80000184:	00e106a3          	sb	a4,13(sp)
80000188:	f85ff0ef          	jal	8000010c <_ZN9Serial_IO5writeEPKcm>
8000018c:	01c12083          	lw	ra,28(sp)
80000190:	00000513          	li	a0,0
80000194:	02010113          	addi	sp,sp,32
80000198:	f51ff06f          	j	800000e8 <_ZN9Serial_IO5writeEc>

8000019c <_ZN9Serial_IO6writeHImEEvT_>:
8000019c:	fe010113          	addi	sp,sp,-32
800001a0:	00050693          	mv	a3,a0
800001a4:	00810513          	addi	a0,sp,8
800001a8:	00112e23          	sw	ra,28(sp)
800001ac:	00050613          	mv	a2,a0
800001b0:	00050713          	mv	a4,a0
800001b4:	00900893          	li	a7,9
800001b8:	0046d793          	srli	a5,a3,0x4
800001bc:	00f6f593          	andi	a1,a3,15
800001c0:	00f7f793          	andi	a5,a5,15
800001c4:	03058813          	addi	a6,a1,48
800001c8:	00b8f463          	bgeu	a7,a1,800001d0 <_ZN9Serial_IO6writeHImEEvT_+0x34>
800001cc:	03758813          	addi	a6,a1,55
800001d0:	03078593          	addi	a1,a5,48
800001d4:	00f8f463          	bgeu	a7,a5,800001dc <_ZN9Serial_IO6writeHImEEvT_+0x40>
800001d8:	03778593          	addi	a1,a5,55
800001dc:	01070023          	sb	a6,0(a4)
800001e0:	00b700a3          	sb	a1,1(a4)
800001e4:	01010793          	addi	a5,sp,16
800001e8:	00270713          	addi	a4,a4,2
800001ec:	0086d693          	srli	a3,a3,0x8
800001f0:	fcf714e3          	bne	a4,a5,800001b8 <_ZN9Serial_IO6writeHImEEvT_+0x1c>
800001f4:	00450593          	addi	a1,a0,4
800001f8:	00050793          	mv	a5,a0
800001fc:	0007c683          	lbu	a3,0(a5)
80000200:	00764703          	lbu	a4,7(a2)
80000204:	00178793          	addi	a5,a5,1
80000208:	00d603a3          	sb	a3,7(a2)
8000020c:	fee78fa3          	sb	a4,-1(a5)
80000210:	fff60613          	addi	a2,a2,-1
80000214:	fef594e3          	bne	a1,a5,800001fc <_ZN9Serial_IO6writeHImEEvT_+0x60>
80000218:	00800593          	li	a1,8
8000021c:	ef1ff0ef          	jal	8000010c <_ZN9Serial_IO5writeEPKcm>
80000220:	01c12083          	lw	ra,28(sp)
80000224:	00000513          	li	a0,0
80000228:	02010113          	addi	sp,sp,32
8000022c:	ebdff06f          	j	800000e8 <_ZN9Serial_IO5writeEc>

80000230 <_ZN9Serial_IO5writeEPKc>:
80000230:	ff010113          	addi	sp,sp,-16
80000234:	00112623          	sw	ra,12(sp)
80000238:	00054783          	lbu	a5,0(a0)
8000023c:	02078463          	beqz	a5,80000264 <_ZN9Serial_IO5writeEPKc+0x34>
80000240:	00000593          	li	a1,0
80000244:	00158593          	addi	a1,a1,1
80000248:	00b507b3          	add	a5,a0,a1
8000024c:	0007c783          	lbu	a5,0(a5)
80000250:	fe079ae3          	bnez	a5,80000244 <_ZN9Serial_IO5writeEPKc+0x14>
80000254:	eb9ff0ef          	jal	8000010c <_ZN9Serial_IO5writeEPKcm>
80000258:	00c12083          	lw	ra,12(sp)
8000025c:	01010113          	addi	sp,sp,16
80000260:	00008067          	ret
80000264:	00000593          	li	a1,0
80000268:	fedff06f          	j	80000254 <_ZN9Serial_IO5writeEPKc+0x24>

8000026c <_ZN2SDC1Ev>:
8000026c:	08000793          	li	a5,128
80000270:	00f52023          	sw	a5,0(a0)
80000274:	20000793          	li	a5,512
80000278:	00f52223          	sw	a5,4(a0)
8000027c:	00051423          	sh	zero,8(a0)
80000280:	00052623          	sw	zero,12(a0)
80000284:	00000793          	li	a5,0
80000288:	00000813          	li	a6,0
8000028c:	00f52823          	sw	a5,16(a0)
80000290:	01052a23          	sw	a6,20(a0)
80000294:	00052c23          	sw	zero,24(a0)
80000298:	00052e23          	sw	zero,28(a0)
8000029c:	02052023          	sw	zero,32(a0)
800002a0:	02052223          	sw	zero,36(a0)
800002a4:	02052423          	sw	zero,40(a0)
800002a8:	02052623          	sw	zero,44(a0)
800002ac:	02052823          	sw	zero,48(a0)
800002b0:	02052a23          	sw	zero,52(a0)
800002b4:	000147b7          	lui	a5,0x14
800002b8:	40078793          	addi	a5,a5,1024 # 14400 <copy_loop+0x143dc>
800002bc:	02f52c23          	sw	a5,56(a0)
800002c0:	02f52e23          	sw	a5,60(a0)
800002c4:	000147b7          	lui	a5,0x14
800002c8:	40478793          	addi	a5,a5,1028 # 14404 <copy_loop+0x143e0>
800002cc:	04f52023          	sw	a5,64(a0)
800002d0:	000147b7          	lui	a5,0x14
800002d4:	40878793          	addi	a5,a5,1032 # 14408 <copy_loop+0x143e4>
800002d8:	04f52223          	sw	a5,68(a0)
800002dc:	000147b7          	lui	a5,0x14
800002e0:	40c78793          	addi	a5,a5,1036 # 1440c <copy_loop+0x143e8>
800002e4:	04f52423          	sw	a5,72(a0)
800002e8:	000147b7          	lui	a5,0x14
800002ec:	41078793          	addi	a5,a5,1040 # 14410 <copy_loop+0x143ec>
800002f0:	04f52623          	sw	a5,76(a0)
800002f4:	000147b7          	lui	a5,0x14
800002f8:	41478793          	addi	a5,a5,1044 # 14414 <copy_loop+0x143f0>
800002fc:	04f52823          	sw	a5,80(a0)
80000300:	000147b7          	lui	a5,0x14
80000304:	41c78793          	addi	a5,a5,1052 # 1441c <copy_loop+0x143f8>
80000308:	04f52a23          	sw	a5,84(a0)
8000030c:	000147b7          	lui	a5,0x14
80000310:	41878793          	addi	a5,a5,1048 # 14418 <copy_loop+0x143f4>
80000314:	04f52c23          	sw	a5,88(a0)
80000318:	03c52703          	lw	a4,60(a0)
8000031c:	00072783          	lw	a5,0(a4)
80000320:	e007f793          	andi	a5,a5,-512
80000324:	00f72023          	sw	a5,0(a4)
80000328:	03c52703          	lw	a4,60(a0)
8000032c:	00072783          	lw	a5,0(a4)
80000330:	bff7f793          	andi	a5,a5,-1025
80000334:	00f72023          	sw	a5,0(a4)
80000338:	03c52703          	lw	a4,60(a0)
8000033c:	00072783          	lw	a5,0(a4)
80000340:	48b79793          	bclri	a5,a5,0xb
80000344:	00f72023          	sw	a5,0(a4)
80000348:	03c52703          	lw	a4,60(a0)
8000034c:	00072783          	lw	a5,0(a4)
80000350:	48d79793          	bclri	a5,a5,0xd
80000354:	00f72023          	sw	a5,0(a4)
80000358:	00008067          	ret

8000035c <_ZN2SDD1Ev>:
8000035c:	03c52703          	lw	a4,60(a0)
80000360:	00072783          	lw	a5,0(a4)
80000364:	e007f793          	andi	a5,a5,-512
80000368:	00f72023          	sw	a5,0(a4)
8000036c:	03c52703          	lw	a4,60(a0)
80000370:	00072783          	lw	a5,0(a4)
80000374:	bff7f793          	andi	a5,a5,-1025
80000378:	00f72023          	sw	a5,0(a4)
8000037c:	03c52703          	lw	a4,60(a0)
80000380:	00072783          	lw	a5,0(a4)
80000384:	48b79793          	bclri	a5,a5,0xb
80000388:	00f72023          	sw	a5,0(a4)
8000038c:	03c52703          	lw	a4,60(a0)
80000390:	00072783          	lw	a5,0(a4)
80000394:	48d79793          	bclri	a5,a5,0xd
80000398:	00f72023          	sw	a5,0(a4)
8000039c:	00008067          	ret

800003a0 <_ZN2SD13setClockSpeedENS_12clockSpeed_eE>:
800003a0:	03c52703          	lw	a4,60(a0)
800003a4:	0015f593          	andi	a1,a1,1
800003a8:	00b59593          	slli	a1,a1,0xb
800003ac:	00072783          	lw	a5,0(a4)
800003b0:	48b79793          	bclri	a5,a5,0xb
800003b4:	00b7e7b3          	or	a5,a5,a1
800003b8:	00f72023          	sw	a5,0(a4)
800003bc:	00008067          	ret

800003c0 <_ZN2SD11sendCommandEmm>:
800003c0:	04052783          	lw	a5,64(a0)
800003c4:	0007a783          	lw	a5,0(a5)
800003c8:	4867d793          	bexti	a5,a5,0x6
800003cc:	fe078ae3          	beqz	a5,800003c0 <_ZN2SD11sendCommandEmm>
800003d0:	04052783          	lw	a5,64(a0)
800003d4:	0007a783          	lw	a5,0(a5)
800003d8:	4827d793          	bexti	a5,a5,0x2
800003dc:	fe0782e3          	beqz	a5,800003c0 <_ZN2SD11sendCommandEmm>
800003e0:	04452783          	lw	a5,68(a0)
800003e4:	00b7a023          	sw	a1,0(a5)
800003e8:	04852783          	lw	a5,72(a0)
800003ec:	00c7a023          	sw	a2,0(a5)
800003f0:	03c52703          	lw	a4,60(a0)
800003f4:	00072783          	lw	a5,0(a4)
800003f8:	2007e793          	ori	a5,a5,512
800003fc:	00f72023          	sw	a5,0(a4)
80000400:	00008067          	ret

80000404 <_ZN2SD19flushResponseBufferEv>:
80000404:	04052783          	lw	a5,64(a0)
80000408:	0007a783          	lw	a5,0(a5)
8000040c:	4867d793          	bexti	a5,a5,0x6
80000410:	fe078ae3          	beqz	a5,80000404 <_ZN2SD19flushResponseBufferEv>
80000414:	04052783          	lw	a5,64(a0)
80000418:	0007a783          	lw	a5,0(a5)
8000041c:	4827d793          	bexti	a5,a5,0x2
80000420:	fe0782e3          	beqz	a5,80000404 <_ZN2SD19flushResponseBufferEv>
80000424:	04052783          	lw	a5,64(a0)
80000428:	0007a783          	lw	a5,0(a5)
8000042c:	4887d793          	bexti	a5,a5,0x8
80000430:	00079e63          	bnez	a5,8000044c <_ZN2SD19flushResponseBufferEv+0x48>
80000434:	05052703          	lw	a4,80(a0)
80000438:	00074783          	lbu	a5,0(a4)
8000043c:	04052783          	lw	a5,64(a0)
80000440:	0007a783          	lw	a5,0(a5)
80000444:	4887d793          	bexti	a5,a5,0x8
80000448:	fe0788e3          	beqz	a5,80000438 <_ZN2SD19flushResponseBufferEv+0x34>
8000044c:	00008067          	ret

80000450 <_ZN2SD12readResponseEPhRbS1_>:
80000450:	ff010113          	addi	sp,sp,-16
80000454:	00112623          	sw	ra,12(sp)
80000458:	00812423          	sw	s0,8(sp)
8000045c:	00050413          	mv	s0,a0
80000460:	04042783          	lw	a5,64(s0)
80000464:	0007a783          	lw	a5,0(a5)
80000468:	4867d793          	bexti	a5,a5,0x6
8000046c:	fe078ae3          	beqz	a5,80000460 <_ZN2SD12readResponseEPhRbS1_+0x10>
80000470:	04042783          	lw	a5,64(s0)
80000474:	0007a783          	lw	a5,0(a5)
80000478:	4847d793          	bexti	a5,a5,0x4
8000047c:	04079c63          	bnez	a5,800004d4 <_ZN2SD12readResponseEPhRbS1_+0x84>
80000480:	04042783          	lw	a5,64(s0)
80000484:	0007a783          	lw	a5,0(a5)
80000488:	4857d793          	bexti	a5,a5,0x5
8000048c:	04079e63          	bnez	a5,800004e8 <_ZN2SD12readResponseEPhRbS1_+0x98>
80000490:	04042783          	lw	a5,64(s0)
80000494:	0007a783          	lw	a5,0(a5)
80000498:	4887d793          	bexti	a5,a5,0x8
8000049c:	02079263          	bnez	a5,800004c0 <_ZN2SD12readResponseEPhRbS1_+0x70>
800004a0:	05042783          	lw	a5,80(s0)
800004a4:	0007c783          	lbu	a5,0(a5)
800004a8:	00f58023          	sb	a5,0(a1)
800004ac:	04042783          	lw	a5,64(s0)
800004b0:	0007a783          	lw	a5,0(a5)
800004b4:	4887d793          	bexti	a5,a5,0x8
800004b8:	00158593          	addi	a1,a1,1
800004bc:	fe0782e3          	beqz	a5,800004a0 <_ZN2SD12readResponseEPhRbS1_+0x50>
800004c0:	00040513          	mv	a0,s0
800004c4:	00c12083          	lw	ra,12(sp)
800004c8:	00812403          	lw	s0,8(sp)
800004cc:	01010113          	addi	sp,sp,16
800004d0:	00008067          	ret
800004d4:	00100793          	li	a5,1
800004d8:	00f60023          	sb	a5,0(a2)
800004dc:	00040513          	mv	a0,s0
800004e0:	f25ff0ef          	jal	80000404 <_ZN2SD19flushResponseBufferEv>
800004e4:	fddff06f          	j	800004c0 <_ZN2SD12readResponseEPhRbS1_+0x70>
800004e8:	00100793          	li	a5,1
800004ec:	00f68023          	sb	a5,0(a3)
800004f0:	00040513          	mv	a0,s0
800004f4:	f11ff0ef          	jal	80000404 <_ZN2SD19flushResponseBufferEv>
800004f8:	fc9ff06f          	j	800004c0 <_ZN2SD12readResponseEPhRbS1_+0x70>

800004fc <_ZN2SD10writeBlockEmPmPhRhRbS3_>:
800004fc:	fe010113          	addi	sp,sp,-32
80000500:	00112e23          	sw	ra,28(sp)
80000504:	00812c23          	sw	s0,24(sp)
80000508:	00912a23          	sw	s1,20(sp)
8000050c:	01212823          	sw	s2,16(sp)
80000510:	01312623          	sw	s3,12(sp)
80000514:	01412423          	sw	s4,8(sp)
80000518:	00050413          	mv	s0,a0
8000051c:	00068993          	mv	s3,a3
80000520:	00070a13          	mv	s4,a4
80000524:	00078493          	mv	s1,a5
80000528:	00080913          	mv	s2,a6
8000052c:	00052783          	lw	a5,0(a0)
80000530:	02078a63          	beqz	a5,80000564 <_ZN2SD10writeBlockEmPmPhRhRbS3_+0x68>
80000534:	00000513          	li	a0,0
80000538:	04042883          	lw	a7,64(s0)
8000053c:	0008a883          	lw	a7,0(a7)
80000540:	01489793          	slli	a5,a7,0x14
80000544:	0207c063          	bltz	a5,80000564 <_ZN2SD10writeBlockEmPmPhRhRbS3_+0x68>
80000548:	00150513          	addi	a0,a0,1
8000054c:	05842883          	lw	a7,88(s0)
80000550:	00062783          	lw	a5,0(a2)
80000554:	00f8a023          	sw	a5,0(a7)
80000558:	00460613          	addi	a2,a2,4
8000055c:	00042883          	lw	a7,0(s0)
80000560:	fd156ce3          	bltu	a0,a7,80000538 <_ZN2SD10writeBlockEmPmPhRhRbS3_+0x3c>
80000564:	00058613          	mv	a2,a1
80000568:	01800593          	li	a1,24
8000056c:	00040513          	mv	a0,s0
80000570:	e51ff0ef          	jal	800003c0 <_ZN2SD11sendCommandEmm>
80000574:	00090693          	mv	a3,s2
80000578:	00048613          	mv	a2,s1
8000057c:	00098593          	mv	a1,s3
80000580:	00040513          	mv	a0,s0
80000584:	ecdff0ef          	jal	80000450 <_ZN2SD12readResponseEPhRbS1_>
80000588:	0004c783          	lbu	a5,0(s1)
8000058c:	04079063          	bnez	a5,800005cc <_ZN2SD10writeBlockEmPmPhRhRbS3_+0xd0>
80000590:	00094783          	lbu	a5,0(s2)
80000594:	02079c63          	bnez	a5,800005cc <_ZN2SD10writeBlockEmPmPhRhRbS3_+0xd0>
80000598:	04042783          	lw	a5,64(s0)
8000059c:	0007a783          	lw	a5,0(a5)
800005a0:	4827d793          	bexti	a5,a5,0x2
800005a4:	fe078ae3          	beqz	a5,80000598 <_ZN2SD10writeBlockEmPmPhRhRbS3_+0x9c>
800005a8:	04042783          	lw	a5,64(s0)
800005ac:	0007a783          	lw	a5,0(a5)
800005b0:	0017f793          	andi	a5,a5,1
800005b4:	00f48023          	sb	a5,0(s1)
800005b8:	04042783          	lw	a5,64(s0)
800005bc:	0007a783          	lw	a5,0(a5)
800005c0:	00d7d793          	srli	a5,a5,0xd
800005c4:	00fa0023          	sb	a5,0(s4)
800005c8:	0140006f          	j	800005dc <_ZN2SD10writeBlockEmPmPhRhRbS3_+0xe0>
800005cc:	03c42703          	lw	a4,60(s0)
800005d0:	00072783          	lw	a5,0(a4)
800005d4:	28c79793          	bseti	a5,a5,0xc
800005d8:	00f72023          	sw	a5,0(a4)
800005dc:	00040513          	mv	a0,s0
800005e0:	01c12083          	lw	ra,28(sp)
800005e4:	01812403          	lw	s0,24(sp)
800005e8:	01412483          	lw	s1,20(sp)
800005ec:	01012903          	lw	s2,16(sp)
800005f0:	00c12983          	lw	s3,12(sp)
800005f4:	00812a03          	lw	s4,8(sp)
800005f8:	02010113          	addi	sp,sp,32
800005fc:	00008067          	ret

80000600 <_ZN2SD15flushDataBufferEv>:
80000600:	04052783          	lw	a5,64(a0)
80000604:	0007a783          	lw	a5,0(a5)
80000608:	4867d793          	bexti	a5,a5,0x6
8000060c:	fe078ae3          	beqz	a5,80000600 <_ZN2SD15flushDataBufferEv>
80000610:	04052783          	lw	a5,64(a0)
80000614:	0007a783          	lw	a5,0(a5)
80000618:	4827d793          	bexti	a5,a5,0x2
8000061c:	fe0782e3          	beqz	a5,80000600 <_ZN2SD15flushDataBufferEv>
80000620:	04052783          	lw	a5,64(a0)
80000624:	0007a783          	lw	a5,0(a5)
80000628:	48a7d793          	bexti	a5,a5,0xa
8000062c:	00079e63          	bnez	a5,80000648 <_ZN2SD15flushDataBufferEv+0x48>
80000630:	05452703          	lw	a4,84(a0)
80000634:	00072783          	lw	a5,0(a4)
80000638:	04052783          	lw	a5,64(a0)
8000063c:	0007a783          	lw	a5,0(a5)
80000640:	48a7d793          	bexti	a5,a5,0xa
80000644:	fe0788e3          	beqz	a5,80000634 <_ZN2SD15flushDataBufferEv+0x34>
80000648:	00008067          	ret

8000064c <_ZN2SD4initENS_12clockSpeed_eENS_10busWidth_eEPhRbS3_S3_>:
8000064c:	fb010113          	addi	sp,sp,-80
80000650:	04112623          	sw	ra,76(sp)
80000654:	04812423          	sw	s0,72(sp)
80000658:	04912223          	sw	s1,68(sp)
8000065c:	05212023          	sw	s2,64(sp)
80000660:	03312e23          	sw	s3,60(sp)
80000664:	03412c23          	sw	s4,56(sp)
80000668:	03512a23          	sw	s5,52(sp)
8000066c:	03612823          	sw	s6,48(sp)
80000670:	00050413          	mv	s0,a0
80000674:	00058a93          	mv	s5,a1
80000678:	00060a13          	mv	s4,a2
8000067c:	00068913          	mv	s2,a3
80000680:	00070493          	mv	s1,a4
80000684:	00078993          	mv	s3,a5
80000688:	00080b13          	mv	s6,a6
8000068c:	00012623          	sw	zero,12(sp)
80000690:	00012823          	sw	zero,16(sp)
80000694:	00012a23          	sw	zero,20(sp)
80000698:	00012c23          	sw	zero,24(sp)
8000069c:	00010e23          	sb	zero,28(sp)
800006a0:	03c52703          	lw	a4,60(a0)
800006a4:	00072783          	lw	a5,0(a4)
800006a8:	28e79793          	bseti	a5,a5,0xe
800006ac:	00f72023          	sw	a5,0(a4)
800006b0:	03c42783          	lw	a5,60(s0)
800006b4:	0007a783          	lw	a5,0(a5)
800006b8:	01179713          	slli	a4,a5,0x11
800006bc:	fe074ae3          	bltz	a4,800006b0 <_ZN2SD4initENS_12clockSpeed_eENS_10busWidth_eEPhRbS3_S3_+0x64>
800006c0:	03c42703          	lw	a4,60(s0)
800006c4:	00072783          	lw	a5,0(a4)
800006c8:	28d79793          	bseti	a5,a5,0xd
800006cc:	00f72023          	sw	a5,0(a4)
800006d0:	00012423          	sw	zero,8(sp)
800006d4:	00002337          	lui	t1,0x2
800006d8:	71030313          	addi	t1,t1,1808 # 2710 <copy_loop+0x26ec>
800006dc:	00812883          	lw	a7,8(sp)
800006e0:	00188893          	addi	a7,a7,1
800006e4:	01112423          	sw	a7,8(sp)
800006e8:	fff30313          	addi	t1,t1,-1
800006ec:	fe0318e3          	bnez	t1,800006dc <_ZN2SD4initENS_12clockSpeed_eENS_10busWidth_eEPhRbS3_S3_+0x90>
800006f0:	00000613          	li	a2,0
800006f4:	00000593          	li	a1,0
800006f8:	00040513          	mv	a0,s0
800006fc:	cc5ff0ef          	jal	800003c0 <_ZN2SD11sendCommandEmm>
80000700:	00040513          	mv	a0,s0
80000704:	d01ff0ef          	jal	80000404 <_ZN2SD19flushResponseBufferEv>
80000708:	1aa00613          	li	a2,426
8000070c:	00800593          	li	a1,8
80000710:	00040513          	mv	a0,s0
80000714:	cadff0ef          	jal	800003c0 <_ZN2SD11sendCommandEmm>
80000718:	00098693          	mv	a3,s3
8000071c:	00048613          	mv	a2,s1
80000720:	00090593          	mv	a1,s2
80000724:	00040513          	mv	a0,s0
80000728:	d29ff0ef          	jal	80000450 <_ZN2SD12readResponseEPhRbS1_>
8000072c:	0004c783          	lbu	a5,0(s1)
80000730:	00078463          	beqz	a5,80000738 <_ZN2SD4initENS_12clockSpeed_eENS_10busWidth_eEPhRbS3_S3_+0xec>
80000734:	00048023          	sb	zero,0(s1)
80000738:	0009c783          	lbu	a5,0(s3)
8000073c:	44079e63          	bnez	a5,80000b98 <_ZN2SD4initENS_12clockSpeed_eENS_10busWidth_eEPhRbS3_S3_+0x54c>
80000740:	03712623          	sw	s7,44(sp)
80000744:	03812423          	sw	s8,40(sp)
80000748:	03912223          	sw	s9,36(sp)
8000074c:	03a12023          	sw	s10,32(sp)
80000750:	0c800913          	li	s2,200
80000754:	03700d13          	li	s10,55
80000758:	40300cb7          	lui	s9,0x40300
8000075c:	02900c13          	li	s8,41
80000760:	00c10b93          	addi	s7,sp,12
80000764:	01c0006f          	j	80000780 <_ZN2SD4initENS_12clockSpeed_eENS_10busWidth_eEPhRbS3_S3_+0x134>
80000768:	0009c783          	lbu	a5,0(s3)
8000076c:	40079e63          	bnez	a5,80000b88 <_ZN2SD4initENS_12clockSpeed_eENS_10busWidth_eEPhRbS3_S3_+0x53c>
80000770:	00d10783          	lb	a5,13(sp)
80000774:	0407cc63          	bltz	a5,800007cc <_ZN2SD4initENS_12clockSpeed_eENS_10busWidth_eEPhRbS3_S3_+0x180>
80000778:	fff90913          	addi	s2,s2,-1
8000077c:	04090863          	beqz	s2,800007cc <_ZN2SD4initENS_12clockSpeed_eENS_10busWidth_eEPhRbS3_S3_+0x180>
80000780:	00000613          	li	a2,0
80000784:	000d0593          	mv	a1,s10
80000788:	00040513          	mv	a0,s0
8000078c:	c35ff0ef          	jal	800003c0 <_ZN2SD11sendCommandEmm>
80000790:	00040513          	mv	a0,s0
80000794:	c71ff0ef          	jal	80000404 <_ZN2SD19flushResponseBufferEv>
80000798:	000c8613          	mv	a2,s9
8000079c:	000c0593          	mv	a1,s8
800007a0:	00040513          	mv	a0,s0
800007a4:	c1dff0ef          	jal	800003c0 <_ZN2SD11sendCommandEmm>
800007a8:	00098693          	mv	a3,s3
800007ac:	00048613          	mv	a2,s1
800007b0:	000b8593          	mv	a1,s7
800007b4:	00040513          	mv	a0,s0
800007b8:	c99ff0ef          	jal	80000450 <_ZN2SD12readResponseEPhRbS1_>
800007bc:	0004c783          	lbu	a5,0(s1)
800007c0:	fa0784e3          	beqz	a5,80000768 <_ZN2SD4initENS_12clockSpeed_eENS_10busWidth_eEPhRbS3_S3_+0x11c>
800007c4:	00048023          	sb	zero,0(s1)
800007c8:	fa1ff06f          	j	80000768 <_ZN2SD4initENS_12clockSpeed_eENS_10busWidth_eEPhRbS3_S3_+0x11c>
800007cc:	00000613          	li	a2,0
800007d0:	03a00593          	li	a1,58
800007d4:	00040513          	mv	a0,s0
800007d8:	be9ff0ef          	jal	800003c0 <_ZN2SD11sendCommandEmm>
800007dc:	00098693          	mv	a3,s3
800007e0:	00048613          	mv	a2,s1
800007e4:	00c10593          	addi	a1,sp,12
800007e8:	00040513          	mv	a0,s0
800007ec:	c65ff0ef          	jal	80000450 <_ZN2SD12readResponseEPhRbS1_>
800007f0:	0004c783          	lbu	a5,0(s1)
800007f4:	04079263          	bnez	a5,80000838 <_ZN2SD4initENS_12clockSpeed_eENS_10busWidth_eEPhRbS3_S3_+0x1ec>
800007f8:	0009c783          	lbu	a5,0(s3)
800007fc:	02079e63          	bnez	a5,80000838 <_ZN2SD4initENS_12clockSpeed_eENS_10busWidth_eEPhRbS3_S3_+0x1ec>
80000800:	00d14703          	lbu	a4,13(sp)
80000804:	00e14783          	lbu	a5,14(sp)
80000808:	01079793          	slli	a5,a5,0x10
8000080c:	01871693          	slli	a3,a4,0x18
80000810:	00d7e7b3          	or	a5,a5,a3
80000814:	01014683          	lbu	a3,16(sp)
80000818:	00d7e7b3          	or	a5,a5,a3
8000081c:	00f14683          	lbu	a3,15(sp)
80000820:	00869693          	slli	a3,a3,0x8
80000824:	00d7e7b3          	or	a5,a5,a3
80000828:	00f42623          	sw	a5,12(s0)
8000082c:	48675713          	bexti	a4,a4,0x6
80000830:	00eb0023          	sb	a4,0(s6)
80000834:	0100006f          	j	80000844 <_ZN2SD4initENS_12clockSpeed_eENS_10busWidth_eEPhRbS3_S3_+0x1f8>
80000838:	000b0023          	sb	zero,0(s6)
8000083c:	00048023          	sb	zero,0(s1)
80000840:	00042623          	sw	zero,12(s0)
80000844:	0009c783          	lbu	a5,0(s3)
80000848:	00078c63          	beqz	a5,80000860 <_ZN2SD4initENS_12clockSpeed_eENS_10busWidth_eEPhRbS3_S3_+0x214>
8000084c:	02c12b83          	lw	s7,44(sp)
80000850:	02812c03          	lw	s8,40(sp)
80000854:	02412c83          	lw	s9,36(sp)
80000858:	02012d03          	lw	s10,32(sp)
8000085c:	33c0006f          	j	80000b98 <_ZN2SD4initENS_12clockSpeed_eENS_10busWidth_eEPhRbS3_S3_+0x54c>
80000860:	00040513          	mv	a0,s0
80000864:	ba1ff0ef          	jal	80000404 <_ZN2SD19flushResponseBufferEv>
80000868:	03c42683          	lw	a3,60(s0)
8000086c:	001af793          	andi	a5,s5,1
80000870:	00b79793          	slli	a5,a5,0xb
80000874:	0006a703          	lw	a4,0(a3)
80000878:	48b71713          	bclri	a4,a4,0xb
8000087c:	00f767b3          	or	a5,a4,a5
80000880:	00f6a023          	sw	a5,0(a3)
80000884:	00000613          	li	a2,0
80000888:	00200593          	li	a1,2
8000088c:	00040513          	mv	a0,s0
80000890:	b31ff0ef          	jal	800003c0 <_ZN2SD11sendCommandEmm>
80000894:	00098693          	mv	a3,s3
80000898:	00048613          	mv	a2,s1
8000089c:	00c10593          	addi	a1,sp,12
800008a0:	00040513          	mv	a0,s0
800008a4:	badff0ef          	jal	80000450 <_ZN2SD12readResponseEPhRbS1_>
800008a8:	0004c783          	lbu	a5,0(s1)
800008ac:	02079863          	bnez	a5,800008dc <_ZN2SD4initENS_12clockSpeed_eENS_10busWidth_eEPhRbS3_S3_+0x290>
800008b0:	0009c783          	lbu	a5,0(s3)
800008b4:	02079463          	bnez	a5,800008dc <_ZN2SD4initENS_12clockSpeed_eENS_10busWidth_eEPhRbS3_S3_+0x290>
800008b8:	00d10793          	addi	a5,sp,13
800008bc:	03740713          	addi	a4,s0,55
800008c0:	01d10613          	addi	a2,sp,29
800008c4:	0007c683          	lbu	a3,0(a5)
800008c8:	00d70023          	sb	a3,0(a4)
800008cc:	00178793          	addi	a5,a5,1
800008d0:	fff70713          	addi	a4,a4,-1
800008d4:	fec798e3          	bne	a5,a2,800008c4 <_ZN2SD4initENS_12clockSpeed_eENS_10busWidth_eEPhRbS3_S3_+0x278>
800008d8:	0200006f          	j	800008f8 <_ZN2SD4initENS_12clockSpeed_eENS_10busWidth_eEPhRbS3_S3_+0x2ac>
800008dc:	00000793          	li	a5,0
800008e0:	00000813          	li	a6,0
800008e4:	02f42823          	sw	a5,48(s0)
800008e8:	03042a23          	sw	a6,52(s0)
800008ec:	02f42423          	sw	a5,40(s0)
800008f0:	03042623          	sw	a6,44(s0)
800008f4:	00048023          	sb	zero,0(s1)
800008f8:	0009c783          	lbu	a5,0(s3)
800008fc:	00078c63          	beqz	a5,80000914 <_ZN2SD4initENS_12clockSpeed_eENS_10busWidth_eEPhRbS3_S3_+0x2c8>
80000900:	02c12b83          	lw	s7,44(sp)
80000904:	02812c03          	lw	s8,40(sp)
80000908:	02412c83          	lw	s9,36(sp)
8000090c:	02012d03          	lw	s10,32(sp)
80000910:	2880006f          	j	80000b98 <_ZN2SD4initENS_12clockSpeed_eENS_10busWidth_eEPhRbS3_S3_+0x54c>
80000914:	00000613          	li	a2,0
80000918:	00300593          	li	a1,3
8000091c:	00040513          	mv	a0,s0
80000920:	aa1ff0ef          	jal	800003c0 <_ZN2SD11sendCommandEmm>
80000924:	00098693          	mv	a3,s3
80000928:	00048613          	mv	a2,s1
8000092c:	00c10593          	addi	a1,sp,12
80000930:	00040513          	mv	a0,s0
80000934:	b1dff0ef          	jal	80000450 <_ZN2SD12readResponseEPhRbS1_>
80000938:	0004c783          	lbu	a5,0(s1)
8000093c:	02079263          	bnez	a5,80000960 <_ZN2SD4initENS_12clockSpeed_eENS_10busWidth_eEPhRbS3_S3_+0x314>
80000940:	0009c783          	lbu	a5,0(s3)
80000944:	00079e63          	bnez	a5,80000960 <_ZN2SD4initENS_12clockSpeed_eENS_10busWidth_eEPhRbS3_S3_+0x314>
80000948:	00d14783          	lbu	a5,13(sp)
8000094c:	00879793          	slli	a5,a5,0x8
80000950:	00e14703          	lbu	a4,14(sp)
80000954:	00e7e7b3          	or	a5,a5,a4
80000958:	00f41423          	sh	a5,8(s0)
8000095c:	0080006f          	j	80000964 <_ZN2SD4initENS_12clockSpeed_eENS_10busWidth_eEPhRbS3_S3_+0x318>
80000960:	00048023          	sb	zero,0(s1)
80000964:	0009c783          	lbu	a5,0(s3)
80000968:	00078c63          	beqz	a5,80000980 <_ZN2SD4initENS_12clockSpeed_eENS_10busWidth_eEPhRbS3_S3_+0x334>
8000096c:	02c12b83          	lw	s7,44(sp)
80000970:	02812c03          	lw	s8,40(sp)
80000974:	02412c83          	lw	s9,36(sp)
80000978:	02012d03          	lw	s10,32(sp)
8000097c:	21c0006f          	j	80000b98 <_ZN2SD4initENS_12clockSpeed_eENS_10busWidth_eEPhRbS3_S3_+0x54c>
80000980:	00040513          	mv	a0,s0
80000984:	a81ff0ef          	jal	80000404 <_ZN2SD19flushResponseBufferEv>
80000988:	00845603          	lhu	a2,8(s0)
8000098c:	01061613          	slli	a2,a2,0x10
80000990:	00900593          	li	a1,9
80000994:	00040513          	mv	a0,s0
80000998:	a29ff0ef          	jal	800003c0 <_ZN2SD11sendCommandEmm>
8000099c:	00098693          	mv	a3,s3
800009a0:	00048613          	mv	a2,s1
800009a4:	00c10593          	addi	a1,sp,12
800009a8:	00040513          	mv	a0,s0
800009ac:	aa5ff0ef          	jal	80000450 <_ZN2SD12readResponseEPhRbS1_>
800009b0:	0004c783          	lbu	a5,0(s1)
800009b4:	02079863          	bnez	a5,800009e4 <_ZN2SD4initENS_12clockSpeed_eENS_10busWidth_eEPhRbS3_S3_+0x398>
800009b8:	0009c783          	lbu	a5,0(s3)
800009bc:	02079463          	bnez	a5,800009e4 <_ZN2SD4initENS_12clockSpeed_eENS_10busWidth_eEPhRbS3_S3_+0x398>
800009c0:	00d10793          	addi	a5,sp,13
800009c4:	02740713          	addi	a4,s0,39
800009c8:	01d10693          	addi	a3,sp,29
800009cc:	0007c603          	lbu	a2,0(a5)
800009d0:	00c70023          	sb	a2,0(a4)
800009d4:	00178793          	addi	a5,a5,1
800009d8:	fff70713          	addi	a4,a4,-1
800009dc:	fed798e3          	bne	a5,a3,800009cc <_ZN2SD4initENS_12clockSpeed_eENS_10busWidth_eEPhRbS3_S3_+0x380>
800009e0:	0200006f          	j	80000a00 <_ZN2SD4initENS_12clockSpeed_eENS_10busWidth_eEPhRbS3_S3_+0x3b4>
800009e4:	00000793          	li	a5,0
800009e8:	00000813          	li	a6,0
800009ec:	02f42023          	sw	a5,32(s0)
800009f0:	03042223          	sw	a6,36(s0)
800009f4:	00f42c23          	sw	a5,24(s0)
800009f8:	01042e23          	sw	a6,28(s0)
800009fc:	00048023          	sb	zero,0(s1)
80000a00:	0009c783          	lbu	a5,0(s3)
80000a04:	00078c63          	beqz	a5,80000a1c <_ZN2SD4initENS_12clockSpeed_eENS_10busWidth_eEPhRbS3_S3_+0x3d0>
80000a08:	02c12b83          	lw	s7,44(sp)
80000a0c:	02812c03          	lw	s8,40(sp)
80000a10:	02412c83          	lw	s9,36(sp)
80000a14:	02012d03          	lw	s10,32(sp)
80000a18:	1800006f          	j	80000b98 <_ZN2SD4initENS_12clockSpeed_eENS_10busWidth_eEPhRbS3_S3_+0x54c>
80000a1c:	00040513          	mv	a0,s0
80000a20:	9e5ff0ef          	jal	80000404 <_ZN2SD19flushResponseBufferEv>
80000a24:	00845603          	lhu	a2,8(s0)
80000a28:	01061613          	slli	a2,a2,0x10
80000a2c:	00700593          	li	a1,7
80000a30:	00040513          	mv	a0,s0
80000a34:	98dff0ef          	jal	800003c0 <_ZN2SD11sendCommandEmm>
80000a38:	00040513          	mv	a0,s0
80000a3c:	9c9ff0ef          	jal	80000404 <_ZN2SD19flushResponseBufferEv>
80000a40:	000b4783          	lbu	a5,0(s6)
80000a44:	0c078863          	beqz	a5,80000b14 <_ZN2SD4initENS_12clockSpeed_eENS_10busWidth_eEPhRbS3_S3_+0x4c8>
80000a48:	00845603          	lhu	a2,8(s0)
80000a4c:	01061613          	slli	a2,a2,0x10
80000a50:	03700593          	li	a1,55
80000a54:	00040513          	mv	a0,s0
80000a58:	969ff0ef          	jal	800003c0 <_ZN2SD11sendCommandEmm>
80000a5c:	00040513          	mv	a0,s0
80000a60:	9a5ff0ef          	jal	80000404 <_ZN2SD19flushResponseBufferEv>
80000a64:	fffa0613          	addi	a2,s4,-1
80000a68:	00163613          	seqz	a2,a2
80000a6c:	00161613          	slli	a2,a2,0x1
80000a70:	00600593          	li	a1,6
80000a74:	00040513          	mv	a0,s0
80000a78:	949ff0ef          	jal	800003c0 <_ZN2SD11sendCommandEmm>
80000a7c:	00845603          	lhu	a2,8(s0)
80000a80:	01061613          	slli	a2,a2,0x10
80000a84:	03700593          	li	a1,55
80000a88:	00040513          	mv	a0,s0
80000a8c:	935ff0ef          	jal	800003c0 <_ZN2SD11sendCommandEmm>
80000a90:	00040513          	mv	a0,s0
80000a94:	971ff0ef          	jal	80000404 <_ZN2SD19flushResponseBufferEv>
80000a98:	0004c783          	lbu	a5,0(s1)
80000a9c:	08078a63          	beqz	a5,80000b30 <_ZN2SD4initENS_12clockSpeed_eENS_10busWidth_eEPhRbS3_S3_+0x4e4>
80000aa0:	00000793          	li	a5,0
80000aa4:	00000813          	li	a6,0
80000aa8:	00f42823          	sw	a5,16(s0)
80000aac:	01042a23          	sw	a6,20(s0)
80000ab0:	00048023          	sb	zero,0(s1)
80000ab4:	04042783          	lw	a5,64(s0)
80000ab8:	0007a783          	lw	a5,0(a5)
80000abc:	4867d793          	bexti	a5,a5,0x6
80000ac0:	fe078ae3          	beqz	a5,80000ab4 <_ZN2SD4initENS_12clockSpeed_eENS_10busWidth_eEPhRbS3_S3_+0x468>
80000ac4:	04042783          	lw	a5,64(s0)
80000ac8:	0007a783          	lw	a5,0(a5)
80000acc:	4827d793          	bexti	a5,a5,0x2
80000ad0:	fe0782e3          	beqz	a5,80000ab4 <_ZN2SD4initENS_12clockSpeed_eENS_10busWidth_eEPhRbS3_S3_+0x468>
80000ad4:	00040513          	mv	a0,s0
80000ad8:	92dff0ef          	jal	80000404 <_ZN2SD19flushResponseBufferEv>
80000adc:	00040513          	mv	a0,s0
80000ae0:	b21ff0ef          	jal	80000600 <_ZN2SD15flushDataBufferEv>
80000ae4:	03c42683          	lw	a3,60(s0)
80000ae8:	001a7793          	andi	a5,s4,1
80000aec:	00a79793          	slli	a5,a5,0xa
80000af0:	0006a703          	lw	a4,0(a3)
80000af4:	bff77713          	andi	a4,a4,-1025
80000af8:	00f767b3          	or	a5,a4,a5
80000afc:	00f6a023          	sw	a5,0(a3)
80000b00:	02c12b83          	lw	s7,44(sp)
80000b04:	02812c03          	lw	s8,40(sp)
80000b08:	02412c83          	lw	s9,36(sp)
80000b0c:	02012d03          	lw	s10,32(sp)
80000b10:	0880006f          	j	80000b98 <_ZN2SD4initENS_12clockSpeed_eENS_10busWidth_eEPhRbS3_S3_+0x54c>
80000b14:	20000613          	li	a2,512
80000b18:	01000593          	li	a1,16
80000b1c:	00040513          	mv	a0,s0
80000b20:	8a1ff0ef          	jal	800003c0 <_ZN2SD11sendCommandEmm>
80000b24:	00040513          	mv	a0,s0
80000b28:	8ddff0ef          	jal	80000404 <_ZN2SD19flushResponseBufferEv>
80000b2c:	f1dff06f          	j	80000a48 <_ZN2SD4initENS_12clockSpeed_eENS_10busWidth_eEPhRbS3_S3_+0x3fc>
80000b30:	00000613          	li	a2,0
80000b34:	03300593          	li	a1,51
80000b38:	00040513          	mv	a0,s0
80000b3c:	885ff0ef          	jal	800003c0 <_ZN2SD11sendCommandEmm>
80000b40:	00040513          	mv	a0,s0
80000b44:	8c1ff0ef          	jal	80000404 <_ZN2SD19flushResponseBufferEv>
80000b48:	04042783          	lw	a5,64(s0)
80000b4c:	0007a783          	lw	a5,0(a5)
80000b50:	48a7d793          	bexti	a5,a5,0xa
80000b54:	fe079ae3          	bnez	a5,80000b48 <_ZN2SD4initENS_12clockSpeed_eENS_10busWidth_eEPhRbS3_S3_+0x4fc>
80000b58:	05442703          	lw	a4,84(s0)
80000b5c:	00072783          	lw	a5,0(a4)
80000b60:	00f42a23          	sw	a5,20(s0)
80000b64:	04042783          	lw	a5,64(s0)
80000b68:	0007a783          	lw	a5,0(a5)
80000b6c:	48a7d793          	bexti	a5,a5,0xa
80000b70:	fe079ae3          	bnez	a5,80000b64 <_ZN2SD4initENS_12clockSpeed_eENS_10busWidth_eEPhRbS3_S3_+0x518>
80000b74:	00072783          	lw	a5,0(a4)
80000b78:	00f42823          	sw	a5,16(s0)
80000b7c:	00040513          	mv	a0,s0
80000b80:	a81ff0ef          	jal	80000600 <_ZN2SD15flushDataBufferEv>
80000b84:	f31ff06f          	j	80000ab4 <_ZN2SD4initENS_12clockSpeed_eENS_10busWidth_eEPhRbS3_S3_+0x468>
80000b88:	02c12b83          	lw	s7,44(sp)
80000b8c:	02812c03          	lw	s8,40(sp)
80000b90:	02412c83          	lw	s9,36(sp)
80000b94:	02012d03          	lw	s10,32(sp)
80000b98:	00040513          	mv	a0,s0
80000b9c:	04c12083          	lw	ra,76(sp)
80000ba0:	04812403          	lw	s0,72(sp)
80000ba4:	04412483          	lw	s1,68(sp)
80000ba8:	04012903          	lw	s2,64(sp)
80000bac:	03c12983          	lw	s3,60(sp)
80000bb0:	03812a03          	lw	s4,56(sp)
80000bb4:	03412a83          	lw	s5,52(sp)
80000bb8:	03012b03          	lw	s6,48(sp)
80000bbc:	05010113          	addi	sp,sp,80
80000bc0:	00008067          	ret

80000bc4 <_ZN2SD11setBusWidthENS_10busWidth_eE>:
80000bc4:	ff010113          	addi	sp,sp,-16
80000bc8:	00112623          	sw	ra,12(sp)
80000bcc:	00812423          	sw	s0,8(sp)
80000bd0:	00912223          	sw	s1,4(sp)
80000bd4:	00050413          	mv	s0,a0
80000bd8:	00058493          	mv	s1,a1
80000bdc:	00855603          	lhu	a2,8(a0)
80000be0:	01061613          	slli	a2,a2,0x10
80000be4:	03700593          	li	a1,55
80000be8:	fd8ff0ef          	jal	800003c0 <_ZN2SD11sendCommandEmm>
80000bec:	00040513          	mv	a0,s0
80000bf0:	815ff0ef          	jal	80000404 <_ZN2SD19flushResponseBufferEv>
80000bf4:	fff48613          	addi	a2,s1,-1
80000bf8:	00163613          	seqz	a2,a2
80000bfc:	00161613          	slli	a2,a2,0x1
80000c00:	00600593          	li	a1,6
80000c04:	00040513          	mv	a0,s0
80000c08:	fb8ff0ef          	jal	800003c0 <_ZN2SD11sendCommandEmm>
80000c0c:	04042783          	lw	a5,64(s0)
80000c10:	0007a783          	lw	a5,0(a5)
80000c14:	4867d793          	bexti	a5,a5,0x6
80000c18:	fe078ae3          	beqz	a5,80000c0c <_ZN2SD11setBusWidthENS_10busWidth_eE+0x48>
80000c1c:	04042783          	lw	a5,64(s0)
80000c20:	0007a783          	lw	a5,0(a5)
80000c24:	4827d793          	bexti	a5,a5,0x2
80000c28:	fe0782e3          	beqz	a5,80000c0c <_ZN2SD11setBusWidthENS_10busWidth_eE+0x48>
80000c2c:	00040513          	mv	a0,s0
80000c30:	fd4ff0ef          	jal	80000404 <_ZN2SD19flushResponseBufferEv>
80000c34:	00040513          	mv	a0,s0
80000c38:	9c9ff0ef          	jal	80000600 <_ZN2SD15flushDataBufferEv>
80000c3c:	03c42703          	lw	a4,60(s0)
80000c40:	0014f493          	andi	s1,s1,1
80000c44:	00a49493          	slli	s1,s1,0xa
80000c48:	00072783          	lw	a5,0(a4)
80000c4c:	bff7f793          	andi	a5,a5,-1025
80000c50:	0097e7b3          	or	a5,a5,s1
80000c54:	00f72023          	sw	a5,0(a4)
80000c58:	00040513          	mv	a0,s0
80000c5c:	00c12083          	lw	ra,12(sp)
80000c60:	00812403          	lw	s0,8(sp)
80000c64:	00412483          	lw	s1,4(sp)
80000c68:	01010113          	addi	sp,sp,16
80000c6c:	00008067          	ret

80000c70 <_ZN2SD9readBlockEmPmPhRbS2_>:
80000c70:	fe010113          	addi	sp,sp,-32
80000c74:	00112e23          	sw	ra,28(sp)
80000c78:	00812c23          	sw	s0,24(sp)
80000c7c:	00912a23          	sw	s1,20(sp)
80000c80:	01212823          	sw	s2,16(sp)
80000c84:	01312623          	sw	s3,12(sp)
80000c88:	01412423          	sw	s4,8(sp)
80000c8c:	00050413          	mv	s0,a0
80000c90:	00060493          	mv	s1,a2
80000c94:	00068a13          	mv	s4,a3
80000c98:	00070913          	mv	s2,a4
80000c9c:	00078993          	mv	s3,a5
80000ca0:	00058613          	mv	a2,a1
80000ca4:	01100593          	li	a1,17
80000ca8:	f18ff0ef          	jal	800003c0 <_ZN2SD11sendCommandEmm>
80000cac:	00098693          	mv	a3,s3
80000cb0:	00090613          	mv	a2,s2
80000cb4:	000a0593          	mv	a1,s4
80000cb8:	00040513          	mv	a0,s0
80000cbc:	f94ff0ef          	jal	80000450 <_ZN2SD12readResponseEPhRbS1_>
80000cc0:	00094783          	lbu	a5,0(s2)
80000cc4:	06079063          	bnez	a5,80000d24 <_ZN2SD9readBlockEmPmPhRbS2_+0xb4>
80000cc8:	0009c783          	lbu	a5,0(s3)
80000ccc:	04079c63          	bnez	a5,80000d24 <_ZN2SD9readBlockEmPmPhRbS2_+0xb4>
80000cd0:	04042783          	lw	a5,64(s0)
80000cd4:	0007a783          	lw	a5,0(a5)
80000cd8:	4827d793          	bexti	a5,a5,0x2
80000cdc:	fe078ae3          	beqz	a5,80000cd0 <_ZN2SD9readBlockEmPmPhRbS2_+0x60>
80000ce0:	04042783          	lw	a5,64(s0)
80000ce4:	0007a783          	lw	a5,0(a5)
80000ce8:	0017f793          	andi	a5,a5,1
80000cec:	04079e63          	bnez	a5,80000d48 <_ZN2SD9readBlockEmPmPhRbS2_+0xd8>
80000cf0:	04042783          	lw	a5,64(s0)
80000cf4:	0007a783          	lw	a5,0(a5)
80000cf8:	48a7d793          	bexti	a5,a5,0xa
80000cfc:	00048613          	mv	a2,s1
80000d00:	02079263          	bnez	a5,80000d24 <_ZN2SD9readBlockEmPmPhRbS2_+0xb4>
80000d04:	05442783          	lw	a5,84(s0)
80000d08:	0007a783          	lw	a5,0(a5)
80000d0c:	00f62023          	sw	a5,0(a2)
80000d10:	04042783          	lw	a5,64(s0)
80000d14:	0007a783          	lw	a5,0(a5)
80000d18:	48a7d793          	bexti	a5,a5,0xa
80000d1c:	00460613          	addi	a2,a2,4
80000d20:	fe0782e3          	beqz	a5,80000d04 <_ZN2SD9readBlockEmPmPhRbS2_+0x94>
80000d24:	00040513          	mv	a0,s0
80000d28:	01c12083          	lw	ra,28(sp)
80000d2c:	01812403          	lw	s0,24(sp)
80000d30:	01412483          	lw	s1,20(sp)
80000d34:	01012903          	lw	s2,16(sp)
80000d38:	00c12983          	lw	s3,12(sp)
80000d3c:	00812a03          	lw	s4,8(sp)
80000d40:	02010113          	addi	sp,sp,32
80000d44:	00008067          	ret
80000d48:	00100793          	li	a5,1
80000d4c:	00f90023          	sb	a5,0(s2)
80000d50:	00040513          	mv	a0,s0
80000d54:	8adff0ef          	jal	80000600 <_ZN2SD15flushDataBufferEv>
80000d58:	fcdff06f          	j	80000d24 <_ZN2SD9readBlockEmPmPhRbS2_+0xb4>

80000d5c <_ZN2SD9readBurstEmmPmPhRbS2_>:
80000d5c:	fe010113          	addi	sp,sp,-32
80000d60:	00112e23          	sw	ra,28(sp)
80000d64:	00812c23          	sw	s0,24(sp)
80000d68:	00912a23          	sw	s1,20(sp)
80000d6c:	01212823          	sw	s2,16(sp)
80000d70:	01312623          	sw	s3,12(sp)
80000d74:	01412423          	sw	s4,8(sp)
80000d78:	01512223          	sw	s5,4(sp)
80000d7c:	00050413          	mv	s0,a0
80000d80:	00060a93          	mv	s5,a2
80000d84:	00068493          	mv	s1,a3
80000d88:	00070a13          	mv	s4,a4
80000d8c:	00078913          	mv	s2,a5
80000d90:	00080993          	mv	s3,a6
80000d94:	00058613          	mv	a2,a1
80000d98:	01200593          	li	a1,18
80000d9c:	e24ff0ef          	jal	800003c0 <_ZN2SD11sendCommandEmm>
80000da0:	00098693          	mv	a3,s3
80000da4:	00090613          	mv	a2,s2
80000da8:	000a0593          	mv	a1,s4
80000dac:	00040513          	mv	a0,s0
80000db0:	ea0ff0ef          	jal	80000450 <_ZN2SD12readResponseEPhRbS1_>
80000db4:	00094783          	lbu	a5,0(s2)
80000db8:	08079863          	bnez	a5,80000e48 <_ZN2SD9readBurstEmmPmPhRbS2_+0xec>
80000dbc:	0009c783          	lbu	a5,0(s3)
80000dc0:	08079463          	bnez	a5,80000e48 <_ZN2SD9readBurstEmmPmPhRbS2_+0xec>
80000dc4:	060a8263          	beqz	s5,80000e28 <_ZN2SD9readBurstEmmPmPhRbS2_+0xcc>
80000dc8:	000a8813          	mv	a6,s5
80000dcc:	00000513          	li	a0,0
80000dd0:	0440006f          	j	80000e14 <_ZN2SD9readBurstEmmPmPhRbS2_+0xb8>
80000dd4:	00060593          	mv	a1,a2
80000dd8:	04042783          	lw	a5,64(s0)
80000ddc:	0007a783          	lw	a5,0(a5)
80000de0:	48a7d793          	bexti	a5,a5,0xa
80000de4:	fe079ae3          	bnez	a5,80000dd8 <_ZN2SD9readBurstEmmPmPhRbS2_+0x7c>
80000de8:	05442783          	lw	a5,84(s0)
80000dec:	0007a783          	lw	a5,0(a5)
80000df0:	02e68733          	mul	a4,a3,a4
80000df4:	00b70733          	add	a4,a4,a1
80000df8:	20974733          	sh2add	a4,a4,s1
80000dfc:	00f72023          	sw	a5,0(a4)
80000e00:	00160613          	addi	a2,a2,1
80000e04:	00042703          	lw	a4,0(s0)
80000e08:	fce666e3          	bltu	a2,a4,80000dd4 <_ZN2SD9readBurstEmmPmPhRbS2_+0x78>
80000e0c:	00150513          	addi	a0,a0,1
80000e10:	01050c63          	beq	a0,a6,80000e28 <_ZN2SD9readBurstEmmPmPhRbS2_+0xcc>
80000e14:	00050693          	mv	a3,a0
80000e18:	00042703          	lw	a4,0(s0)
80000e1c:	00000613          	li	a2,0
80000e20:	fa071ae3          	bnez	a4,80000dd4 <_ZN2SD9readBurstEmmPmPhRbS2_+0x78>
80000e24:	fe9ff06f          	j	80000e0c <_ZN2SD9readBurstEmmPmPhRbS2_+0xb0>
80000e28:	00000613          	li	a2,0
80000e2c:	00c00593          	li	a1,12
80000e30:	00040513          	mv	a0,s0
80000e34:	d8cff0ef          	jal	800003c0 <_ZN2SD11sendCommandEmm>
80000e38:	00040513          	mv	a0,s0
80000e3c:	dc8ff0ef          	jal	80000404 <_ZN2SD19flushResponseBufferEv>
80000e40:	00040513          	mv	a0,s0
80000e44:	fbcff0ef          	jal	80000600 <_ZN2SD15flushDataBufferEv>
80000e48:	00040513          	mv	a0,s0
80000e4c:	01c12083          	lw	ra,28(sp)
80000e50:	01812403          	lw	s0,24(sp)
80000e54:	01412483          	lw	s1,20(sp)
80000e58:	01012903          	lw	s2,16(sp)
80000e5c:	00c12983          	lw	s3,12(sp)
80000e60:	00812a03          	lw	s4,8(sp)
80000e64:	00412a83          	lw	s5,4(sp)
80000e68:	02010113          	addi	sp,sp,32
80000e6c:	00008067          	ret

80000e70 <_ZN2SD10writeBurstEmmPmPhS1_RbS2_>:
80000e70:	fe010113          	addi	sp,sp,-32
80000e74:	00112e23          	sw	ra,28(sp)
80000e78:	00812c23          	sw	s0,24(sp)
80000e7c:	00912a23          	sw	s1,20(sp)
80000e80:	01212823          	sw	s2,16(sp)
80000e84:	01312623          	sw	s3,12(sp)
80000e88:	01412423          	sw	s4,8(sp)
80000e8c:	01512223          	sw	s5,4(sp)
80000e90:	01612023          	sw	s6,0(sp)
80000e94:	00050413          	mv	s0,a0
80000e98:	00060993          	mv	s3,a2
80000e9c:	00068493          	mv	s1,a3
80000ea0:	00070b13          	mv	s6,a4
80000ea4:	00078913          	mv	s2,a5
80000ea8:	00080a13          	mv	s4,a6
80000eac:	00088a93          	mv	s5,a7
80000eb0:	00052503          	lw	a0,0(a0)
80000eb4:	02050463          	beqz	a0,80000edc <_ZN2SD10writeBurstEmmPmPhS1_RbS2_+0x6c>
80000eb8:	00000793          	li	a5,0
80000ebc:	05842303          	lw	t1,88(s0)
80000ec0:	00a78533          	add	a0,a5,a0
80000ec4:	20954533          	sh2add	a0,a0,s1
80000ec8:	00052703          	lw	a4,0(a0)
80000ecc:	00e32023          	sw	a4,0(t1)
80000ed0:	00178793          	addi	a5,a5,1
80000ed4:	00042503          	lw	a0,0(s0)
80000ed8:	fea7e2e3          	bltu	a5,a0,80000ebc <_ZN2SD10writeBurstEmmPmPhS1_RbS2_+0x4c>
80000edc:	00058613          	mv	a2,a1
80000ee0:	01900593          	li	a1,25
80000ee4:	00040513          	mv	a0,s0
80000ee8:	cd8ff0ef          	jal	800003c0 <_ZN2SD11sendCommandEmm>
80000eec:	000a8693          	mv	a3,s5
80000ef0:	000a0613          	mv	a2,s4
80000ef4:	000b0593          	mv	a1,s6
80000ef8:	00040513          	mv	a0,s0
80000efc:	d54ff0ef          	jal	80000450 <_ZN2SD12readResponseEPhRbS1_>
80000f00:	000a4783          	lbu	a5,0(s4)
80000f04:	0a079a63          	bnez	a5,80000fb8 <_ZN2SD10writeBurstEmmPmPhS1_RbS2_+0x148>
80000f08:	000ac783          	lbu	a5,0(s5)
80000f0c:	0a079663          	bnez	a5,80000fb8 <_ZN2SD10writeBurstEmmPmPhS1_RbS2_+0x148>
80000f10:	00100793          	li	a5,1
80000f14:	00098513          	mv	a0,s3
80000f18:	00078613          	mv	a2,a5
80000f1c:	0737f263          	bgeu	a5,s3,80000f80 <_ZN2SD10writeBurstEmmPmPhS1_RbS2_+0x110>
80000f20:	00060693          	mv	a3,a2
80000f24:	04042703          	lw	a4,64(s0)
80000f28:	00072703          	lw	a4,0(a4)
80000f2c:	01371793          	slli	a5,a4,0x13
80000f30:	fe07dae3          	bgez	a5,80000f24 <_ZN2SD10writeBurstEmmPmPhS1_RbS2_+0xb4>
80000f34:	04042783          	lw	a5,64(s0)
80000f38:	0007a783          	lw	a5,0(a5)
80000f3c:	00d7d793          	srli	a5,a5,0xd
80000f40:	00d90733          	add	a4,s2,a3
80000f44:	00f70023          	sb	a5,0(a4)
80000f48:	00042703          	lw	a4,0(s0)
80000f4c:	02070663          	beqz	a4,80000f78 <_ZN2SD10writeBurstEmmPmPhS1_RbS2_+0x108>
80000f50:	00000593          	li	a1,0
80000f54:	05842783          	lw	a5,88(s0)
80000f58:	02e68733          	mul	a4,a3,a4
80000f5c:	00b70733          	add	a4,a4,a1
80000f60:	20974733          	sh2add	a4,a4,s1
80000f64:	00072703          	lw	a4,0(a4)
80000f68:	00e7a023          	sw	a4,0(a5)
80000f6c:	00158593          	addi	a1,a1,1
80000f70:	00042703          	lw	a4,0(s0)
80000f74:	fee5e0e3          	bltu	a1,a4,80000f54 <_ZN2SD10writeBurstEmmPmPhS1_RbS2_+0xe4>
80000f78:	00160613          	addi	a2,a2,1
80000f7c:	faa612e3          	bne	a2,a0,80000f20 <_ZN2SD10writeBurstEmmPmPhS1_RbS2_+0xb0>
80000f80:	00000613          	li	a2,0
80000f84:	00c00593          	li	a1,12
80000f88:	00040513          	mv	a0,s0
80000f8c:	c34ff0ef          	jal	800003c0 <_ZN2SD11sendCommandEmm>
80000f90:	04042783          	lw	a5,64(s0)
80000f94:	0007a783          	lw	a5,0(a5)
80000f98:	00d7d793          	srli	a5,a5,0xd
80000f9c:	01390933          	add	s2,s2,s3
80000fa0:	fef90fa3          	sb	a5,-1(s2)
80000fa4:	00040513          	mv	a0,s0
80000fa8:	c5cff0ef          	jal	80000404 <_ZN2SD19flushResponseBufferEv>
80000fac:	00040513          	mv	a0,s0
80000fb0:	e50ff0ef          	jal	80000600 <_ZN2SD15flushDataBufferEv>
80000fb4:	0140006f          	j	80000fc8 <_ZN2SD10writeBurstEmmPmPhS1_RbS2_+0x158>
80000fb8:	03c42703          	lw	a4,60(s0)
80000fbc:	00072783          	lw	a5,0(a4)
80000fc0:	28c79793          	bseti	a5,a5,0xc
80000fc4:	00f72023          	sw	a5,0(a4)
80000fc8:	00040513          	mv	a0,s0
80000fcc:	01c12083          	lw	ra,28(sp)
80000fd0:	01812403          	lw	s0,24(sp)
80000fd4:	01412483          	lw	s1,20(sp)
80000fd8:	01012903          	lw	s2,16(sp)
80000fdc:	00c12983          	lw	s3,12(sp)
80000fe0:	00812a03          	lw	s4,8(sp)
80000fe4:	00412a83          	lw	s5,4(sp)
80000fe8:	00012b03          	lw	s6,0(sp)
80000fec:	02010113          	addi	sp,sp,32
80000ff0:	00008067          	ret

80000ff4 <_ZN5TimerC1Em>:
80000ff4:	000017b7          	lui	a5,0x1
80000ff8:	c0078793          	addi	a5,a5,-1024 # c00 <copy_loop+0xbdc>
80000ffc:	00f585b3          	add	a1,a1,a5
80001000:	00359593          	slli	a1,a1,0x3
80001004:	00b52023          	sw	a1,0(a0)
80001008:	00858793          	addi	a5,a1,8
8000100c:	00f52223          	sw	a5,4(a0)
80001010:	00b52423          	sw	a1,8(a0)
80001014:	01058793          	addi	a5,a1,16
80001018:	00f52623          	sw	a5,12(a0)
8000101c:	00c52703          	lw	a4,12(a0)
80001020:	00072783          	lw	a5,0(a4)
80001024:	ffe7f793          	andi	a5,a5,-2
80001028:	00f72023          	sw	a5,0(a4)
8000102c:	00c52703          	lw	a4,12(a0)
80001030:	00072783          	lw	a5,0(a4)
80001034:	ffb7f793          	andi	a5,a5,-5
80001038:	00f72023          	sw	a5,0(a4)
8000103c:	00000793          	li	a5,0
80001040:	00000813          	li	a6,0
80001044:	00f5a423          	sw	a5,8(a1)
80001048:	0105a623          	sw	a6,12(a1)
8000104c:	00852783          	lw	a5,8(a0)
80001050:	fff00613          	li	a2,-1
80001054:	fff00693          	li	a3,-1
80001058:	00c7a023          	sw	a2,0(a5)
8000105c:	00d7a223          	sw	a3,4(a5)
80001060:	00c52703          	lw	a4,12(a0)
80001064:	00072783          	lw	a5,0(a4)
80001068:	ffd7f793          	andi	a5,a5,-3
8000106c:	00f72023          	sw	a5,0(a4)
80001070:	00008067          	ret

80001074 <_ZN5TimerD1Ev>:
80001074:	00c52703          	lw	a4,12(a0)
80001078:	00072783          	lw	a5,0(a4)
8000107c:	ffe7f793          	andi	a5,a5,-2
80001080:	00f72023          	sw	a5,0(a4)
80001084:	00c52703          	lw	a4,12(a0)
80001088:	00072783          	lw	a5,0(a4)
8000108c:	ffb7f793          	andi	a5,a5,-5
80001090:	00f72023          	sw	a5,0(a4)
80001094:	00452783          	lw	a5,4(a0)
80001098:	00000693          	li	a3,0
8000109c:	00000713          	li	a4,0
800010a0:	00d7a023          	sw	a3,0(a5)
800010a4:	00e7a223          	sw	a4,4(a5)
800010a8:	00852783          	lw	a5,8(a0)
800010ac:	fff00613          	li	a2,-1
800010b0:	fff00693          	li	a3,-1
800010b4:	00c7a023          	sw	a2,0(a5)
800010b8:	00d7a223          	sw	a3,4(a5)
800010bc:	00c52703          	lw	a4,12(a0)
800010c0:	00072783          	lw	a5,0(a4)
800010c4:	ffd7f793          	andi	a5,a5,-3
800010c8:	00f72023          	sw	a5,0(a4)
800010cc:	00008067          	ret

800010d0 <_ZN5Timer4initEyNS_11timerMode_eE>:
800010d0:	00060893          	mv	a7,a2
800010d4:	00c52603          	lw	a2,12(a0)
800010d8:	00062703          	lw	a4,0(a2)
800010dc:	ffb77713          	andi	a4,a4,-5
800010e0:	00e62023          	sw	a4,0(a2)
800010e4:	00852703          	lw	a4,8(a0)
800010e8:	00b72023          	sw	a1,0(a4)
800010ec:	01172223          	sw	a7,4(a4)
800010f0:	00c52603          	lw	a2,12(a0)
800010f4:	0016f693          	andi	a3,a3,1
800010f8:	00169693          	slli	a3,a3,0x1
800010fc:	00062703          	lw	a4,0(a2)
80001100:	ffd77713          	andi	a4,a4,-3
80001104:	00d76733          	or	a4,a4,a3
80001108:	00e62023          	sw	a4,0(a2)
8000110c:	00452783          	lw	a5,4(a0)
80001110:	00000693          	li	a3,0
80001114:	00000713          	li	a4,0
80001118:	00d7a023          	sw	a3,0(a5)
8000111c:	00e7a223          	sw	a4,4(a5)
80001120:	00008067          	ret

80001124 <_ZNK5Timer7getTimeEv>:
80001124:	00452783          	lw	a5,4(a0)
80001128:	0007a503          	lw	a0,0(a5)
8000112c:	0047a583          	lw	a1,4(a5)
80001130:	00008067          	ret

80001134 <_ZN5Timer4stopEv>:
80001134:	00c52703          	lw	a4,12(a0)
80001138:	00072783          	lw	a5,0(a4)
8000113c:	ffe7f793          	andi	a5,a5,-2
80001140:	00f72023          	sw	a5,0(a4)
80001144:	00008067          	ret

80001148 <_ZN5Timer7restartEv>:
80001148:	00452703          	lw	a4,4(a0)
8000114c:	00000613          	li	a2,0
80001150:	00000693          	li	a3,0
80001154:	00c72023          	sw	a2,0(a4)
80001158:	00d72223          	sw	a3,4(a4)
8000115c:	00c52683          	lw	a3,12(a0)
80001160:	0006a703          	lw	a4,0(a3)
80001164:	ff777713          	andi	a4,a4,-9
80001168:	00e6a023          	sw	a4,0(a3)
8000116c:	00c52703          	lw	a4,12(a0)
80001170:	00072783          	lw	a5,0(a4)
80001174:	0017e793          	ori	a5,a5,1
80001178:	00f72023          	sw	a5,0(a4)
8000117c:	00008067          	ret

80001180 <_ZN9Serial_IO7vprintfEPKcPv>:
80001180:	f8010113          	addi	sp,sp,-128
80001184:	06112e23          	sw	ra,124(sp)
80001188:	06812c23          	sw	s0,120(sp)
8000118c:	00050413          	mv	s0,a0
80001190:	00054503          	lbu	a0,0(a0)
80001194:	1e0500e3          	beqz	a0,80001b74 <_ZN9Serial_IO7vprintfEPKcPv+0x9f4>
80001198:	06912a23          	sw	s1,116(sp)
8000119c:	07212823          	sw	s2,112(sp)
800011a0:	07312623          	sw	s3,108(sp)
800011a4:	07412423          	sw	s4,104(sp)
800011a8:	07512223          	sw	s5,100(sp)
800011ac:	07612023          	sw	s6,96(sp)
800011b0:	05712e23          	sw	s7,92(sp)
800011b4:	05812c23          	sw	s8,88(sp)
800011b8:	00058b93          	mv	s7,a1
800011bc:	00000b13          	li	s6,0
800011c0:	02500913          	li	s2,37
800011c4:	02e00a13          	li	s4,46
800011c8:	01600993          	li	s3,22
800011cc:	80003ab7          	lui	s5,0x80003
800011d0:	1350006f          	j	80001b04 <_ZN9Serial_IO7vprintfEPKcPv+0x984>
800011d4:	004b8c13          	addi	s8,s7,4
800011d8:	000bab03          	lw	s6,0(s7)
800011dc:	41fb5b93          	srai	s7,s6,0x1f
800011e0:	120b4463          	bltz	s6,80001308 <_ZN9Serial_IO7vprintfEPKcPv+0x188>
800011e4:	00000593          	li	a1,0
800011e8:	ccccd6b7          	lui	a3,0xccccd
800011ec:	ccd68693          	addi	a3,a3,-819 # cccccccd <_ZN9Serial_IO6statusE+0x4ccc9ebd>
800011f0:	ccccd637          	lui	a2,0xccccd
800011f4:	ccc60613          	addi	a2,a2,-820 # cccccccc <_ZN9Serial_IO6statusE+0x4ccc9ebc>
800011f8:	00010513          	mv	a0,sp
800011fc:	017b07b3          	add	a5,s6,s7
80001200:	0167b733          	sltu	a4,a5,s6
80001204:	00e787b3          	add	a5,a5,a4
80001208:	02d7b733          	mulhu	a4,a5,a3
8000120c:	00275813          	srli	a6,a4,0x2
80001210:	ffc77713          	andi	a4,a4,-4
80001214:	01070733          	add	a4,a4,a6
80001218:	40e787b3          	sub	a5,a5,a4
8000121c:	40fb07b3          	sub	a5,s6,a5
80001220:	02d787b3          	mul	a5,a5,a3
80001224:	0017d793          	srli	a5,a5,0x1
80001228:	20f7c7b3          	sh2add	a5,a5,a5
8000122c:	00179793          	slli	a5,a5,0x1
80001230:	40fb07b3          	sub	a5,s6,a5
80001234:	03078793          	addi	a5,a5,48
80001238:	000b0313          	mv	t1,s6
8000123c:	000b8893          	mv	a7,s7
80001240:	017b0733          	add	a4,s6,s7
80001244:	01673833          	sltu	a6,a4,s6
80001248:	01070733          	add	a4,a4,a6
8000124c:	02d73833          	mulhu	a6,a4,a3
80001250:	00285e13          	srli	t3,a6,0x2
80001254:	ffc87813          	andi	a6,a6,-4
80001258:	01c80833          	add	a6,a6,t3
8000125c:	41070733          	sub	a4,a4,a6
80001260:	40eb0733          	sub	a4,s6,a4
80001264:	00eb3833          	sltu	a6,s6,a4
80001268:	410b8833          	sub	a6,s7,a6
8000126c:	02d80833          	mul	a6,a6,a3
80001270:	02c70e33          	mul	t3,a4,a2
80001274:	01c80833          	add	a6,a6,t3
80001278:	02d70e33          	mul	t3,a4,a3
8000127c:	02d73733          	mulhu	a4,a4,a3
80001280:	00e80733          	add	a4,a6,a4
80001284:	01f71b13          	slli	s6,a4,0x1f
80001288:	001e5813          	srli	a6,t3,0x1
8000128c:	010b6b33          	or	s6,s6,a6
80001290:	00175b93          	srli	s7,a4,0x1
80001294:	00058813          	mv	a6,a1
80001298:	00158593          	addi	a1,a1,1
8000129c:	00b50733          	add	a4,a0,a1
800012a0:	fef70fa3          	sb	a5,-1(a4)
800012a4:	f4089ce3          	bnez	a7,800011fc <_ZN9Serial_IO7vprintfEPKcPv+0x7c>
800012a8:	00089663          	bnez	a7,800012b4 <_ZN9Serial_IO7vprintfEPKcPv+0x134>
800012ac:	00900793          	li	a5,9
800012b0:	f467e6e3          	bltu	a5,t1,800011fc <_ZN9Serial_IO7vprintfEPKcPv+0x7c>
800012b4:	0015d893          	srli	a7,a1,0x1
800012b8:	00100793          	li	a5,1
800012bc:	02b7f863          	bgeu	a5,a1,800012ec <_ZN9Serial_IO7vprintfEPKcPv+0x16c>
800012c0:	010107b3          	add	a5,sp,a6
800012c4:	00010713          	mv	a4,sp
800012c8:	00078513          	mv	a0,a5
800012cc:	0007c683          	lbu	a3,0(a5)
800012d0:	00074603          	lbu	a2,0(a4)
800012d4:	00c78023          	sb	a2,0(a5)
800012d8:	00d70023          	sb	a3,0(a4)
800012dc:	fff78793          	addi	a5,a5,-1
800012e0:	00170713          	addi	a4,a4,1
800012e4:	40f506b3          	sub	a3,a0,a5
800012e8:	ff16e2e3          	bltu	a3,a7,800012cc <_ZN9Serial_IO7vprintfEPKcPv+0x14c>
800012ec:	00010513          	mv	a0,sp
800012f0:	e1dfe0ef          	jal	8000010c <_ZN9Serial_IO5writeEPKcm>
800012f4:	00000513          	li	a0,0
800012f8:	df1fe0ef          	jal	800000e8 <_ZN9Serial_IO5writeEc>
800012fc:	000c0b93          	mv	s7,s8
80001300:	00048b13          	mv	s6,s1
80001304:	7f00006f          	j	80001af4 <_ZN9Serial_IO7vprintfEPKcPv+0x974>
80001308:	016037b3          	snez	a5,s6
8000130c:	41700bb3          	neg	s7,s7
80001310:	40fb8bb3          	sub	s7,s7,a5
80001314:	41600b33          	neg	s6,s6
80001318:	02d00513          	li	a0,45
8000131c:	dcdfe0ef          	jal	800000e8 <_ZN9Serial_IO5writeEc>
80001320:	ec5ff06f          	j	800011e4 <_ZN9Serial_IO7vprintfEPKcPv+0x64>
80001324:	007b8793          	addi	a5,s7,7
80001328:	ff87f793          	andi	a5,a5,-8
8000132c:	00878b93          	addi	s7,a5,8
80001330:	0007a703          	lw	a4,0(a5)
80001334:	0047a783          	lw	a5,4(a5)
80001338:	00070b13          	mv	s6,a4
8000133c:	00078c13          	mv	s8,a5
80001340:	1207c263          	bltz	a5,80001464 <_ZN9Serial_IO7vprintfEPKcPv+0x2e4>
80001344:	00000593          	li	a1,0
80001348:	ccccd6b7          	lui	a3,0xccccd
8000134c:	ccd68693          	addi	a3,a3,-819 # cccccccd <_ZN9Serial_IO6statusE+0x4ccc9ebd>
80001350:	ccccd637          	lui	a2,0xccccd
80001354:	ccc60613          	addi	a2,a2,-820 # cccccccc <_ZN9Serial_IO6statusE+0x4ccc9ebc>
80001358:	00010513          	mv	a0,sp
8000135c:	018b07b3          	add	a5,s6,s8
80001360:	0167b733          	sltu	a4,a5,s6
80001364:	00e787b3          	add	a5,a5,a4
80001368:	02d7b733          	mulhu	a4,a5,a3
8000136c:	00275813          	srli	a6,a4,0x2
80001370:	ffc77713          	andi	a4,a4,-4
80001374:	01070733          	add	a4,a4,a6
80001378:	40e787b3          	sub	a5,a5,a4
8000137c:	40fb07b3          	sub	a5,s6,a5
80001380:	02d787b3          	mul	a5,a5,a3
80001384:	0017d793          	srli	a5,a5,0x1
80001388:	20f7c7b3          	sh2add	a5,a5,a5
8000138c:	00179793          	slli	a5,a5,0x1
80001390:	40fb07b3          	sub	a5,s6,a5
80001394:	03078793          	addi	a5,a5,48
80001398:	000b0313          	mv	t1,s6
8000139c:	000c0893          	mv	a7,s8
800013a0:	018b0733          	add	a4,s6,s8
800013a4:	01673833          	sltu	a6,a4,s6
800013a8:	01070733          	add	a4,a4,a6
800013ac:	02d73833          	mulhu	a6,a4,a3
800013b0:	00285e13          	srli	t3,a6,0x2
800013b4:	ffc87813          	andi	a6,a6,-4
800013b8:	01c80833          	add	a6,a6,t3
800013bc:	41070733          	sub	a4,a4,a6
800013c0:	40eb0733          	sub	a4,s6,a4
800013c4:	00eb3833          	sltu	a6,s6,a4
800013c8:	410c0833          	sub	a6,s8,a6
800013cc:	02d80833          	mul	a6,a6,a3
800013d0:	02c70e33          	mul	t3,a4,a2
800013d4:	01c80833          	add	a6,a6,t3
800013d8:	02d70e33          	mul	t3,a4,a3
800013dc:	02d73733          	mulhu	a4,a4,a3
800013e0:	00e80733          	add	a4,a6,a4
800013e4:	01f71b13          	slli	s6,a4,0x1f
800013e8:	001e5813          	srli	a6,t3,0x1
800013ec:	010b6b33          	or	s6,s6,a6
800013f0:	00175c13          	srli	s8,a4,0x1
800013f4:	00058813          	mv	a6,a1
800013f8:	00158593          	addi	a1,a1,1
800013fc:	00b50733          	add	a4,a0,a1
80001400:	fef70fa3          	sb	a5,-1(a4)
80001404:	f4089ce3          	bnez	a7,8000135c <_ZN9Serial_IO7vprintfEPKcPv+0x1dc>
80001408:	00089663          	bnez	a7,80001414 <_ZN9Serial_IO7vprintfEPKcPv+0x294>
8000140c:	00900793          	li	a5,9
80001410:	f467e6e3          	bltu	a5,t1,8000135c <_ZN9Serial_IO7vprintfEPKcPv+0x1dc>
80001414:	0015d893          	srli	a7,a1,0x1
80001418:	00100793          	li	a5,1
8000141c:	02b7f863          	bgeu	a5,a1,8000144c <_ZN9Serial_IO7vprintfEPKcPv+0x2cc>
80001420:	010107b3          	add	a5,sp,a6
80001424:	00010713          	mv	a4,sp
80001428:	00078513          	mv	a0,a5
8000142c:	0007c683          	lbu	a3,0(a5)
80001430:	00074603          	lbu	a2,0(a4)
80001434:	00c78023          	sb	a2,0(a5)
80001438:	00d70023          	sb	a3,0(a4)
8000143c:	fff78793          	addi	a5,a5,-1
80001440:	00170713          	addi	a4,a4,1
80001444:	40f506b3          	sub	a3,a0,a5
80001448:	ff16e2e3          	bltu	a3,a7,8000142c <_ZN9Serial_IO7vprintfEPKcPv+0x2ac>
8000144c:	00010513          	mv	a0,sp
80001450:	cbdfe0ef          	jal	8000010c <_ZN9Serial_IO5writeEPKcm>
80001454:	00000513          	li	a0,0
80001458:	c91fe0ef          	jal	800000e8 <_ZN9Serial_IO5writeEc>
8000145c:	00048b13          	mv	s6,s1
80001460:	6940006f          	j	80001af4 <_ZN9Serial_IO7vprintfEPKcPv+0x974>
80001464:	00e03c33          	snez	s8,a4
80001468:	40f007b3          	neg	a5,a5
8000146c:	40e00b33          	neg	s6,a4
80001470:	41878c33          	sub	s8,a5,s8
80001474:	02d00513          	li	a0,45
80001478:	c71fe0ef          	jal	800000e8 <_ZN9Serial_IO5writeEc>
8000147c:	ec9ff06f          	j	80001344 <_ZN9Serial_IO7vprintfEPKcPv+0x1c4>
80001480:	004b8b13          	addi	s6,s7,4
80001484:	000ba683          	lw	a3,0(s7)
80001488:	00000893          	li	a7,0
8000148c:	00000593          	li	a1,0
80001490:	ccccd637          	lui	a2,0xccccd
80001494:	ccd60613          	addi	a2,a2,-819 # cccccccd <_ZN9Serial_IO6statusE+0x4ccc9ebd>
80001498:	ccccd537          	lui	a0,0xccccd
8000149c:	ccc50513          	addi	a0,a0,-820 # cccccccc <_ZN9Serial_IO6statusE+0x4ccc9ebc>
800014a0:	00010813          	mv	a6,sp
800014a4:	011687b3          	add	a5,a3,a7
800014a8:	00d7b733          	sltu	a4,a5,a3
800014ac:	00e787b3          	add	a5,a5,a4
800014b0:	02c7b733          	mulhu	a4,a5,a2
800014b4:	00275313          	srli	t1,a4,0x2
800014b8:	ffc77713          	andi	a4,a4,-4
800014bc:	00670733          	add	a4,a4,t1
800014c0:	40e787b3          	sub	a5,a5,a4
800014c4:	40f687b3          	sub	a5,a3,a5
800014c8:	02c787b3          	mul	a5,a5,a2
800014cc:	0017d793          	srli	a5,a5,0x1
800014d0:	20f7c7b3          	sh2add	a5,a5,a5
800014d4:	00179793          	slli	a5,a5,0x1
800014d8:	40f687b3          	sub	a5,a3,a5
800014dc:	03078793          	addi	a5,a5,48
800014e0:	00068e93          	mv	t4,a3
800014e4:	00088e13          	mv	t3,a7
800014e8:	01168733          	add	a4,a3,a7
800014ec:	00d73333          	sltu	t1,a4,a3
800014f0:	00670733          	add	a4,a4,t1
800014f4:	02c73333          	mulhu	t1,a4,a2
800014f8:	00235f13          	srli	t5,t1,0x2
800014fc:	ffc37313          	andi	t1,t1,-4
80001500:	01e30333          	add	t1,t1,t5
80001504:	40670733          	sub	a4,a4,t1
80001508:	40e68733          	sub	a4,a3,a4
8000150c:	00e6b6b3          	sltu	a3,a3,a4
80001510:	40d886b3          	sub	a3,a7,a3
80001514:	02c686b3          	mul	a3,a3,a2
80001518:	02a708b3          	mul	a7,a4,a0
8000151c:	011686b3          	add	a3,a3,a7
80001520:	02c708b3          	mul	a7,a4,a2
80001524:	02c73733          	mulhu	a4,a4,a2
80001528:	00e68733          	add	a4,a3,a4
8000152c:	01f71693          	slli	a3,a4,0x1f
80001530:	0018d893          	srli	a7,a7,0x1
80001534:	0116e6b3          	or	a3,a3,a7
80001538:	00175893          	srli	a7,a4,0x1
8000153c:	00058313          	mv	t1,a1
80001540:	00158593          	addi	a1,a1,1
80001544:	00b80733          	add	a4,a6,a1
80001548:	fef70fa3          	sb	a5,-1(a4)
8000154c:	f40e1ce3          	bnez	t3,800014a4 <_ZN9Serial_IO7vprintfEPKcPv+0x324>
80001550:	000e1663          	bnez	t3,8000155c <_ZN9Serial_IO7vprintfEPKcPv+0x3dc>
80001554:	00900793          	li	a5,9
80001558:	f5d7e6e3          	bltu	a5,t4,800014a4 <_ZN9Serial_IO7vprintfEPKcPv+0x324>
8000155c:	0015d813          	srli	a6,a1,0x1
80001560:	00100793          	li	a5,1
80001564:	02b7f863          	bgeu	a5,a1,80001594 <_ZN9Serial_IO7vprintfEPKcPv+0x414>
80001568:	006107b3          	add	a5,sp,t1
8000156c:	00010713          	mv	a4,sp
80001570:	00078513          	mv	a0,a5
80001574:	0007c683          	lbu	a3,0(a5)
80001578:	00074603          	lbu	a2,0(a4)
8000157c:	00c78023          	sb	a2,0(a5)
80001580:	00d70023          	sb	a3,0(a4)
80001584:	fff78793          	addi	a5,a5,-1
80001588:	00170713          	addi	a4,a4,1
8000158c:	40f506b3          	sub	a3,a0,a5
80001590:	ff06e2e3          	bltu	a3,a6,80001574 <_ZN9Serial_IO7vprintfEPKcPv+0x3f4>
80001594:	00010513          	mv	a0,sp
80001598:	b75fe0ef          	jal	8000010c <_ZN9Serial_IO5writeEPKcm>
8000159c:	00000513          	li	a0,0
800015a0:	b49fe0ef          	jal	800000e8 <_ZN9Serial_IO5writeEc>
800015a4:	000b0b93          	mv	s7,s6
800015a8:	00048b13          	mv	s6,s1
800015ac:	5480006f          	j	80001af4 <_ZN9Serial_IO7vprintfEPKcPv+0x974>
800015b0:	002b0b13          	addi	s6,s6,2
800015b4:	016407b3          	add	a5,s0,s6
800015b8:	0007c783          	lbu	a5,0(a5)
800015bc:	06400713          	li	a4,100
800015c0:	0ce78a63          	beq	a5,a4,80001694 <_ZN9Serial_IO7vprintfEPKcPv+0x514>
800015c4:	06800713          	li	a4,104
800015c8:	02e78063          	beq	a5,a4,800015e8 <_ZN9Serial_IO7vprintfEPKcPv+0x468>
800015cc:	06200713          	li	a4,98
800015d0:	16e79e63          	bne	a5,a4,8000174c <_ZN9Serial_IO7vprintfEPKcPv+0x5cc>
800015d4:	004b8493          	addi	s1,s7,4
800015d8:	000bc503          	lbu	a0,0(s7)
800015dc:	b6dfe0ef          	jal	80000148 <_ZN9Serial_IO6writeHIhEEvT_>
800015e0:	00048b93          	mv	s7,s1
800015e4:	5100006f          	j	80001af4 <_ZN9Serial_IO7vprintfEPKcPv+0x974>
800015e8:	004b8493          	addi	s1,s7,4
800015ec:	000ba703          	lw	a4,0(s7)
800015f0:	01071793          	slli	a5,a4,0x10
800015f4:	0107d793          	srli	a5,a5,0x10
800015f8:	0047d693          	srli	a3,a5,0x4
800015fc:	00f6f693          	andi	a3,a3,15
80001600:	00f77713          	andi	a4,a4,15
80001604:	00900593          	li	a1,9
80001608:	03070613          	addi	a2,a4,48
8000160c:	00e5f463          	bgeu	a1,a4,80001614 <_ZN9Serial_IO7vprintfEPKcPv+0x494>
80001610:	03770613          	addi	a2,a4,55
80001614:	00c10023          	sb	a2,0(sp)
80001618:	00900613          	li	a2,9
8000161c:	03768713          	addi	a4,a3,55
80001620:	00d66463          	bltu	a2,a3,80001628 <_ZN9Serial_IO7vprintfEPKcPv+0x4a8>
80001624:	03068713          	addi	a4,a3,48
80001628:	00e100a3          	sb	a4,1(sp)
8000162c:	00c7d713          	srli	a4,a5,0xc
80001630:	0087d793          	srli	a5,a5,0x8
80001634:	00f7f793          	andi	a5,a5,15
80001638:	00900613          	li	a2,9
8000163c:	03078693          	addi	a3,a5,48
80001640:	00f67463          	bgeu	a2,a5,80001648 <_ZN9Serial_IO7vprintfEPKcPv+0x4c8>
80001644:	03778693          	addi	a3,a5,55
80001648:	00d10123          	sb	a3,2(sp)
8000164c:	00900693          	li	a3,9
80001650:	03770793          	addi	a5,a4,55
80001654:	00e6e463          	bltu	a3,a4,8000165c <_ZN9Serial_IO7vprintfEPKcPv+0x4dc>
80001658:	03070793          	addi	a5,a4,48
8000165c:	00014703          	lbu	a4,0(sp)
80001660:	00e101a3          	sb	a4,3(sp)
80001664:	00f10023          	sb	a5,0(sp)
80001668:	00214783          	lbu	a5,2(sp)
8000166c:	00114703          	lbu	a4,1(sp)
80001670:	00e10123          	sb	a4,2(sp)
80001674:	00f100a3          	sb	a5,1(sp)
80001678:	00400593          	li	a1,4
8000167c:	00010513          	mv	a0,sp
80001680:	a8dfe0ef          	jal	8000010c <_ZN9Serial_IO5writeEPKcm>
80001684:	00000513          	li	a0,0
80001688:	a61fe0ef          	jal	800000e8 <_ZN9Serial_IO5writeEc>
8000168c:	00048b93          	mv	s7,s1
80001690:	4640006f          	j	80001af4 <_ZN9Serial_IO7vprintfEPKcPv+0x974>
80001694:	007b8793          	addi	a5,s7,7
80001698:	ff87f793          	andi	a5,a5,-8
8000169c:	00878b93          	addi	s7,a5,8
800016a0:	0007a703          	lw	a4,0(a5)
800016a4:	0047a503          	lw	a0,4(a5)
800016a8:	00010593          	mv	a1,sp
800016ac:	01010893          	addi	a7,sp,16
800016b0:	00010693          	mv	a3,sp
800016b4:	00900813          	li	a6,9
800016b8:	0300006f          	j	800016e8 <_ZN9Serial_IO7vprintfEPKcPv+0x568>
800016bc:	03060613          	addi	a2,a2,48
800016c0:	00c68023          	sb	a2,0(a3)
800016c4:	03c0006f          	j	80001700 <_ZN9Serial_IO7vprintfEPKcPv+0x580>
800016c8:	03778793          	addi	a5,a5,55
800016cc:	00f680a3          	sb	a5,1(a3)
800016d0:	01851793          	slli	a5,a0,0x18
800016d4:	00875713          	srli	a4,a4,0x8
800016d8:	00e7e733          	or	a4,a5,a4
800016dc:	00855513          	srli	a0,a0,0x8
800016e0:	00268693          	addi	a3,a3,2
800016e4:	03168663          	beq	a3,a7,80001710 <_ZN9Serial_IO7vprintfEPKcPv+0x590>
800016e8:	00475793          	srli	a5,a4,0x4
800016ec:	00f7f793          	andi	a5,a5,15
800016f0:	00f77613          	andi	a2,a4,15
800016f4:	fcc874e3          	bgeu	a6,a2,800016bc <_ZN9Serial_IO7vprintfEPKcPv+0x53c>
800016f8:	03760613          	addi	a2,a2,55
800016fc:	00c68023          	sb	a2,0(a3)
80001700:	fcf864e3          	bltu	a6,a5,800016c8 <_ZN9Serial_IO7vprintfEPKcPv+0x548>
80001704:	03078793          	addi	a5,a5,48
80001708:	00f680a3          	sb	a5,1(a3)
8000170c:	fc5ff06f          	j	800016d0 <_ZN9Serial_IO7vprintfEPKcPv+0x550>
80001710:	00858613          	addi	a2,a1,8
80001714:	00058793          	mv	a5,a1
80001718:	00f5c703          	lbu	a4,15(a1)
8000171c:	0007c683          	lbu	a3,0(a5)
80001720:	00d587a3          	sb	a3,15(a1)
80001724:	00e78023          	sb	a4,0(a5)
80001728:	fff58593          	addi	a1,a1,-1
8000172c:	00178793          	addi	a5,a5,1
80001730:	fec794e3          	bne	a5,a2,80001718 <_ZN9Serial_IO7vprintfEPKcPv+0x598>
80001734:	01000593          	li	a1,16
80001738:	00010513          	mv	a0,sp
8000173c:	9d1fe0ef          	jal	8000010c <_ZN9Serial_IO5writeEPKcm>
80001740:	00000513          	li	a0,0
80001744:	9a5fe0ef          	jal	800000e8 <_ZN9Serial_IO5writeEc>
80001748:	3ac0006f          	j	80001af4 <_ZN9Serial_IO7vprintfEPKcPv+0x974>
8000174c:	004b8b13          	addi	s6,s7,4
80001750:	000ba503          	lw	a0,0(s7)
80001754:	a49fe0ef          	jal	8000019c <_ZN9Serial_IO6writeHImEEvT_>
80001758:	000b0b93          	mv	s7,s6
8000175c:	00048b13          	mv	s6,s1
80001760:	3940006f          	j	80001af4 <_ZN9Serial_IO7vprintfEPKcPv+0x974>
80001764:	002b0b13          	addi	s6,s6,2
80001768:	016407b3          	add	a5,s0,s6
8000176c:	0007c783          	lbu	a5,0(a5)
80001770:	06400713          	li	a4,100
80001774:	0ae78063          	beq	a5,a4,80001814 <_ZN9Serial_IO7vprintfEPKcPv+0x694>
80001778:	06800713          	li	a4,104
8000177c:	04e78863          	beq	a5,a4,800017cc <_ZN9Serial_IO7vprintfEPKcPv+0x64c>
80001780:	06200713          	li	a4,98
80001784:	0ee79663          	bne	a5,a4,80001870 <_ZN9Serial_IO7vprintfEPKcPv+0x6f0>
80001788:	004b8493          	addi	s1,s7,4
8000178c:	000bc683          	lbu	a3,0(s7)
80001790:	00010793          	mv	a5,sp
80001794:	ff810613          	addi	a2,sp,-8
80001798:	0016f713          	andi	a4,a3,1
8000179c:	03070713          	addi	a4,a4,48
800017a0:	00e783a3          	sb	a4,7(a5)
800017a4:	0016d693          	srli	a3,a3,0x1
800017a8:	fff78793          	addi	a5,a5,-1
800017ac:	fec796e3          	bne	a5,a2,80001798 <_ZN9Serial_IO7vprintfEPKcPv+0x618>
800017b0:	00800593          	li	a1,8
800017b4:	00010513          	mv	a0,sp
800017b8:	955fe0ef          	jal	8000010c <_ZN9Serial_IO5writeEPKcm>
800017bc:	00000513          	li	a0,0
800017c0:	929fe0ef          	jal	800000e8 <_ZN9Serial_IO5writeEc>
800017c4:	00048b93          	mv	s7,s1
800017c8:	32c0006f          	j	80001af4 <_ZN9Serial_IO7vprintfEPKcPv+0x974>
800017cc:	004b8493          	addi	s1,s7,4
800017d0:	000bd683          	lhu	a3,0(s7)
800017d4:	00f10793          	addi	a5,sp,15
800017d8:	00010613          	mv	a2,sp
800017dc:	0016f713          	andi	a4,a3,1
800017e0:	03070713          	addi	a4,a4,48
800017e4:	00e78023          	sb	a4,0(a5)
800017e8:	0016d693          	srli	a3,a3,0x1
800017ec:	00078713          	mv	a4,a5
800017f0:	fff78793          	addi	a5,a5,-1
800017f4:	fee614e3          	bne	a2,a4,800017dc <_ZN9Serial_IO7vprintfEPKcPv+0x65c>
800017f8:	01000593          	li	a1,16
800017fc:	00010513          	mv	a0,sp
80001800:	90dfe0ef          	jal	8000010c <_ZN9Serial_IO5writeEPKcm>
80001804:	00000513          	li	a0,0
80001808:	8e1fe0ef          	jal	800000e8 <_ZN9Serial_IO5writeEc>
8000180c:	00048b93          	mv	s7,s1
80001810:	2e40006f          	j	80001af4 <_ZN9Serial_IO7vprintfEPKcPv+0x974>
80001814:	007b8713          	addi	a4,s7,7
80001818:	ff877713          	andi	a4,a4,-8
8000181c:	00870b93          	addi	s7,a4,8
80001820:	00072783          	lw	a5,0(a4)
80001824:	00472603          	lw	a2,4(a4)
80001828:	03f10713          	addi	a4,sp,63
8000182c:	00010593          	mv	a1,sp
80001830:	0017f693          	andi	a3,a5,1
80001834:	03068693          	addi	a3,a3,48
80001838:	00d70023          	sb	a3,0(a4)
8000183c:	01f61693          	slli	a3,a2,0x1f
80001840:	0017d793          	srli	a5,a5,0x1
80001844:	00f6e7b3          	or	a5,a3,a5
80001848:	00165613          	srli	a2,a2,0x1
8000184c:	00070693          	mv	a3,a4
80001850:	fff70713          	addi	a4,a4,-1
80001854:	fcb69ee3          	bne	a3,a1,80001830 <_ZN9Serial_IO7vprintfEPKcPv+0x6b0>
80001858:	04000593          	li	a1,64
8000185c:	00010513          	mv	a0,sp
80001860:	8adfe0ef          	jal	8000010c <_ZN9Serial_IO5writeEPKcm>
80001864:	00000513          	li	a0,0
80001868:	881fe0ef          	jal	800000e8 <_ZN9Serial_IO5writeEc>
8000186c:	2880006f          	j	80001af4 <_ZN9Serial_IO7vprintfEPKcPv+0x974>
80001870:	004b8b13          	addi	s6,s7,4
80001874:	000ba683          	lw	a3,0(s7)
80001878:	01f10793          	addi	a5,sp,31
8000187c:	00010613          	mv	a2,sp
80001880:	0016f713          	andi	a4,a3,1
80001884:	03070713          	addi	a4,a4,48
80001888:	00e78023          	sb	a4,0(a5)
8000188c:	0016d693          	srli	a3,a3,0x1
80001890:	00078713          	mv	a4,a5
80001894:	fff78793          	addi	a5,a5,-1
80001898:	fec714e3          	bne	a4,a2,80001880 <_ZN9Serial_IO7vprintfEPKcPv+0x700>
8000189c:	02000593          	li	a1,32
800018a0:	00010513          	mv	a0,sp
800018a4:	869fe0ef          	jal	8000010c <_ZN9Serial_IO5writeEPKcm>
800018a8:	00000513          	li	a0,0
800018ac:	83dfe0ef          	jal	800000e8 <_ZN9Serial_IO5writeEc>
800018b0:	000b0b93          	mv	s7,s6
800018b4:	00048b13          	mv	s6,s1
800018b8:	23c0006f          	j	80001af4 <_ZN9Serial_IO7vprintfEPKcPv+0x974>
800018bc:	002b0b13          	addi	s6,s6,2
800018c0:	016407b3          	add	a5,s0,s6
800018c4:	0007c703          	lbu	a4,0(a5)
800018c8:	fd070793          	addi	a5,a4,-48
800018cc:	0ff7f793          	zext.b	a5,a5
800018d0:	00900693          	li	a3,9
800018d4:	04f6e263          	bltu	a3,a5,80001918 <_ZN9Serial_IO7vprintfEPKcPv+0x798>
800018d8:	00000493          	li	s1,0
800018dc:	2094c4b3          	sh2add	s1,s1,s1
800018e0:	20e4a4b3          	sh1add	s1,s1,a4
800018e4:	fd048493          	addi	s1,s1,-48
800018e8:	001b0b13          	addi	s6,s6,1
800018ec:	016407b3          	add	a5,s0,s6
800018f0:	0007c703          	lbu	a4,0(a5)
800018f4:	fd070793          	addi	a5,a4,-48
800018f8:	0ff7f793          	zext.b	a5,a5
800018fc:	fef6f0e3          	bgeu	a3,a5,800018dc <_ZN9Serial_IO7vprintfEPKcPv+0x75c>
80001900:	06600793          	li	a5,102
80001904:	00f70e63          	beq	a4,a5,80001920 <_ZN9Serial_IO7vprintfEPKcPv+0x7a0>
80001908:	80003537          	lui	a0,0x80003
8000190c:	93050513          	addi	a0,a0,-1744 # 80002930 <memset+0xdc>
80001910:	921fe0ef          	jal	80000230 <_ZN9Serial_IO5writeEPKc>
80001914:	1e00006f          	j	80001af4 <_ZN9Serial_IO7vprintfEPKcPv+0x974>
80001918:	00000493          	li	s1,0
8000191c:	fe5ff06f          	j	80001900 <_ZN9Serial_IO7vprintfEPKcPv+0x780>
80001920:	05912a23          	sw	s9,84(sp)
80001924:	05a12823          	sw	s10,80(sp)
80001928:	05b12623          	sw	s11,76(sp)
8000192c:	007b8793          	addi	a5,s7,7
80001930:	ff87f793          	andi	a5,a5,-8
80001934:	00878b93          	addi	s7,a5,8
80001938:	0007a503          	lw	a0,0(a5)
8000193c:	0047a583          	lw	a1,4(a5)
80001940:	42d000ef          	jal	8000256c <__truncdfsf2>
80001944:	00050c13          	mv	s8,a0
80001948:	00000793          	li	a5,0
8000194c:	a0f517d3          	flt.s	a5,a0,a5
80001950:	16079e63          	bnez	a5,80001acc <_ZN9Serial_IO7vprintfEPKcPv+0x94c>
80001954:	c00c1553          	fcvt.w.s	a0,s8,rtz
80001958:	d00577d3          	fcvt.s.w	a5,a0
8000195c:	08fc7c53          	fsub.s	s8,s8,a5
80001960:	00050693          	mv	a3,a0
80001964:	41f55513          	srai	a0,a0,0x1f
80001968:	00000593          	li	a1,0
8000196c:	ccccd637          	lui	a2,0xccccd
80001970:	ccd60613          	addi	a2,a2,-819 # cccccccd <_ZN9Serial_IO6statusE+0x4ccc9ebd>
80001974:	ccccd837          	lui	a6,0xccccd
80001978:	ccc80813          	addi	a6,a6,-820 # cccccccc <_ZN9Serial_IO6statusE+0x4ccc9ebc>
8000197c:	00010893          	mv	a7,sp
80001980:	00a687b3          	add	a5,a3,a0
80001984:	00d7b733          	sltu	a4,a5,a3
80001988:	00e787b3          	add	a5,a5,a4
8000198c:	02c7b733          	mulhu	a4,a5,a2
80001990:	00275313          	srli	t1,a4,0x2
80001994:	ffc77713          	andi	a4,a4,-4
80001998:	00670733          	add	a4,a4,t1
8000199c:	40e787b3          	sub	a5,a5,a4
800019a0:	40f687b3          	sub	a5,a3,a5
800019a4:	02c787b3          	mul	a5,a5,a2
800019a8:	0017d793          	srli	a5,a5,0x1
800019ac:	20f7c7b3          	sh2add	a5,a5,a5
800019b0:	00179793          	slli	a5,a5,0x1
800019b4:	40f687b3          	sub	a5,a3,a5
800019b8:	03078793          	addi	a5,a5,48
800019bc:	00068e13          	mv	t3,a3
800019c0:	00050313          	mv	t1,a0
800019c4:	00a68733          	add	a4,a3,a0
800019c8:	00d73eb3          	sltu	t4,a4,a3
800019cc:	01d70733          	add	a4,a4,t4
800019d0:	02c73eb3          	mulhu	t4,a4,a2
800019d4:	002edf13          	srli	t5,t4,0x2
800019d8:	ffcefe93          	andi	t4,t4,-4
800019dc:	01ee8eb3          	add	t4,t4,t5
800019e0:	41d70733          	sub	a4,a4,t4
800019e4:	40e68733          	sub	a4,a3,a4
800019e8:	00e6b6b3          	sltu	a3,a3,a4
800019ec:	40d506b3          	sub	a3,a0,a3
800019f0:	02c686b3          	mul	a3,a3,a2
800019f4:	03070533          	mul	a0,a4,a6
800019f8:	00a686b3          	add	a3,a3,a0
800019fc:	02c70533          	mul	a0,a4,a2
80001a00:	02c73733          	mulhu	a4,a4,a2
80001a04:	00e68733          	add	a4,a3,a4
80001a08:	01f71693          	slli	a3,a4,0x1f
80001a0c:	00155513          	srli	a0,a0,0x1
80001a10:	00a6e6b3          	or	a3,a3,a0
80001a14:	00175513          	srli	a0,a4,0x1
80001a18:	00058e93          	mv	t4,a1
80001a1c:	00158593          	addi	a1,a1,1
80001a20:	00b88733          	add	a4,a7,a1
80001a24:	fef70fa3          	sb	a5,-1(a4)
80001a28:	f4031ce3          	bnez	t1,80001980 <_ZN9Serial_IO7vprintfEPKcPv+0x800>
80001a2c:	00031663          	bnez	t1,80001a38 <_ZN9Serial_IO7vprintfEPKcPv+0x8b8>
80001a30:	00900793          	li	a5,9
80001a34:	f5c7e6e3          	bltu	a5,t3,80001980 <_ZN9Serial_IO7vprintfEPKcPv+0x800>
80001a38:	0015d813          	srli	a6,a1,0x1
80001a3c:	00100793          	li	a5,1
80001a40:	02b7f863          	bgeu	a5,a1,80001a70 <_ZN9Serial_IO7vprintfEPKcPv+0x8f0>
80001a44:	01d107b3          	add	a5,sp,t4
80001a48:	00010713          	mv	a4,sp
80001a4c:	00078513          	mv	a0,a5
80001a50:	0007c683          	lbu	a3,0(a5)
80001a54:	00074603          	lbu	a2,0(a4)
80001a58:	00c78023          	sb	a2,0(a5)
80001a5c:	00d70023          	sb	a3,0(a4)
80001a60:	fff78793          	addi	a5,a5,-1
80001a64:	00170713          	addi	a4,a4,1
80001a68:	40f506b3          	sub	a3,a0,a5
80001a6c:	ff06e2e3          	bltu	a3,a6,80001a50 <_ZN9Serial_IO7vprintfEPKcPv+0x8d0>
80001a70:	00010513          	mv	a0,sp
80001a74:	e98fe0ef          	jal	8000010c <_ZN9Serial_IO5writeEPKcm>
80001a78:	00000513          	li	a0,0
80001a7c:	e6cfe0ef          	jal	800000e8 <_ZN9Serial_IO5writeEc>
80001a80:	02e00513          	li	a0,46
80001a84:	e64fe0ef          	jal	800000e8 <_ZN9Serial_IO5writeEc>
80001a88:	0a048e63          	beqz	s1,80001b44 <_ZN9Serial_IO7vprintfEPKcPv+0x9c4>
80001a8c:	00000d13          	li	s10,0
80001a90:	800037b7          	lui	a5,0x80003
80001a94:	e087ad83          	lw	s11,-504(a5) # 80002e08 <memset+0x5b4>
80001a98:	11bc7c53          	fmul.s	s8,s8,s11
80001a9c:	c00c1cd3          	fcvt.w.s	s9,s8,rtz
80001aa0:	030c8513          	addi	a0,s9,48 # 40300030 <copy_loop+0x4030000c>
80001aa4:	0ff57513          	zext.b	a0,a0
80001aa8:	e40fe0ef          	jal	800000e8 <_ZN9Serial_IO5writeEc>
80001aac:	d00cfcd3          	fcvt.s.w	s9,s9
80001ab0:	099c7c53          	fsub.s	s8,s8,s9
80001ab4:	001d0d13          	addi	s10,s10,1
80001ab8:	fe9d10e3          	bne	s10,s1,80001a98 <_ZN9Serial_IO7vprintfEPKcPv+0x918>
80001abc:	05412c83          	lw	s9,84(sp)
80001ac0:	05012d03          	lw	s10,80(sp)
80001ac4:	04c12d83          	lw	s11,76(sp)
80001ac8:	02c0006f          	j	80001af4 <_ZN9Serial_IO7vprintfEPKcPv+0x974>
80001acc:	02d00513          	li	a0,45
80001ad0:	e18fe0ef          	jal	800000e8 <_ZN9Serial_IO5writeEc>
80001ad4:	218c1c53          	fneg.s	s8,s8
80001ad8:	e7dff06f          	j	80001954 <_ZN9Serial_IO7vprintfEPKcPv+0x7d4>
80001adc:	80003537          	lui	a0,0x80003
80001ae0:	93050513          	addi	a0,a0,-1744 # 80002930 <memset+0xdc>
80001ae4:	f4cfe0ef          	jal	80000230 <_ZN9Serial_IO5writeEPKc>
80001ae8:	00048b13          	mv	s6,s1
80001aec:	0080006f          	j	80001af4 <_ZN9Serial_IO7vprintfEPKcPv+0x974>
80001af0:	df8fe0ef          	jal	800000e8 <_ZN9Serial_IO5writeEc>
80001af4:	001b0b13          	addi	s6,s6,1
80001af8:	016407b3          	add	a5,s0,s6
80001afc:	0007c503          	lbu	a0,0(a5)
80001b00:	04050a63          	beqz	a0,80001b54 <_ZN9Serial_IO7vprintfEPKcPv+0x9d4>
80001b04:	ff2516e3          	bne	a0,s2,80001af0 <_ZN9Serial_IO7vprintfEPKcPv+0x970>
80001b08:	001b0493          	addi	s1,s6,1
80001b0c:	009407b3          	add	a5,s0,s1
80001b10:	0007c783          	lbu	a5,0(a5)
80001b14:	db4784e3          	beq	a5,s4,800018bc <_ZN9Serial_IO7vprintfEPKcPv+0x73c>
80001b18:	f9e78713          	addi	a4,a5,-98
80001b1c:	0ff77713          	zext.b	a4,a4
80001b20:	fae9eee3          	bltu	s3,a4,80001adc <_ZN9Serial_IO7vprintfEPKcPv+0x95c>
80001b24:	f9e78793          	addi	a5,a5,-98
80001b28:	0ff7f713          	zext.b	a4,a5
80001b2c:	fae9e8e3          	bltu	s3,a4,80001adc <_ZN9Serial_IO7vprintfEPKcPv+0x95c>
80001b30:	00070793          	mv	a5,a4
80001b34:	daca8713          	addi	a4,s5,-596 # 80002dac <memset+0x558>
80001b38:	20e7c7b3          	sh2add	a5,a5,a4
80001b3c:	0007a783          	lw	a5,0(a5)
80001b40:	00078067          	jr	a5
80001b44:	05412c83          	lw	s9,84(sp)
80001b48:	05012d03          	lw	s10,80(sp)
80001b4c:	04c12d83          	lw	s11,76(sp)
80001b50:	fa5ff06f          	j	80001af4 <_ZN9Serial_IO7vprintfEPKcPv+0x974>
80001b54:	07412483          	lw	s1,116(sp)
80001b58:	07012903          	lw	s2,112(sp)
80001b5c:	06c12983          	lw	s3,108(sp)
80001b60:	06812a03          	lw	s4,104(sp)
80001b64:	06412a83          	lw	s5,100(sp)
80001b68:	06012b03          	lw	s6,96(sp)
80001b6c:	05c12b83          	lw	s7,92(sp)
80001b70:	05812c03          	lw	s8,88(sp)
80001b74:	07c12083          	lw	ra,124(sp)
80001b78:	07812403          	lw	s0,120(sp)
80001b7c:	08010113          	addi	sp,sp,128
80001b80:	00008067          	ret

80001b84 <_ZN9Serial_IO6printfEPKcz>:
80001b84:	fc010113          	addi	sp,sp,-64
80001b88:	00112e23          	sw	ra,28(sp)
80001b8c:	02b12223          	sw	a1,36(sp)
80001b90:	02c12423          	sw	a2,40(sp)
80001b94:	02d12623          	sw	a3,44(sp)
80001b98:	02e12823          	sw	a4,48(sp)
80001b9c:	02f12a23          	sw	a5,52(sp)
80001ba0:	03012c23          	sw	a6,56(sp)
80001ba4:	03112e23          	sw	a7,60(sp)
80001ba8:	02410593          	addi	a1,sp,36
80001bac:	00b12623          	sw	a1,12(sp)
80001bb0:	dd0ff0ef          	jal	80001180 <_ZN9Serial_IO7vprintfEPKcPv>
80001bb4:	00000513          	li	a0,0
80001bb8:	d30fe0ef          	jal	800000e8 <_ZN9Serial_IO5writeEc>
80001bbc:	01c12083          	lw	ra,28(sp)
80001bc0:	04010113          	addi	sp,sp,64
80001bc4:	00008067          	ret

80001bc8 <_Z8testReadR2SDmR5Timer>:
80001bc8:	dd010113          	addi	sp,sp,-560
80001bcc:	22912223          	sw	s1,548(sp)
80001bd0:	01010493          	addi	s1,sp,16
80001bd4:	22812423          	sw	s0,552(sp)
80001bd8:	23212023          	sw	s2,544(sp)
80001bdc:	00060413          	mv	s0,a2
80001be0:	21312e23          	sw	s3,540(sp)
80001be4:	20000613          	li	a2,512
80001be8:	00050913          	mv	s2,a0
80001bec:	00058993          	mv	s3,a1
80001bf0:	00048513          	mv	a0,s1
80001bf4:	00000593          	li	a1,0
80001bf8:	22112623          	sw	ra,556(sp)
80001bfc:	459000ef          	jal	80002854 <memset>
80001c00:	00040513          	mv	a0,s0
80001c04:	000103a3          	sb	zero,7(sp)
80001c08:	00010323          	sb	zero,6(sp)
80001c0c:	d3cff0ef          	jal	80001148 <_ZN5Timer7restartEv>
80001c10:	00610793          	addi	a5,sp,6
80001c14:	00098593          	mv	a1,s3
80001c18:	00710713          	addi	a4,sp,7
80001c1c:	00048613          	mv	a2,s1
80001c20:	00000693          	li	a3,0
80001c24:	00090513          	mv	a0,s2
80001c28:	848ff0ef          	jal	80000c70 <_ZN2SD9readBlockEmPmPhRbS2_>
80001c2c:	00040513          	mv	a0,s0
80001c30:	d04ff0ef          	jal	80001134 <_ZN5Timer4stopEv>
80001c34:	00714783          	lbu	a5,7(sp)
80001c38:	12079a63          	bnez	a5,80001d6c <_Z8testReadR2SDmR5Timer+0x1a4>
80001c3c:	00614783          	lbu	a5,6(sp)
80001c40:	10079463          	bnez	a5,80001d48 <_Z8testReadR2SDmR5Timer+0x180>
80001c44:	00040513          	mv	a0,s0
80001c48:	cdcff0ef          	jal	80001124 <_ZNK5Timer7getTimeEv>
80001c4c:	00259713          	slli	a4,a1,0x2
80001c50:	01e55793          	srli	a5,a0,0x1e
80001c54:	20a54633          	sh2add	a2,a0,a0
80001c58:	00e7e733          	or	a4,a5,a4
80001c5c:	00251793          	slli	a5,a0,0x2
80001c60:	00b70733          	add	a4,a4,a1
80001c64:	00f637b3          	sltu	a5,a2,a5
80001c68:	00e787b3          	add	a5,a5,a4
80001c6c:	00179793          	slli	a5,a5,0x1
80001c70:	01f65693          	srli	a3,a2,0x1f
80001c74:	80003537          	lui	a0,0x80003
80001c78:	00f6e6b3          	or	a3,a3,a5
80001c7c:	00161613          	slli	a2,a2,0x1
80001c80:	97450513          	addi	a0,a0,-1676 # 80002974 <memset+0x120>
80001c84:	f01ff0ef          	jal	80001b84 <_ZN9Serial_IO6printfEPKcz>
80001c88:	80003537          	lui	a0,0x80003
80001c8c:	98850513          	addi	a0,a0,-1656 # 80002988 <memset+0x134>
80001c90:	da0fe0ef          	jal	80000230 <_ZN9Serial_IO5writeEPKc>
80001c94:	00048993          	mv	s3,s1
80001c98:	00c10913          	addi	s2,sp,12
80001c9c:	00900413          	li	s0,9
80001ca0:	0009a603          	lw	a2,0(s3)
80001ca4:	00810693          	addi	a3,sp,8
80001ca8:	00068713          	mv	a4,a3
80001cac:	00465793          	srli	a5,a2,0x4
80001cb0:	00f67593          	andi	a1,a2,15
80001cb4:	00f7f793          	andi	a5,a5,15
80001cb8:	03058513          	addi	a0,a1,48
80001cbc:	00b47463          	bgeu	s0,a1,80001cc4 <_Z8testReadR2SDmR5Timer+0xfc>
80001cc0:	03758513          	addi	a0,a1,55
80001cc4:	03078593          	addi	a1,a5,48
80001cc8:	00f47463          	bgeu	s0,a5,80001cd0 <_Z8testReadR2SDmR5Timer+0x108>
80001ccc:	03778593          	addi	a1,a5,55
80001cd0:	00a70023          	sb	a0,0(a4)
80001cd4:	00b700a3          	sb	a1,1(a4)
80001cd8:	00270713          	addi	a4,a4,2
80001cdc:	00865613          	srli	a2,a2,0x8
80001ce0:	fc9716e3          	bne	a4,s1,80001cac <_Z8testReadR2SDmR5Timer+0xe4>
80001ce4:	00810793          	addi	a5,sp,8
80001ce8:	0007c603          	lbu	a2,0(a5)
80001cec:	0076c703          	lbu	a4,7(a3)
80001cf0:	00178793          	addi	a5,a5,1
80001cf4:	00c683a3          	sb	a2,7(a3)
80001cf8:	fee78fa3          	sb	a4,-1(a5)
80001cfc:	fff68693          	addi	a3,a3,-1
80001d00:	fef914e3          	bne	s2,a5,80001ce8 <_Z8testReadR2SDmR5Timer+0x120>
80001d04:	00800593          	li	a1,8
80001d08:	00b10533          	add	a0,sp,a1
80001d0c:	c00fe0ef          	jal	8000010c <_ZN9Serial_IO5writeEPKcm>
80001d10:	00000513          	li	a0,0
80001d14:	bd4fe0ef          	jal	800000e8 <_ZN9Serial_IO5writeEc>
80001d18:	00498993          	addi	s3,s3,4
80001d1c:	21010793          	addi	a5,sp,528
80001d20:	f8f990e3          	bne	s3,a5,80001ca0 <_Z8testReadR2SDmR5Timer+0xd8>
80001d24:	22812403          	lw	s0,552(sp)
80001d28:	22c12083          	lw	ra,556(sp)
80001d2c:	22412483          	lw	s1,548(sp)
80001d30:	22012903          	lw	s2,544(sp)
80001d34:	21c12983          	lw	s3,540(sp)
80001d38:	80003537          	lui	a0,0x80003
80001d3c:	99850513          	addi	a0,a0,-1640 # 80002998 <memset+0x144>
80001d40:	23010113          	addi	sp,sp,560
80001d44:	cecfe06f          	j	80000230 <_ZN9Serial_IO5writeEPKc>
80001d48:	22812403          	lw	s0,552(sp)
80001d4c:	22c12083          	lw	ra,556(sp)
80001d50:	22412483          	lw	s1,548(sp)
80001d54:	22012903          	lw	s2,544(sp)
80001d58:	21c12983          	lw	s3,540(sp)
80001d5c:	80003537          	lui	a0,0x80003
80001d60:	96050513          	addi	a0,a0,-1696 # 80002960 <memset+0x10c>
80001d64:	23010113          	addi	sp,sp,560
80001d68:	cc8fe06f          	j	80000230 <_ZN9Serial_IO5writeEPKc>
80001d6c:	22812403          	lw	s0,552(sp)
80001d70:	22c12083          	lw	ra,556(sp)
80001d74:	22412483          	lw	s1,548(sp)
80001d78:	22012903          	lw	s2,544(sp)
80001d7c:	21c12983          	lw	s3,540(sp)
80001d80:	80003537          	lui	a0,0x80003
80001d84:	94c50513          	addi	a0,a0,-1716 # 8000294c <memset+0xf8>
80001d88:	23010113          	addi	sp,sp,560
80001d8c:	ca4fe06f          	j	80000230 <_ZN9Serial_IO5writeEPKc>

80001d90 <_Z13testBurstReadR2SDmR5Timer>:
80001d90:	fd010113          	addi	sp,sp,-48
80001d94:	ffffe2b7          	lui	t0,0xffffe
80001d98:	01312e23          	sw	s3,28(sp)
80001d9c:	02112623          	sw	ra,44(sp)
80001da0:	02812423          	sw	s0,40(sp)
80001da4:	02912223          	sw	s1,36(sp)
80001da8:	03212023          	sw	s2,32(sp)
80001dac:	00510133          	add	sp,sp,t0
80001db0:	01010993          	addi	s3,sp,16
80001db4:	00060413          	mv	s0,a2
80001db8:	00050493          	mv	s1,a0
80001dbc:	00002637          	lui	a2,0x2
80001dc0:	00058913          	mv	s2,a1
80001dc4:	00098513          	mv	a0,s3
80001dc8:	00000593          	li	a1,0
80001dcc:	289000ef          	jal	80002854 <memset>
80001dd0:	00040513          	mv	a0,s0
80001dd4:	fe098ba3          	sb	zero,-9(s3)
80001dd8:	fe098b23          	sb	zero,-10(s3)
80001ddc:	b6cff0ef          	jal	80001148 <_ZN5Timer7restartEv>
80001de0:	00710793          	addi	a5,sp,7
80001de4:	00090593          	mv	a1,s2
80001de8:	00610813          	addi	a6,sp,6
80001dec:	00098693          	mv	a3,s3
80001df0:	00000713          	li	a4,0
80001df4:	01000613          	li	a2,16
80001df8:	00048513          	mv	a0,s1
80001dfc:	f61fe0ef          	jal	80000d5c <_ZN2SD9readBurstEmmPmPhRbS2_>
80001e00:	00040513          	mv	a0,s0
80001e04:	b30ff0ef          	jal	80001134 <_ZN5Timer4stopEv>
80001e08:	ff79c783          	lbu	a5,-9(s3)
80001e0c:	12079c63          	bnez	a5,80001f44 <_Z13testBurstReadR2SDmR5Timer+0x1b4>
80001e10:	ff69c783          	lbu	a5,-10(s3)
80001e14:	12079263          	bnez	a5,80001f38 <_Z13testBurstReadR2SDmR5Timer+0x1a8>
80001e18:	00040513          	mv	a0,s0
80001e1c:	b08ff0ef          	jal	80001124 <_ZNK5Timer7getTimeEv>
80001e20:	00259713          	slli	a4,a1,0x2
80001e24:	01e55793          	srli	a5,a0,0x1e
80001e28:	20a54633          	sh2add	a2,a0,a0
80001e2c:	00e7e733          	or	a4,a5,a4
80001e30:	00251793          	slli	a5,a0,0x2
80001e34:	00b70733          	add	a4,a4,a1
80001e38:	00f637b3          	sltu	a5,a2,a5
80001e3c:	00e787b3          	add	a5,a5,a4
80001e40:	00179793          	slli	a5,a5,0x1
80001e44:	01f65693          	srli	a3,a2,0x1f
80001e48:	80003537          	lui	a0,0x80003
80001e4c:	00f6e6b3          	or	a3,a3,a5
80001e50:	00161613          	slli	a2,a2,0x1
80001e54:	9d050513          	addi	a0,a0,-1584 # 800029d0 <memset+0x17c>
80001e58:	d2dff0ef          	jal	80001b84 <_ZN9Serial_IO6printfEPKcz>
80001e5c:	80003537          	lui	a0,0x80003
80001e60:	9ec50513          	addi	a0,a0,-1556 # 800029ec <memset+0x198>
80001e64:	ffffe437          	lui	s0,0xffffe
80001e68:	bc8fe0ef          	jal	80000230 <_ZN9Serial_IO5writeEPKc>
80001e6c:	ff840413          	addi	s0,s0,-8 # ffffdff8 <_ZN9Serial_IO6statusE+0x7fffb1e8>
80001e70:	00810493          	addi	s1,sp,8
80001e74:	00900913          	li	s2,9
80001e78:	0009a603          	lw	a2,0(s3)
80001e7c:	00810693          	addi	a3,sp,8
80001e80:	00868813          	addi	a6,a3,8
80001e84:	00068713          	mv	a4,a3
80001e88:	00465793          	srli	a5,a2,0x4
80001e8c:	00f67593          	andi	a1,a2,15
80001e90:	00f7f793          	andi	a5,a5,15
80001e94:	03058513          	addi	a0,a1,48
80001e98:	00b97463          	bgeu	s2,a1,80001ea0 <_Z13testBurstReadR2SDmR5Timer+0x110>
80001e9c:	03758513          	addi	a0,a1,55
80001ea0:	03078593          	addi	a1,a5,48
80001ea4:	00f97463          	bgeu	s2,a5,80001eac <_Z13testBurstReadR2SDmR5Timer+0x11c>
80001ea8:	03778593          	addi	a1,a5,55
80001eac:	00a70023          	sb	a0,0(a4)
80001eb0:	00b700a3          	sb	a1,1(a4)
80001eb4:	00270713          	addi	a4,a4,2
80001eb8:	00865613          	srli	a2,a2,0x8
80001ebc:	fd0716e3          	bne	a4,a6,80001e88 <_Z13testBurstReadR2SDmR5Timer+0xf8>
80001ec0:	00468593          	addi	a1,a3,4
80001ec4:	00068793          	mv	a5,a3
80001ec8:	0007c603          	lbu	a2,0(a5)
80001ecc:	0076c703          	lbu	a4,7(a3)
80001ed0:	00178793          	addi	a5,a5,1
80001ed4:	00c683a3          	sb	a2,7(a3)
80001ed8:	fee78fa3          	sb	a4,-1(a5)
80001edc:	fff68693          	addi	a3,a3,-1
80001ee0:	fef594e3          	bne	a1,a5,80001ec8 <_Z13testBurstReadR2SDmR5Timer+0x138>
80001ee4:	00800593          	li	a1,8
80001ee8:	00048513          	mv	a0,s1
80001eec:	a20fe0ef          	jal	8000010c <_ZN9Serial_IO5writeEPKcm>
80001ef0:	00000513          	li	a0,0
80001ef4:	9f4fe0ef          	jal	800000e8 <_ZN9Serial_IO5writeEc>
80001ef8:	000027b7          	lui	a5,0x2
80001efc:	01078793          	addi	a5,a5,16 # 2010 <copy_loop+0x1fec>
80001f00:	00498993          	addi	s3,s3,4
80001f04:	002787b3          	add	a5,a5,sp
80001f08:	f6f998e3          	bne	s3,a5,80001e78 <_Z13testBurstReadR2SDmR5Timer+0xe8>
80001f0c:	80003537          	lui	a0,0x80003
80001f10:	99850513          	addi	a0,a0,-1640 # 80002998 <memset+0x144>
80001f14:	000022b7          	lui	t0,0x2
80001f18:	00510133          	add	sp,sp,t0
80001f1c:	02c12083          	lw	ra,44(sp)
80001f20:	02812403          	lw	s0,40(sp)
80001f24:	02412483          	lw	s1,36(sp)
80001f28:	02012903          	lw	s2,32(sp)
80001f2c:	01c12983          	lw	s3,28(sp)
80001f30:	03010113          	addi	sp,sp,48
80001f34:	afcfe06f          	j	80000230 <_ZN9Serial_IO5writeEPKc>
80001f38:	80003537          	lui	a0,0x80003
80001f3c:	9b450513          	addi	a0,a0,-1612 # 800029b4 <memset+0x160>
80001f40:	fd5ff06f          	j	80001f14 <_Z13testBurstReadR2SDmR5Timer+0x184>
80001f44:	80003537          	lui	a0,0x80003
80001f48:	99c50513          	addi	a0,a0,-1636 # 8000299c <memset+0x148>
80001f4c:	fc9ff06f          	j	80001f14 <_Z13testBurstReadR2SDmR5Timer+0x184>

80001f50 <_Z14testBurstWriteR2SDmR5Timer>:
80001f50:	fd010113          	addi	sp,sp,-48
80001f54:	ffffe2b7          	lui	t0,0xffffe
80001f58:	02912223          	sw	s1,36(sp)
80001f5c:	03212023          	sw	s2,32(sp)
80001f60:	01312e23          	sw	s3,28(sp)
80001f64:	02112623          	sw	ra,44(sp)
80001f68:	02812423          	sw	s0,40(sp)
80001f6c:	00510133          	add	sp,sp,t0
80001f70:	01010793          	addi	a5,sp,16
80001f74:	00058913          	mv	s2,a1
80001f78:	00050993          	mv	s3,a0
80001f7c:	00060493          	mv	s1,a2
80001f80:	00078513          	mv	a0,a5
80001f84:	00002637          	lui	a2,0x2
80001f88:	00000593          	li	a1,0
80001f8c:	000107a3          	sb	zero,15(sp)
80001f90:	00010723          	sb	zero,14(sp)
80001f94:	000106a3          	sb	zero,13(sp)
80001f98:	0bd000ef          	jal	80002854 <memset>
80001f9c:	00050793          	mv	a5,a0
80001fa0:	00090713          	mv	a4,s2
80001fa4:	000026b7          	lui	a3,0x2
80001fa8:	01068693          	addi	a3,a3,16 # 2010 <copy_loop+0x1fec>
80001fac:	00e7a023          	sw	a4,0(a5)
80001fb0:	002686b3          	add	a3,a3,sp
80001fb4:	00478793          	addi	a5,a5,4
80001fb8:	00170713          	addi	a4,a4,1
80001fbc:	fed794e3          	bne	a5,a3,80001fa4 <_Z14testBurstWriteR2SDmR5Timer+0x54>
80001fc0:	00048513          	mv	a0,s1
80001fc4:	984ff0ef          	jal	80001148 <_ZN5Timer7restartEv>
80001fc8:	01010413          	addi	s0,sp,16
80001fcc:	00d10793          	addi	a5,sp,13
80001fd0:	00090593          	mv	a1,s2
80001fd4:	00040693          	mv	a3,s0
80001fd8:	00e10893          	addi	a7,sp,14
80001fdc:	00f10813          	addi	a6,sp,15
80001fe0:	00000713          	li	a4,0
80001fe4:	01000613          	li	a2,16
80001fe8:	00098513          	mv	a0,s3
80001fec:	e85fe0ef          	jal	80000e70 <_ZN2SD10writeBurstEmmPmPhS1_RbS2_>
80001ff0:	00048513          	mv	a0,s1
80001ff4:	940ff0ef          	jal	80001134 <_ZN5Timer4stopEv>
80001ff8:	fff44783          	lbu	a5,-1(s0)
80001ffc:	08079463          	bnez	a5,80002084 <_Z14testBurstWriteR2SDmR5Timer+0x134>
80002000:	ffe44783          	lbu	a5,-2(s0)
80002004:	06079a63          	bnez	a5,80002078 <_Z14testBurstWriteR2SDmR5Timer+0x128>
80002008:	00048513          	mv	a0,s1
8000200c:	918ff0ef          	jal	80001124 <_ZNK5Timer7getTimeEv>
80002010:	01e55793          	srli	a5,a0,0x1e
80002014:	00259713          	slli	a4,a1,0x2
80002018:	20a54633          	sh2add	a2,a0,a0
8000201c:	00e7e733          	or	a4,a5,a4
80002020:	00251793          	slli	a5,a0,0x2
80002024:	00b70733          	add	a4,a4,a1
80002028:	00f637b3          	sltu	a5,a2,a5
8000202c:	00e787b3          	add	a5,a5,a4
80002030:	00179793          	slli	a5,a5,0x1
80002034:	01f65693          	srli	a3,a2,0x1f
80002038:	80003537          	lui	a0,0x80003
8000203c:	a3450513          	addi	a0,a0,-1484 # 80002a34 <memset+0x1e0>
80002040:	00f6e6b3          	or	a3,a3,a5
80002044:	00161613          	slli	a2,a2,0x1
80002048:	b3dff0ef          	jal	80001b84 <_ZN9Serial_IO6printfEPKcz>
8000204c:	80003537          	lui	a0,0x80003
80002050:	99850513          	addi	a0,a0,-1640 # 80002998 <memset+0x144>
80002054:	000022b7          	lui	t0,0x2
80002058:	00510133          	add	sp,sp,t0
8000205c:	02c12083          	lw	ra,44(sp)
80002060:	02812403          	lw	s0,40(sp)
80002064:	02412483          	lw	s1,36(sp)
80002068:	02012903          	lw	s2,32(sp)
8000206c:	01c12983          	lw	s3,28(sp)
80002070:	03010113          	addi	sp,sp,48
80002074:	9bcfe06f          	j	80000230 <_ZN9Serial_IO5writeEPKc>
80002078:	80003537          	lui	a0,0x80003
8000207c:	a1850513          	addi	a0,a0,-1512 # 80002a18 <memset+0x1c4>
80002080:	fd5ff06f          	j	80002054 <_Z14testBurstWriteR2SDmR5Timer+0x104>
80002084:	80003537          	lui	a0,0x80003
80002088:	a0050513          	addi	a0,a0,-1536 # 80002a00 <memset+0x1ac>
8000208c:	fc9ff06f          	j	80002054 <_Z14testBurstWriteR2SDmR5Timer+0x104>

80002090 <sd_test>:
80002090:	0001c537          	lui	a0,0x1c
80002094:	d3010113          	addi	sp,sp,-720
80002098:	00300713          	li	a4,3
8000209c:	00000693          	li	a3,0
800020a0:	00000613          	li	a2,0
800020a4:	20050513          	addi	a0,a0,512 # 1c200 <copy_loop+0x1c1dc>
800020a8:	00100593          	li	a1,1
800020ac:	2c112623          	sw	ra,716(sp)
800020b0:	f51fd0ef          	jal	80000000 <_ZN9Serial_IO4initEmbN4UART12parityMode_eENS0_10stopBits_eENS0_12dataLenght_eE>
800020b4:	02010513          	addi	a0,sp,32
800020b8:	00000593          	li	a1,0
800020bc:	f39fe0ef          	jal	80000ff4 <_ZN5TimerC1Em>
800020c0:	00100693          	li	a3,1
800020c4:	fff00593          	li	a1,-1
800020c8:	fff00613          	li	a2,-1
800020cc:	02010513          	addi	a0,sp,32
800020d0:	800ff0ef          	jal	800010d0 <_ZN5Timer4initEyNS_11timerMode_eE>
800020d4:	80003537          	lui	a0,0x80003
800020d8:	a5050513          	addi	a0,a0,-1456 # 80002a50 <memset+0x1fc>
800020dc:	954fe0ef          	jal	80000230 <_ZN9Serial_IO5writeEPKc>
800020e0:	03010513          	addi	a0,sp,48
800020e4:	00012c23          	sw	zero,24(sp)
800020e8:	00011e23          	sh	zero,28(sp)
800020ec:	00010823          	sb	zero,16(sp)
800020f0:	000107a3          	sb	zero,15(sp)
800020f4:	00010723          	sb	zero,14(sp)
800020f8:	974fe0ef          	jal	8000026c <_ZN2SDC1Ev>
800020fc:	00f10793          	addi	a5,sp,15
80002100:	01810693          	addi	a3,sp,24
80002104:	00e10813          	addi	a6,sp,14
80002108:	01010713          	addi	a4,sp,16
8000210c:	03010513          	addi	a0,sp,48
80002110:	00000613          	li	a2,0
80002114:	00100593          	li	a1,1
80002118:	d34fe0ef          	jal	8000064c <_ZN2SD4initENS_12clockSpeed_eENS_10busWidth_eEPhRbS3_S3_>
8000211c:	01014783          	lbu	a5,16(sp)
80002120:	42079263          	bnez	a5,80002544 <sd_test+0x4b4>
80002124:	00e14783          	lbu	a5,14(sp)
80002128:	2c812423          	sw	s0,712(sp)
8000212c:	2c912223          	sw	s1,708(sp)
80002130:	2d212023          	sw	s2,704(sp)
80002134:	2b312e23          	sw	s3,700(sp)
80002138:	2b412c23          	sw	s4,696(sp)
8000213c:	2b512a23          	sw	s5,692(sp)
80002140:	2b612823          	sw	s6,688(sp)
80002144:	2b712623          	sw	s7,684(sp)
80002148:	2b812423          	sw	s8,680(sp)
8000214c:	2b912223          	sw	s9,676(sp)
80002150:	2ba12023          	sw	s10,672(sp)
80002154:	29b12e23          	sw	s11,668(sp)
80002158:	32079063          	bnez	a5,80002478 <sd_test+0x3e8>
8000215c:	80003537          	lui	a0,0x80003
80002160:	acc50513          	addi	a0,a0,-1332 # 80002acc <memset+0x278>
80002164:	8ccfe0ef          	jal	80000230 <_ZN9Serial_IO5writeEPKc>
80002168:	80003537          	lui	a0,0x80003
8000216c:	b0050513          	addi	a0,a0,-1280 # 80002b00 <memset+0x2ac>
80002170:	8c0fe0ef          	jal	80000230 <_ZN9Serial_IO5writeEPKc>
80002174:	01810413          	addi	s0,sp,24
80002178:	01e10993          	addi	s3,sp,30
8000217c:	80003937          	lui	s2,0x80003
80002180:	00900493          	li	s1,9
80002184:	00044783          	lbu	a5,0(s0)
80002188:	00200593          	li	a1,2
8000218c:	01410513          	addi	a0,sp,20
80002190:	00f7f713          	andi	a4,a5,15
80002194:	03070693          	addi	a3,a4,48
80002198:	0047d793          	srli	a5,a5,0x4
8000219c:	00e4f463          	bgeu	s1,a4,800021a4 <sd_test+0x114>
800021a0:	03770693          	addi	a3,a4,55
800021a4:	03078713          	addi	a4,a5,48
800021a8:	00f4f463          	bgeu	s1,a5,800021b0 <sd_test+0x120>
800021ac:	03778713          	addi	a4,a5,55
800021b0:	00e10a23          	sb	a4,20(sp)
800021b4:	00d10aa3          	sb	a3,21(sp)
800021b8:	f55fd0ef          	jal	8000010c <_ZN9Serial_IO5writeEPKcm>
800021bc:	00000513          	li	a0,0
800021c0:	f29fd0ef          	jal	800000e8 <_ZN9Serial_IO5writeEc>
800021c4:	b2490513          	addi	a0,s2,-1244 # 80002b24 <memset+0x2d0>
800021c8:	00140413          	addi	s0,s0,1
800021cc:	864fe0ef          	jal	80000230 <_ZN9Serial_IO5writeEPKc>
800021d0:	fb341ae3          	bne	s0,s3,80002184 <sd_test+0xf4>
800021d4:	80003db7          	lui	s11,0x80003
800021d8:	998d8513          	addi	a0,s11,-1640 # 80002998 <memset+0x144>
800021dc:	854fe0ef          	jal	80000230 <_ZN9Serial_IO5writeEPKc>
800021e0:	80003537          	lui	a0,0x80003
800021e4:	b2850513          	addi	a0,a0,-1240 # 80002b28 <memset+0x2d4>
800021e8:	848fe0ef          	jal	80000230 <_ZN9Serial_IO5writeEPKc>
800021ec:	03815583          	lhu	a1,56(sp)
800021f0:	80003537          	lui	a0,0x80003
800021f4:	b5850513          	addi	a0,a0,-1192 # 80002b58 <memset+0x304>
800021f8:	98dff0ef          	jal	80001b84 <_ZN9Serial_IO6printfEPKcz>
800021fc:	05812703          	lw	a4,88(sp)
80002200:	05c12783          	lw	a5,92(sp)
80002204:	06012603          	lw	a2,96(sp)
80002208:	06412683          	lw	a3,100(sp)
8000220c:	80003537          	lui	a0,0x80003
80002210:	b6850513          	addi	a0,a0,-1176 # 80002b68 <memset+0x314>
80002214:	971ff0ef          	jal	80001b84 <_ZN9Serial_IO6printfEPKcz>
80002218:	04812703          	lw	a4,72(sp)
8000221c:	04c12783          	lw	a5,76(sp)
80002220:	05012603          	lw	a2,80(sp)
80002224:	05412683          	lw	a3,84(sp)
80002228:	80003537          	lui	a0,0x80003
8000222c:	b7850513          	addi	a0,a0,-1160 # 80002b78 <memset+0x324>
80002230:	955ff0ef          	jal	80001b84 <_ZN9Serial_IO6printfEPKcz>
80002234:	04012603          	lw	a2,64(sp)
80002238:	04412683          	lw	a3,68(sp)
8000223c:	80003537          	lui	a0,0x80003
80002240:	b8850513          	addi	a0,a0,-1144 # 80002b88 <memset+0x334>
80002244:	941ff0ef          	jal	80001b84 <_ZN9Serial_IO6printfEPKcz>
80002248:	03c12583          	lw	a1,60(sp)
8000224c:	80003537          	lui	a0,0x80003
80002250:	b9850513          	addi	a0,a0,-1128 # 80002b98 <memset+0x344>
80002254:	931ff0ef          	jal	80001b84 <_ZN9Serial_IO6printfEPKcz>
80002258:	800037b7          	lui	a5,0x80003
8000225c:	ba878513          	addi	a0,a5,-1112 # 80002ba8 <memset+0x354>
80002260:	fd1fd0ef          	jal	80000230 <_ZN9Serial_IO5writeEPKc>
80002264:	80003537          	lui	a0,0x80003
80002268:	bac50513          	addi	a0,a0,-1108 # 80002bac <memset+0x358>
8000226c:	fc5fd0ef          	jal	80000230 <_ZN9Serial_IO5writeEPKc>
80002270:	00000593          	li	a1,0
80002274:	03010513          	addi	a0,sp,48
80002278:	94dfe0ef          	jal	80000bc4 <_ZN2SD11setBusWidthENS_10busWidth_eE>
8000227c:	03010513          	addi	a0,sp,48
80002280:	00000593          	li	a1,0
80002284:	91cfe0ef          	jal	800003a0 <_ZN2SD13setClockSpeedENS_12clockSpeed_eE>
80002288:	00000d13          	li	s10,0
8000228c:	800034b7          	lui	s1,0x80003
80002290:	80003cb7          	lui	s9,0x80003
80002294:	80003c37          	lui	s8,0x80003
80002298:	80003bb7          	lui	s7,0x80003
8000229c:	80003b37          	lui	s6,0x80003
800022a0:	80003ab7          	lui	s5,0x80003
800022a4:	80003a37          	lui	s4,0x80003
800022a8:	00400913          	li	s2,4
800022ac:	00000413          	li	s0,0
800022b0:	00040593          	mv	a1,s0
800022b4:	c7448513          	addi	a0,s1,-908 # 80002c74 <memset+0x420>
800022b8:	8cdff0ef          	jal	80001b84 <_ZN9Serial_IO6printfEPKcz>
800022bc:	c90c8513          	addi	a0,s9,-880 # 80002c90 <memset+0x43c>
800022c0:	f71fd0ef          	jal	80000230 <_ZN9Serial_IO5writeEPKc>
800022c4:	02010613          	addi	a2,sp,32
800022c8:	00040593          	mv	a1,s0
800022cc:	03010513          	addi	a0,sp,48
800022d0:	8f9ff0ef          	jal	80001bc8 <_Z8testReadR2SDmR5Timer>
800022d4:	cb4c0513          	addi	a0,s8,-844 # 80002cb4 <memset+0x460>
800022d8:	f59fd0ef          	jal	80000230 <_ZN9Serial_IO5writeEPKc>
800022dc:	09010513          	addi	a0,sp,144
800022e0:	20000613          	li	a2,512
800022e4:	00000593          	li	a1,0
800022e8:	000108a3          	sb	zero,17(sp)
800022ec:	00010923          	sb	zero,18(sp)
800022f0:	000109a3          	sb	zero,19(sp)
800022f4:	560000ef          	jal	80002854 <memset>
800022f8:	09010793          	addi	a5,sp,144
800022fc:	00040713          	mv	a4,s0
80002300:	00e7a023          	sw	a4,0(a5)
80002304:	29010693          	addi	a3,sp,656
80002308:	00478793          	addi	a5,a5,4
8000230c:	00170713          	addi	a4,a4,1
80002310:	fef698e3          	bne	a3,a5,80002300 <sd_test+0x270>
80002314:	02010513          	addi	a0,sp,32
80002318:	e31fe0ef          	jal	80001148 <_ZN5Timer7restartEv>
8000231c:	01110793          	addi	a5,sp,17
80002320:	01210813          	addi	a6,sp,18
80002324:	01310713          	addi	a4,sp,19
80002328:	09010613          	addi	a2,sp,144
8000232c:	00040593          	mv	a1,s0
80002330:	00000693          	li	a3,0
80002334:	03010513          	addi	a0,sp,48
80002338:	9c4fe0ef          	jal	800004fc <_ZN2SD10writeBlockEmPmPhRhRbS3_>
8000233c:	02010513          	addi	a0,sp,32
80002340:	df5fe0ef          	jal	80001134 <_ZN5Timer4stopEv>
80002344:	01114783          	lbu	a5,17(sp)
80002348:	14079863          	bnez	a5,80002498 <sd_test+0x408>
8000234c:	01214783          	lbu	a5,18(sp)
80002350:	12079c63          	bnez	a5,80002488 <sd_test+0x3f8>
80002354:	02010513          	addi	a0,sp,32
80002358:	dcdfe0ef          	jal	80001124 <_ZNK5Timer7getTimeEv>
8000235c:	01e55793          	srli	a5,a0,0x1e
80002360:	00259713          	slli	a4,a1,0x2
80002364:	00e7e733          	or	a4,a5,a4
80002368:	00251793          	slli	a5,a0,0x2
8000236c:	20a54533          	sh2add	a0,a0,a0
80002370:	00b70733          	add	a4,a4,a1
80002374:	00f537b3          	sltu	a5,a0,a5
80002378:	00e787b3          	add	a5,a5,a4
8000237c:	00179793          	slli	a5,a5,0x1
80002380:	01f55693          	srli	a3,a0,0x1f
80002384:	00f6e6b3          	or	a3,a3,a5
80002388:	800037b7          	lui	a5,0x80003
8000238c:	00151613          	slli	a2,a0,0x1
80002390:	cfc78513          	addi	a0,a5,-772 # 80002cfc <memset+0x4a8>
80002394:	ff0ff0ef          	jal	80001b84 <_ZN9Serial_IO6printfEPKcz>
80002398:	998d8513          	addi	a0,s11,-1640
8000239c:	e95fd0ef          	jal	80000230 <_ZN9Serial_IO5writeEPKc>
800023a0:	d14b8513          	addi	a0,s7,-748 # 80002d14 <memset+0x4c0>
800023a4:	e8dfd0ef          	jal	80000230 <_ZN9Serial_IO5writeEPKc>
800023a8:	00040593          	mv	a1,s0
800023ac:	02010613          	addi	a2,sp,32
800023b0:	03010513          	addi	a0,sp,48
800023b4:	00140413          	addi	s0,s0,1
800023b8:	811ff0ef          	jal	80001bc8 <_Z8testReadR2SDmR5Timer>
800023bc:	ef241ae3          	bne	s0,s2,800022b0 <sd_test+0x220>
800023c0:	998d8513          	addi	a0,s11,-1640
800023c4:	e6dfd0ef          	jal	80000230 <_ZN9Serial_IO5writeEPKc>
800023c8:	04400993          	li	s3,68
800023cc:	00040593          	mv	a1,s0
800023d0:	c7448513          	addi	a0,s1,-908
800023d4:	fb0ff0ef          	jal	80001b84 <_ZN9Serial_IO6printfEPKcz>
800023d8:	d34b0513          	addi	a0,s6,-716 # 80002d34 <memset+0x4e0>
800023dc:	e55fd0ef          	jal	80000230 <_ZN9Serial_IO5writeEPKc>
800023e0:	00040593          	mv	a1,s0
800023e4:	02010613          	addi	a2,sp,32
800023e8:	03010513          	addi	a0,sp,48
800023ec:	9a5ff0ef          	jal	80001d90 <_Z13testBurstReadR2SDmR5Timer>
800023f0:	d60a8513          	addi	a0,s5,-672 # 80002d60 <memset+0x50c>
800023f4:	e3dfd0ef          	jal	80000230 <_ZN9Serial_IO5writeEPKc>
800023f8:	00040593          	mv	a1,s0
800023fc:	02010613          	addi	a2,sp,32
80002400:	03010513          	addi	a0,sp,48
80002404:	b4dff0ef          	jal	80001f50 <_Z14testBurstWriteR2SDmR5Timer>
80002408:	d88a0513          	addi	a0,s4,-632 # 80002d88 <memset+0x534>
8000240c:	e25fd0ef          	jal	80000230 <_ZN9Serial_IO5writeEPKc>
80002410:	00040593          	mv	a1,s0
80002414:	02010613          	addi	a2,sp,32
80002418:	03010513          	addi	a0,sp,48
8000241c:	01040413          	addi	s0,s0,16
80002420:	971ff0ef          	jal	80001d90 <_Z13testBurstReadR2SDmR5Timer>
80002424:	fb3414e3          	bne	s0,s3,800023cc <sd_test+0x33c>
80002428:	800037b7          	lui	a5,0x80003
8000242c:	ba878513          	addi	a0,a5,-1112 # 80002ba8 <memset+0x354>
80002430:	001d0d13          	addi	s10,s10,1
80002434:	dfdfd0ef          	jal	80000230 <_ZN9Serial_IO5writeEPKc>
80002438:	0d2d0063          	beq	s10,s2,800024f8 <sd_test+0x468>
8000243c:	00200793          	li	a5,2
80002440:	08fd0863          	beq	s10,a5,800024d0 <sd_test+0x440>
80002444:	00300793          	li	a5,3
80002448:	06fd0063          	beq	s10,a5,800024a8 <sd_test+0x418>
8000244c:	80003537          	lui	a0,0x80003
80002450:	be050513          	addi	a0,a0,-1056 # 80002be0 <memset+0x38c>
80002454:	dddfd0ef          	jal	80000230 <_ZN9Serial_IO5writeEPKc>
80002458:	00000593          	li	a1,0
8000245c:	03010513          	addi	a0,sp,48
80002460:	f64fe0ef          	jal	80000bc4 <_ZN2SD11setBusWidthENS_10busWidth_eE>
80002464:	03010513          	addi	a0,sp,48
80002468:	00100593          	li	a1,1
8000246c:	f35fd0ef          	jal	800003a0 <_ZN2SD13setClockSpeedENS_12clockSpeed_eE>
80002470:	00100d13          	li	s10,1
80002474:	e39ff06f          	j	800022ac <sd_test+0x21c>
80002478:	80003537          	lui	a0,0x80003
8000247c:	a9850513          	addi	a0,a0,-1384 # 80002a98 <memset+0x244>
80002480:	db1fd0ef          	jal	80000230 <_ZN9Serial_IO5writeEPKc>
80002484:	ce5ff06f          	j	80002168 <sd_test+0xd8>
80002488:	800037b7          	lui	a5,0x80003
8000248c:	ce878513          	addi	a0,a5,-792 # 80002ce8 <memset+0x494>
80002490:	da1fd0ef          	jal	80000230 <_ZN9Serial_IO5writeEPKc>
80002494:	f0dff06f          	j	800023a0 <sd_test+0x310>
80002498:	80003537          	lui	a0,0x80003
8000249c:	cd450513          	addi	a0,a0,-812 # 80002cd4 <memset+0x480>
800024a0:	d91fd0ef          	jal	80000230 <_ZN9Serial_IO5writeEPKc>
800024a4:	efdff06f          	j	800023a0 <sd_test+0x310>
800024a8:	80003537          	lui	a0,0x80003
800024ac:	c4450513          	addi	a0,a0,-956 # 80002c44 <memset+0x3f0>
800024b0:	d81fd0ef          	jal	80000230 <_ZN9Serial_IO5writeEPKc>
800024b4:	03010513          	addi	a0,sp,48
800024b8:	00100593          	li	a1,1
800024bc:	f08fe0ef          	jal	80000bc4 <_ZN2SD11setBusWidthENS_10busWidth_eE>
800024c0:	03010513          	addi	a0,sp,48
800024c4:	00100593          	li	a1,1
800024c8:	ed9fd0ef          	jal	800003a0 <_ZN2SD13setClockSpeedENS_12clockSpeed_eE>
800024cc:	de1ff06f          	j	800022ac <sd_test+0x21c>
800024d0:	80003537          	lui	a0,0x80003
800024d4:	c1450513          	addi	a0,a0,-1004 # 80002c14 <memset+0x3c0>
800024d8:	d59fd0ef          	jal	80000230 <_ZN9Serial_IO5writeEPKc>
800024dc:	03010513          	addi	a0,sp,48
800024e0:	00100593          	li	a1,1
800024e4:	ee0fe0ef          	jal	80000bc4 <_ZN2SD11setBusWidthENS_10busWidth_eE>
800024e8:	03010513          	addi	a0,sp,48
800024ec:	00000593          	li	a1,0
800024f0:	eb1fd0ef          	jal	800003a0 <_ZN2SD13setClockSpeedENS_12clockSpeed_eE>
800024f4:	db9ff06f          	j	800022ac <sd_test+0x21c>
800024f8:	03010513          	addi	a0,sp,48
800024fc:	e61fd0ef          	jal	8000035c <_ZN2SDD1Ev>
80002500:	02010513          	addi	a0,sp,32
80002504:	b71fe0ef          	jal	80001074 <_ZN5TimerD1Ev>
80002508:	2cc12083          	lw	ra,716(sp)
8000250c:	2c812403          	lw	s0,712(sp)
80002510:	2c412483          	lw	s1,708(sp)
80002514:	2c012903          	lw	s2,704(sp)
80002518:	2bc12983          	lw	s3,700(sp)
8000251c:	2b812a03          	lw	s4,696(sp)
80002520:	2b412a83          	lw	s5,692(sp)
80002524:	2b012b03          	lw	s6,688(sp)
80002528:	2ac12b83          	lw	s7,684(sp)
8000252c:	2a812c03          	lw	s8,680(sp)
80002530:	2a412c83          	lw	s9,676(sp)
80002534:	2a012d03          	lw	s10,672(sp)
80002538:	29c12d83          	lw	s11,668(sp)
8000253c:	2d010113          	addi	sp,sp,720
80002540:	00008067          	ret
80002544:	80003537          	lui	a0,0x80003
80002548:	a7c50513          	addi	a0,a0,-1412 # 80002a7c <memset+0x228>
8000254c:	ce5fd0ef          	jal	80000230 <_ZN9Serial_IO5writeEPKc>
80002550:	03010513          	addi	a0,sp,48
80002554:	e09fd0ef          	jal	8000035c <_ZN2SDD1Ev>
80002558:	02010513          	addi	a0,sp,32
8000255c:	b19fe0ef          	jal	80001074 <_ZN5TimerD1Ev>
80002560:	2cc12083          	lw	ra,716(sp)
80002564:	2d010113          	addi	sp,sp,720
80002568:	00008067          	ret

8000256c <__truncdfsf2>:
8000256c:	00202673          	frrm	a2
80002570:	0145d313          	srli	t1,a1,0x14
80002574:	7ff37313          	andi	t1,t1,2047
80002578:	00c59793          	slli	a5,a1,0xc
8000257c:	00130813          	addi	a6,t1,1
80002580:	0097d793          	srli	a5,a5,0x9
80002584:	01d55713          	srli	a4,a0,0x1d
80002588:	7fe87813          	andi	a6,a6,2046
8000258c:	01f5d593          	srli	a1,a1,0x1f
80002590:	00f76733          	or	a4,a4,a5
80002594:	00351693          	slli	a3,a0,0x3
80002598:	18080263          	beqz	a6,8000271c <__truncdfsf2+0x1b0>
8000259c:	c8030813          	addi	a6,t1,-896
800025a0:	0fe00893          	li	a7,254
800025a4:	0b08d263          	bge	a7,a6,80002648 <__truncdfsf2+0xdc>
800025a8:	28060e63          	beqz	a2,80002844 <__truncdfsf2+0x2d8>
800025ac:	00300793          	li	a5,3
800025b0:	06f61a63          	bne	a2,a5,80002624 <__truncdfsf2+0xb8>
800025b4:	28058863          	beqz	a1,80002844 <__truncdfsf2+0x2d8>
800025b8:	fff00793          	li	a5,-1
800025bc:	00000713          	li	a4,0
800025c0:	00088313          	mv	t1,a7
800025c4:	00500813          	li	a6,5
800025c8:	00300693          	li	a3,3
800025cc:	1ed60c63          	beq	a2,a3,800027c4 <__truncdfsf2+0x258>
800025d0:	00061a63          	bnez	a2,800025e4 <__truncdfsf2+0x78>
800025d4:	00f7f693          	andi	a3,a5,15
800025d8:	00400513          	li	a0,4
800025dc:	00a68463          	beq	a3,a0,800025e4 <__truncdfsf2+0x78>
800025e0:	00a787b3          	add	a5,a5,a0
800025e4:	00070863          	beqz	a4,800025f4 <__truncdfsf2+0x88>
800025e8:	00187713          	andi	a4,a6,1
800025ec:	00171713          	slli	a4,a4,0x1
800025f0:	00e86833          	or	a6,a6,a4
800025f4:	00579713          	slli	a4,a5,0x5
800025f8:	1e074463          	bltz	a4,800027e0 <__truncdfsf2+0x274>
800025fc:	0037d793          	srli	a5,a5,0x3
80002600:	00979793          	slli	a5,a5,0x9
80002604:	0097d793          	srli	a5,a5,0x9
80002608:	01731513          	slli	a0,t1,0x17
8000260c:	00f56533          	or	a0,a0,a5
80002610:	01f59793          	slli	a5,a1,0x1f
80002614:	00f56533          	or	a0,a0,a5
80002618:	00080463          	beqz	a6,80002620 <__truncdfsf2+0xb4>
8000261c:	00182073          	csrs	fflags,a6
80002620:	00008067          	ret
80002624:	00200793          	li	a5,2
80002628:	1af61463          	bne	a2,a5,800027d0 <__truncdfsf2+0x264>
8000262c:	20059c63          	bnez	a1,80002844 <__truncdfsf2+0x2d8>
80002630:	00000713          	li	a4,0
80002634:	fff00793          	li	a5,-1
80002638:	00088313          	mv	t1,a7
8000263c:	00500813          	li	a6,5
80002640:	20f5e7b3          	sh3add	a5,a1,a5
80002644:	fa1ff06f          	j	800025e4 <__truncdfsf2+0x78>
80002648:	0b004663          	bgtz	a6,800026f4 <__truncdfsf2+0x188>
8000264c:	fe900513          	li	a0,-23
80002650:	00100793          	li	a5,1
80002654:	02a84a63          	blt	a6,a0,80002688 <__truncdfsf2+0x11c>
80002658:	01e00893          	li	a7,30
8000265c:	410888b3          	sub	a7,a7,a6
80002660:	01f00793          	li	a5,31
80002664:	29771713          	bseti	a4,a4,0x17
80002668:	0517ce63          	blt	a5,a7,800026c4 <__truncdfsf2+0x158>
8000266c:	c8230513          	addi	a0,t1,-894
80002670:	0116d8b3          	srl	a7,a3,a7
80002674:	00a696b3          	sll	a3,a3,a0
80002678:	00d036b3          	snez	a3,a3
8000267c:	00a71733          	sll	a4,a4,a0
80002680:	00e6e6b3          	or	a3,a3,a4
80002684:	00d8e7b3          	or	a5,a7,a3
80002688:	00179713          	slli	a4,a5,0x1
8000268c:	00777693          	andi	a3,a4,7
80002690:	10068c63          	beqz	a3,800027a8 <__truncdfsf2+0x23c>
80002694:	00200693          	li	a3,2
80002698:	0ed60e63          	beq	a2,a3,80002794 <__truncdfsf2+0x228>
8000269c:	00300693          	li	a3,3
800026a0:	0cd60263          	beq	a2,a3,80002764 <__truncdfsf2+0x1f8>
800026a4:	0e061a63          	bnez	a2,80002798 <__truncdfsf2+0x22c>
800026a8:	00f77693          	andi	a3,a4,15
800026ac:	00400513          	li	a0,4
800026b0:	00a70733          	add	a4,a4,a0
800026b4:	0aa69c63          	bne	a3,a0,8000276c <__truncdfsf2+0x200>
800026b8:	00000313          	li	t1,0
800026bc:	00100713          	li	a4,1
800026c0:	0b80006f          	j	80002778 <__truncdfsf2+0x20c>
800026c4:	ffe00793          	li	a5,-2
800026c8:	410787b3          	sub	a5,a5,a6
800026cc:	02000513          	li	a0,32
800026d0:	00f757b3          	srl	a5,a4,a5
800026d4:	00000813          	li	a6,0
800026d8:	00a88663          	beq	a7,a0,800026e4 <__truncdfsf2+0x178>
800026dc:	ca230813          	addi	a6,t1,-862
800026e0:	01071833          	sll	a6,a4,a6
800026e4:	00d86833          	or	a6,a6,a3
800026e8:	01003833          	snez	a6,a6
800026ec:	0107e7b3          	or	a5,a5,a6
800026f0:	f99ff06f          	j	80002688 <__truncdfsf2+0x11c>
800026f4:	00651513          	slli	a0,a0,0x6
800026f8:	00371713          	slli	a4,a4,0x3
800026fc:	00a03533          	snez	a0,a0
80002700:	00e56533          	or	a0,a0,a4
80002704:	01d6d693          	srli	a3,a3,0x1d
80002708:	00d567b3          	or	a5,a0,a3
8000270c:	00080313          	mv	t1,a6
80002710:	00000713          	li	a4,0
80002714:	00000813          	li	a6,0
80002718:	0640006f          	j	8000277c <__truncdfsf2+0x210>
8000271c:	00d767b3          	or	a5,a4,a3
80002720:	00031863          	bnez	t1,80002730 <__truncdfsf2+0x1c4>
80002724:	ec078ee3          	beqz	a5,80002600 <__truncdfsf2+0x94>
80002728:	00100793          	li	a5,1
8000272c:	f5dff06f          	j	80002688 <__truncdfsf2+0x11c>
80002730:	10078e63          	beqz	a5,8000284c <__truncdfsf2+0x2e0>
80002734:	7ff00793          	li	a5,2047
80002738:	00f31863          	bne	t1,a5,80002748 <__truncdfsf2+0x1dc>
8000273c:	01675813          	srli	a6,a4,0x16
80002740:	00184813          	xori	a6,a6,1
80002744:	00481813          	slli	a6,a6,0x4
80002748:	00076793          	ori	a5,a4,0
8000274c:	29679793          	bseti	a5,a5,0x16
80002750:	0e078e63          	beqz	a5,8000284c <__truncdfsf2+0x2e0>
80002754:	00000593          	li	a1,0
80002758:	0ff00313          	li	t1,255
8000275c:	004007b7          	lui	a5,0x400
80002760:	ea1ff06f          	j	80002600 <__truncdfsf2+0x94>
80002764:	04059863          	bnez	a1,800027b4 <__truncdfsf2+0x248>
80002768:	00870713          	addi	a4,a4,8
8000276c:	49b75713          	bexti	a4,a4,0x1b
80002770:	00174713          	xori	a4,a4,1
80002774:	00000313          	li	t1,0
80002778:	00100813          	li	a6,1
8000277c:	0077f693          	andi	a3,a5,7
80002780:	e60682e3          	beqz	a3,800025e4 <__truncdfsf2+0x78>
80002784:	00200693          	li	a3,2
80002788:	00100813          	li	a6,1
8000278c:	e2d61ee3          	bne	a2,a3,800025c8 <__truncdfsf2+0x5c>
80002790:	eb1ff06f          	j	80002640 <__truncdfsf2+0xd4>
80002794:	fc059ae3          	bnez	a1,80002768 <__truncdfsf2+0x1fc>
80002798:	00100713          	li	a4,1
8000279c:	00000313          	li	t1,0
800027a0:	00070813          	mv	a6,a4
800027a4:	fd9ff06f          	j	8000277c <__truncdfsf2+0x210>
800027a8:	00000313          	li	t1,0
800027ac:	00100713          	li	a4,1
800027b0:	f65ff06f          	j	80002714 <__truncdfsf2+0x1a8>
800027b4:	00058713          	mv	a4,a1
800027b8:	00058813          	mv	a6,a1
800027bc:	00000313          	li	t1,0
800027c0:	fbdff06f          	j	8000277c <__truncdfsf2+0x210>
800027c4:	e20590e3          	bnez	a1,800025e4 <__truncdfsf2+0x78>
800027c8:	00878793          	addi	a5,a5,8 # 400008 <copy_loop+0x3fffe4>
800027cc:	e19ff06f          	j	800025e4 <__truncdfsf2+0x78>
800027d0:	00088313          	mv	t1,a7
800027d4:	fff00793          	li	a5,-1
800027d8:	00500813          	li	a6,5
800027dc:	e19ff06f          	j	800025f4 <__truncdfsf2+0x88>
800027e0:	00130313          	addi	t1,t1,1
800027e4:	0ff00713          	li	a4,255
800027e8:	00e30c63          	beq	t1,a4,80002800 <__truncdfsf2+0x294>
800027ec:	1f800737          	lui	a4,0x1f800
800027f0:	0037d793          	srli	a5,a5,0x3
800027f4:	fff70713          	addi	a4,a4,-1 # 1f7fffff <copy_loop+0x1f7fffdb>
800027f8:	00e7f7b3          	and	a5,a5,a4
800027fc:	e05ff06f          	j	80002600 <__truncdfsf2+0x94>
80002800:	00000793          	li	a5,0
80002804:	02060463          	beqz	a2,8000282c <__truncdfsf2+0x2c0>
80002808:	00300713          	li	a4,3
8000280c:	00e61a63          	bne	a2,a4,80002820 <__truncdfsf2+0x2b4>
80002810:	00058e63          	beqz	a1,8000282c <__truncdfsf2+0x2c0>
80002814:	fff00793          	li	a5,-1
80002818:	0fe00313          	li	t1,254
8000281c:	0100006f          	j	8000282c <__truncdfsf2+0x2c0>
80002820:	00200713          	li	a4,2
80002824:	fee618e3          	bne	a2,a4,80002814 <__truncdfsf2+0x2a8>
80002828:	fe0586e3          	beqz	a1,80002814 <__truncdfsf2+0x2a8>
8000282c:	0ff00713          	li	a4,255
80002830:	00586813          	ori	a6,a6,5
80002834:	0037d793          	srli	a5,a5,0x3
80002838:	f0e30ce3          	beq	t1,a4,80002750 <__truncdfsf2+0x1e4>
8000283c:	0fe00313          	li	t1,254
80002840:	dc1ff06f          	j	80002600 <__truncdfsf2+0x94>
80002844:	00000793          	li	a5,0
80002848:	00500813          	li	a6,5
8000284c:	0ff00313          	li	t1,255
80002850:	db1ff06f          	j	80002600 <__truncdfsf2+0x94>

80002854 <memset>:
80002854:	00f00313          	li	t1,15
80002858:	00050713          	mv	a4,a0
8000285c:	02c37e63          	bgeu	t1,a2,80002898 <memset+0x44>
80002860:	00f77793          	andi	a5,a4,15
80002864:	0a079063          	bnez	a5,80002904 <memset+0xb0>
80002868:	08059263          	bnez	a1,800028ec <memset+0x98>
8000286c:	ff067693          	andi	a3,a2,-16
80002870:	00f67613          	andi	a2,a2,15
80002874:	00e686b3          	add	a3,a3,a4
80002878:	00b72023          	sw	a1,0(a4)
8000287c:	00b72223          	sw	a1,4(a4)
80002880:	00b72423          	sw	a1,8(a4)
80002884:	00b72623          	sw	a1,12(a4)
80002888:	01070713          	addi	a4,a4,16
8000288c:	fed766e3          	bltu	a4,a3,80002878 <memset+0x24>
80002890:	00061463          	bnez	a2,80002898 <memset+0x44>
80002894:	00008067          	ret
80002898:	40c306b3          	sub	a3,t1,a2
8000289c:	00269693          	slli	a3,a3,0x2
800028a0:	00000297          	auipc	t0,0x0
800028a4:	005686b3          	add	a3,a3,t0
800028a8:	00c68067          	jr	12(a3)
800028ac:	00b70723          	sb	a1,14(a4)
800028b0:	00b706a3          	sb	a1,13(a4)
800028b4:	00b70623          	sb	a1,12(a4)
800028b8:	00b705a3          	sb	a1,11(a4)
800028bc:	00b70523          	sb	a1,10(a4)
800028c0:	00b704a3          	sb	a1,9(a4)
800028c4:	00b70423          	sb	a1,8(a4)
800028c8:	00b703a3          	sb	a1,7(a4)
800028cc:	00b70323          	sb	a1,6(a4)
800028d0:	00b702a3          	sb	a1,5(a4)
800028d4:	00b70223          	sb	a1,4(a4)
800028d8:	00b701a3          	sb	a1,3(a4)
800028dc:	00b70123          	sb	a1,2(a4)
800028e0:	00b700a3          	sb	a1,1(a4)
800028e4:	00b70023          	sb	a1,0(a4)
800028e8:	00008067          	ret
800028ec:	0ff5f593          	zext.b	a1,a1
800028f0:	00859693          	slli	a3,a1,0x8
800028f4:	00d5e5b3          	or	a1,a1,a3
800028f8:	01059693          	slli	a3,a1,0x10
800028fc:	00d5e5b3          	or	a1,a1,a3
80002900:	f6dff06f          	j	8000286c <memset+0x18>
80002904:	00279693          	slli	a3,a5,0x2
80002908:	00000297          	auipc	t0,0x0
8000290c:	005686b3          	add	a3,a3,t0
80002910:	00008293          	mv	t0,ra
80002914:	fa0680e7          	jalr	-96(a3)
80002918:	00028093          	mv	ra,t0
8000291c:	ff078793          	addi	a5,a5,-16
80002920:	40f70733          	sub	a4,a4,a5
80002924:	00f60633          	add	a2,a2,a5
80002928:	f6c378e3          	bgeu	t1,a2,80002898 <memset+0x44>
8000292c:	f3dff06f          	j	80002868 <memset+0x14>
